(dp1
S'output'
p2
S"<type 'exceptions.KeyError'> 1"
p3
sS'layer'
p4
S'/home/mukul/web2py/applications/blogpost/controllers/default.py'
p5
sS'code'
p6
S"# -*- coding: utf-8 -*-\n# this file is released under public domain and you can use without limitations\n\n#########################################################################\n## This is a samples controller\n## - index is the default action of any application\n## - user is required for authentication and authorization\n## - download is for downloading files uploaded in the db (does streaming)\n## - call exposes all registered services (none by default)\n#########################################################################\nimport datetime\n\ndef user():\n    return dict(form=auth())\n    \n    \n    \ndef add_blog_post():\n    if request.post_vars['title'] != None:\n        blog_title = request.post_vars['title']\n        blog_data = request.post_vars['data']\n        x = request.post_vars['video']\n        y=x.split('=')        \n        \n        blog_date = datetime.datetime.now()\n        db.content.insert(title=blog_title\n                        ,data=blog_data\n                        ,video='https://www.youtube.com/embed/'+y[1]\n                        ,date_time=blog_date)\n        redirect(URL('show'))\n    return dict()\n    \n     \n    #redirect  show all blog posts usi particular user ke   \n\n    \n     \n@auth.requires_login()\ndef show():\n       \n       all_blog={}\n       for i in db().select(db.content.ALL):\n           b=i.id\n           x=db(db.content.id==b).select(db.content.data)\n           all_blog[b]['data']=x\n           y=db(db.content.id==b).select(db.content.title)\n           all_blog[b]['title']=y\n           z=db(db.content.id==b).select(db.content.video)\n           all_blog[b]['video']=z\n           \n          \n           return dict(t=all_blog,a=id1)\n\nresponse._vars=response._caller(show)\n"
p7
sS'snapshot'
p8
(dp9
S'exception'
p10
(dp11
S'__hash__'
p12
S"<method-wrapper '__hash__' of exceptions.KeyError object>"
p13
sS'__setattr__'
p14
S"<method-wrapper '__setattr__' of exceptions.KeyError object>"
p15
sS'__reduce_ex__'
p16
S'<built-in method __reduce_ex__ of exceptions.KeyError object>'
p17
sS'__getslice__'
p18
S"<method-wrapper '__getslice__' of exceptions.KeyError object>"
p19
sS'__getitem__'
p20
S"<method-wrapper '__getitem__' of exceptions.KeyError object>"
p21
sS'__setstate__'
p22
S'<built-in method __setstate__ of exceptions.KeyError object>'
p23
sS'__reduce__'
p24
S'<built-in method __reduce__ of exceptions.KeyError object>'
p25
sS'__str__'
p26
S"<method-wrapper '__str__' of exceptions.KeyError object>"
p27
sS'__format__'
p28
S'<built-in method __format__ of exceptions.KeyError object>'
p29
sS'__getattribute__'
p30
S"<method-wrapper '__getattribute__' of exceptions.KeyError object>"
p31
sS'__class__'
p32
S"<type 'exceptions.KeyError'>"
p33
sS'__unicode__'
p34
S'<built-in method __unicode__ of exceptions.KeyError object>'
p35
sS'__delattr__'
p36
S"<method-wrapper '__delattr__' of exceptions.KeyError object>"
p37
sS'__subclasshook__'
p38
S'<built-in method __subclasshook__ of type object>'
p39
sS'__repr__'
p40
S"<method-wrapper '__repr__' of exceptions.KeyError object>"
p41
sS'args'
p42
S'(1,)'
p43
sS'__dict__'
p44
S'{}'
p45
sS'__sizeof__'
p46
S'<built-in method __sizeof__ of exceptions.KeyError object>'
p47
sS'__doc__'
p48
S"'Mapping key not found.'"
p49
sS'__init__'
p50
S"<method-wrapper '__init__' of exceptions.KeyError object>"
p51
sS'__new__'
p52
S'<built-in method __new__ of type object>'
p53
ssS'evalue'
p54
S'1'
sS'request'
p55
ccopy_reg
_reconstructor
p56
(cgluon.html
BEAUTIFY
p57
c__builtin__
object
p58
NtRp59
(dp60
S'attributes'
p61
(dp62
sS'components'
p63
(lp64
g56
(cgluon.html
TABLE
p65
g58
NtRp66
(dp67
g61
(dp68
S'level'
p69
I5
ssS'parent'
p70
Nsg63
(lp71
g56
(cgluon.html
TR
p72
g58
NtRp73
(dp74
g61
(dp75
sg70
g66
sg63
(lp76
g56
(cgluon.html
TD
p77
g58
NtRp78
(dp79
g61
(dp80
S'_style'
p81
S'font-weight:bold;vertical-align:top'
p82
ssg70
g73
sg63
(lp83
S'ajax'
p84
asbag56
(g77
g58
NtRp85
(dp86
g61
(dp87
S'_valign'
p88
S'top'
p89
ssg70
g73
sg63
(lp90
S':'
asbag56
(g77
g58
NtRp91
(dp92
g61
(dp93
sg70
g73
sg63
(lp94
g56
(g57
g58
NtRp95
(dp96
g61
(dp97
g69
I5
ssg70
g91
sg63
(lp98
S'False'
p99
asbasbasbag56
(g72
g58
NtRp100
(dp101
g61
(dp102
sg70
g66
sg63
(lp103
g56
(g77
g58
NtRp104
(dp105
g61
(dp106
g81
g82
ssg70
g100
sg63
(lp107
S'application'
p108
asbag56
(g77
g58
NtRp109
(dp110
g61
(dp111
g88
g89
ssg70
g100
sg63
(lp112
S':'
asbag56
(g77
g58
NtRp113
(dp114
g61
(dp115
sg70
g100
sg63
(lp116
g56
(g57
g58
NtRp117
(dp118
g61
(dp119
g69
I5
ssg70
g113
sg63
(lp120
S'blogpost'
p121
asbasbasbag56
(g72
g58
NtRp122
(dp123
g61
(dp124
sg70
g66
sg63
(lp125
g56
(g77
g58
NtRp126
(dp127
g61
(dp128
g81
g82
ssg70
g122
sg63
(lp129
g42
asbag56
(g77
g58
NtRp130
(dp131
g61
(dp132
g88
g89
ssg70
g122
sg63
(lp133
S':'
asbag56
(g77
g58
NtRp134
(dp135
g61
(dp136
sg70
g122
sg63
(lp137
g56
(g57
g58
NtRp138
(dp139
g61
(dp140
g69
I5
ssg70
g134
sg63
(lp141
g56
(g65
g58
NtRp142
(dp143
g61
(dp144
g69
I4
ssg70
Nsg63
(lp145
sbasbasbasbag56
(g72
g58
NtRp146
(dp147
g61
(dp148
sg70
g66
sg63
(lp149
g56
(g77
g58
NtRp150
(dp151
g61
(dp152
g81
g82
ssg70
g146
sg63
(lp153
S'body'
p154
asbag56
(g77
g58
NtRp155
(dp156
g61
(dp157
g88
g89
ssg70
g146
sg63
(lp158
S':'
asbag56
(g77
g58
NtRp159
(dp160
g61
(dp161
sg70
g146
sg63
(lp162
g56
(g57
g58
NtRp163
(dp164
g61
(dp165
g69
I5
ssg70
g159
sg63
(lp166
S"<open file '<fdopen>', mode 'w+b' at 0xb2999d88>"
p167
asbasbasbag56
(g72
g58
NtRp168
(dp169
g61
(dp170
sg70
g66
sg63
(lp171
g56
(g77
g58
NtRp172
(dp173
g61
(dp174
g81
g82
ssg70
g168
sg63
(lp175
S'client'
p176
asbag56
(g77
g58
NtRp177
(dp178
g61
(dp179
g88
g89
ssg70
g168
sg63
(lp180
S':'
asbag56
(g77
g58
NtRp181
(dp182
g61
(dp183
sg70
g168
sg63
(lp184
g56
(g57
g58
NtRp185
(dp186
g61
(dp187
g69
I5
ssg70
g181
sg63
(lp188
S'127.0.0.1'
p189
asbasbasbag56
(g72
g58
NtRp190
(dp191
g61
(dp192
sg70
g66
sg63
(lp193
g56
(g77
g58
NtRp194
(dp195
g61
(dp196
g81
g82
ssg70
g190
sg63
(lp197
S'controller'
p198
asbag56
(g77
g58
NtRp199
(dp200
g61
(dp201
g88
g89
ssg70
g190
sg63
(lp202
S':'
asbag56
(g77
g58
NtRp203
(dp204
g61
(dp205
sg70
g190
sg63
(lp206
g56
(g57
g58
NtRp207
(dp208
g61
(dp209
g69
I5
ssg70
g203
sg63
(lp210
S'default'
p211
asbasbasbag56
(g72
g58
NtRp212
(dp213
g61
(dp214
sg70
g66
sg63
(lp215
g56
(g77
g58
NtRp216
(dp217
g61
(dp218
g81
g82
ssg70
g212
sg63
(lp219
S'cookies'
p220
asbag56
(g77
g58
NtRp221
(dp222
g61
(dp223
g88
g89
ssg70
g212
sg63
(lp224
S':'
asbag56
(g77
g58
NtRp225
(dp226
g61
(dp227
sg70
g212
sg63
(lp228
g56
(g57
g58
NtRp229
(dp230
g61
(dp231
g69
I5
ssg70
g225
sg63
(lp232
g56
(g65
g58
NtRp233
(dp234
g61
(dp235
g69
I4
ssg70
Nsg63
(lp236
g56
(g72
g58
NtRp237
(dp238
g61
(dp239
sg70
g233
sg63
(lp240
g56
(g77
g58
NtRp241
(dp242
g61
(dp243
g81
g82
ssg70
g237
sg63
(lp244
S'session_id_admin'
p245
asbag56
(g77
g58
NtRp246
(dp247
g61
(dp248
g88
g89
ssg70
g237
sg63
(lp249
S':'
asbag56
(g77
g58
NtRp250
(dp251
g61
(dp252
sg70
g237
sg63
(lp253
g56
(g57
g58
NtRp254
(dp255
g61
(dp256
g69
I4
ssg70
g250
sg63
(lp257
g56
(g65
g58
NtRp258
(dp259
g61
(dp260
g69
I3
ssg70
Nsg63
(lp261
g56
(g72
g58
NtRp262
(dp263
g61
(dp264
sg70
g258
sg63
(lp265
g56
(g77
g58
NtRp266
(dp267
g61
(dp268
g81
g82
ssg70
g262
sg63
(lp269
S'comment'
p270
asbag56
(g77
g58
NtRp271
(dp272
g61
(dp273
g88
g89
ssg70
g262
sg63
(lp274
S':'
asbag56
(g77
g58
NtRp275
(dp276
g61
(dp277
sg70
g262
sg63
(lp278
g56
(g57
g58
NtRp279
(dp280
g61
(dp281
g69
I3
ssg70
g275
sg63
(lp282
S''
asbasbasbag56
(g72
g58
NtRp283
(dp284
g61
(dp285
sg70
g258
sg63
(lp286
g56
(g77
g58
NtRp287
(dp288
g61
(dp289
g81
g82
ssg70
g283
sg63
(lp290
S'domain'
p291
asbag56
(g77
g58
NtRp292
(dp293
g61
(dp294
g88
g89
ssg70
g283
sg63
(lp295
S':'
asbag56
(g77
g58
NtRp296
(dp297
g61
(dp298
sg70
g283
sg63
(lp299
g56
(g57
g58
NtRp300
(dp301
g61
(dp302
g69
I3
ssg70
g296
sg63
(lp303
S''
asbasbasbag56
(g72
g58
NtRp304
(dp305
g61
(dp306
sg70
g258
sg63
(lp307
g56
(g77
g58
NtRp308
(dp309
g61
(dp310
g81
g82
ssg70
g304
sg63
(lp311
S'expires'
p312
asbag56
(g77
g58
NtRp313
(dp314
g61
(dp315
g88
g89
ssg70
g304
sg63
(lp316
S':'
asbag56
(g77
g58
NtRp317
(dp318
g61
(dp319
sg70
g304
sg63
(lp320
g56
(g57
g58
NtRp321
(dp322
g61
(dp323
g69
I3
ssg70
g317
sg63
(lp324
S''
asbasbasbag56
(g72
g58
NtRp325
(dp326
g61
(dp327
sg70
g258
sg63
(lp328
g56
(g77
g58
NtRp329
(dp330
g61
(dp331
g81
g82
ssg70
g325
sg63
(lp332
S'httponly'
p333
asbag56
(g77
g58
NtRp334
(dp335
g61
(dp336
g88
g89
ssg70
g325
sg63
(lp337
S':'
asbag56
(g77
g58
NtRp338
(dp339
g61
(dp340
sg70
g325
sg63
(lp341
g56
(g57
g58
NtRp342
(dp343
g61
(dp344
g69
I3
ssg70
g338
sg63
(lp345
S''
asbasbasbag56
(g72
g58
NtRp346
(dp347
g61
(dp348
sg70
g258
sg63
(lp349
g56
(g77
g58
NtRp350
(dp351
g61
(dp352
g81
g82
ssg70
g346
sg63
(lp353
S'max-age'
p354
asbag56
(g77
g58
NtRp355
(dp356
g61
(dp357
g88
g89
ssg70
g346
sg63
(lp358
S':'
asbag56
(g77
g58
NtRp359
(dp360
g61
(dp361
sg70
g346
sg63
(lp362
g56
(g57
g58
NtRp363
(dp364
g61
(dp365
g69
I3
ssg70
g359
sg63
(lp366
S''
asbasbasbag56
(g72
g58
NtRp367
(dp368
g61
(dp369
sg70
g258
sg63
(lp370
g56
(g77
g58
NtRp371
(dp372
g61
(dp373
g81
g82
ssg70
g367
sg63
(lp374
S'path'
p375
asbag56
(g77
g58
NtRp376
(dp377
g61
(dp378
g88
g89
ssg70
g367
sg63
(lp379
S':'
asbag56
(g77
g58
NtRp380
(dp381
g61
(dp382
sg70
g367
sg63
(lp383
g56
(g57
g58
NtRp384
(dp385
g61
(dp386
g69
I3
ssg70
g380
sg63
(lp387
S''
asbasbasbag56
(g72
g58
NtRp388
(dp389
g61
(dp390
sg70
g258
sg63
(lp391
g56
(g77
g58
NtRp392
(dp393
g61
(dp394
g81
g82
ssg70
g388
sg63
(lp395
S'secure'
p396
asbag56
(g77
g58
NtRp397
(dp398
g61
(dp399
g88
g89
ssg70
g388
sg63
(lp400
S':'
asbag56
(g77
g58
NtRp401
(dp402
g61
(dp403
sg70
g388
sg63
(lp404
g56
(g57
g58
NtRp405
(dp406
g61
(dp407
g69
I3
ssg70
g401
sg63
(lp408
S''
asbasbasbag56
(g72
g58
NtRp409
(dp410
g61
(dp411
sg70
g258
sg63
(lp412
g56
(g77
g58
NtRp413
(dp414
g61
(dp415
g81
g82
ssg70
g409
sg63
(lp416
S'version'
p417
asbag56
(g77
g58
NtRp418
(dp419
g61
(dp420
g88
g89
ssg70
g409
sg63
(lp421
S':'
asbag56
(g77
g58
NtRp422
(dp423
g61
(dp424
sg70
g409
sg63
(lp425
g56
(g57
g58
NtRp426
(dp427
g61
(dp428
g69
I3
ssg70
g422
sg63
(lp429
S''
asbasbasbasbasbasbasbag56
(g72
g58
NtRp430
(dp431
g61
(dp432
sg70
g233
sg63
(lp433
g56
(g77
g58
NtRp434
(dp435
g61
(dp436
g81
g82
ssg70
g430
sg63
(lp437
S'session_id_blogpost'
p438
asbag56
(g77
g58
NtRp439
(dp440
g61
(dp441
g88
g89
ssg70
g430
sg63
(lp442
S':'
asbag56
(g77
g58
NtRp443
(dp444
g61
(dp445
sg70
g430
sg63
(lp446
g56
(g57
g58
NtRp447
(dp448
g61
(dp449
g69
I4
ssg70
g443
sg63
(lp450
g56
(g65
g58
NtRp451
(dp452
g61
(dp453
g69
I3
ssg70
Nsg63
(lp454
g56
(g72
g58
NtRp455
(dp456
g61
(dp457
sg70
g451
sg63
(lp458
g56
(g77
g58
NtRp459
(dp460
g61
(dp461
g81
g82
ssg70
g455
sg63
(lp462
g270
asbag56
(g77
g58
NtRp463
(dp464
g61
(dp465
g88
g89
ssg70
g455
sg63
(lp466
S':'
asbag56
(g77
g58
NtRp467
(dp468
g61
(dp469
sg70
g455
sg63
(lp470
g56
(g57
g58
NtRp471
(dp472
g61
(dp473
g69
I3
ssg70
g467
sg63
(lp474
S''
asbasbasbag56
(g72
g58
NtRp475
(dp476
g61
(dp477
sg70
g451
sg63
(lp478
g56
(g77
g58
NtRp479
(dp480
g61
(dp481
g81
g82
ssg70
g475
sg63
(lp482
g291
asbag56
(g77
g58
NtRp483
(dp484
g61
(dp485
g88
g89
ssg70
g475
sg63
(lp486
S':'
asbag56
(g77
g58
NtRp487
(dp488
g61
(dp489
sg70
g475
sg63
(lp490
g56
(g57
g58
NtRp491
(dp492
g61
(dp493
g69
I3
ssg70
g487
sg63
(lp494
S''
asbasbasbag56
(g72
g58
NtRp495
(dp496
g61
(dp497
sg70
g451
sg63
(lp498
g56
(g77
g58
NtRp499
(dp500
g61
(dp501
g81
g82
ssg70
g495
sg63
(lp502
g312
asbag56
(g77
g58
NtRp503
(dp504
g61
(dp505
g88
g89
ssg70
g495
sg63
(lp506
S':'
asbag56
(g77
g58
NtRp507
(dp508
g61
(dp509
sg70
g495
sg63
(lp510
g56
(g57
g58
NtRp511
(dp512
g61
(dp513
g69
I3
ssg70
g507
sg63
(lp514
S''
asbasbasbag56
(g72
g58
NtRp515
(dp516
g61
(dp517
sg70
g451
sg63
(lp518
g56
(g77
g58
NtRp519
(dp520
g61
(dp521
g81
g82
ssg70
g515
sg63
(lp522
g333
asbag56
(g77
g58
NtRp523
(dp524
g61
(dp525
g88
g89
ssg70
g515
sg63
(lp526
S':'
asbag56
(g77
g58
NtRp527
(dp528
g61
(dp529
sg70
g515
sg63
(lp530
g56
(g57
g58
NtRp531
(dp532
g61
(dp533
g69
I3
ssg70
g527
sg63
(lp534
S''
asbasbasbag56
(g72
g58
NtRp535
(dp536
g61
(dp537
sg70
g451
sg63
(lp538
g56
(g77
g58
NtRp539
(dp540
g61
(dp541
g81
g82
ssg70
g535
sg63
(lp542
g354
asbag56
(g77
g58
NtRp543
(dp544
g61
(dp545
g88
g89
ssg70
g535
sg63
(lp546
S':'
asbag56
(g77
g58
NtRp547
(dp548
g61
(dp549
sg70
g535
sg63
(lp550
g56
(g57
g58
NtRp551
(dp552
g61
(dp553
g69
I3
ssg70
g547
sg63
(lp554
S''
asbasbasbag56
(g72
g58
NtRp555
(dp556
g61
(dp557
sg70
g451
sg63
(lp558
g56
(g77
g58
NtRp559
(dp560
g61
(dp561
g81
g82
ssg70
g555
sg63
(lp562
g375
asbag56
(g77
g58
NtRp563
(dp564
g61
(dp565
g88
g89
ssg70
g555
sg63
(lp566
S':'
asbag56
(g77
g58
NtRp567
(dp568
g61
(dp569
sg70
g555
sg63
(lp570
g56
(g57
g58
NtRp571
(dp572
g61
(dp573
g69
I3
ssg70
g567
sg63
(lp574
S''
asbasbasbag56
(g72
g58
NtRp575
(dp576
g61
(dp577
sg70
g451
sg63
(lp578
g56
(g77
g58
NtRp579
(dp580
g61
(dp581
g81
g82
ssg70
g575
sg63
(lp582
g396
asbag56
(g77
g58
NtRp583
(dp584
g61
(dp585
g88
g89
ssg70
g575
sg63
(lp586
S':'
asbag56
(g77
g58
NtRp587
(dp588
g61
(dp589
sg70
g575
sg63
(lp590
g56
(g57
g58
NtRp591
(dp592
g61
(dp593
g69
I3
ssg70
g587
sg63
(lp594
S''
asbasbasbag56
(g72
g58
NtRp595
(dp596
g61
(dp597
sg70
g451
sg63
(lp598
g56
(g77
g58
NtRp599
(dp600
g61
(dp601
g81
g82
ssg70
g595
sg63
(lp602
g417
asbag56
(g77
g58
NtRp603
(dp604
g61
(dp605
g88
g89
ssg70
g595
sg63
(lp606
S':'
asbag56
(g77
g58
NtRp607
(dp608
g61
(dp609
sg70
g595
sg63
(lp610
g56
(g57
g58
NtRp611
(dp612
g61
(dp613
g69
I3
ssg70
g607
sg63
(lp614
S''
asbasbasbasbasbasbasbag56
(g72
g58
NtRp615
(dp616
g61
(dp617
sg70
g233
sg63
(lp618
g56
(g77
g58
NtRp619
(dp620
g61
(dp621
g81
g82
ssg70
g615
sg63
(lp622
S'session_id_welcome'
p623
asbag56
(g77
g58
NtRp624
(dp625
g61
(dp626
g88
g89
ssg70
g615
sg63
(lp627
S':'
asbag56
(g77
g58
NtRp628
(dp629
g61
(dp630
sg70
g615
sg63
(lp631
g56
(g57
g58
NtRp632
(dp633
g61
(dp634
g69
I4
ssg70
g628
sg63
(lp635
g56
(g65
g58
NtRp636
(dp637
g61
(dp638
g69
I3
ssg70
Nsg63
(lp639
g56
(g72
g58
NtRp640
(dp641
g61
(dp642
sg70
g636
sg63
(lp643
g56
(g77
g58
NtRp644
(dp645
g61
(dp646
g81
g82
ssg70
g640
sg63
(lp647
g270
asbag56
(g77
g58
NtRp648
(dp649
g61
(dp650
g88
g89
ssg70
g640
sg63
(lp651
S':'
asbag56
(g77
g58
NtRp652
(dp653
g61
(dp654
sg70
g640
sg63
(lp655
g56
(g57
g58
NtRp656
(dp657
g61
(dp658
g69
I3
ssg70
g652
sg63
(lp659
S''
asbasbasbag56
(g72
g58
NtRp660
(dp661
g61
(dp662
sg70
g636
sg63
(lp663
g56
(g77
g58
NtRp664
(dp665
g61
(dp666
g81
g82
ssg70
g660
sg63
(lp667
g291
asbag56
(g77
g58
NtRp668
(dp669
g61
(dp670
g88
g89
ssg70
g660
sg63
(lp671
S':'
asbag56
(g77
g58
NtRp672
(dp673
g61
(dp674
sg70
g660
sg63
(lp675
g56
(g57
g58
NtRp676
(dp677
g61
(dp678
g69
I3
ssg70
g672
sg63
(lp679
S''
asbasbasbag56
(g72
g58
NtRp680
(dp681
g61
(dp682
sg70
g636
sg63
(lp683
g56
(g77
g58
NtRp684
(dp685
g61
(dp686
g81
g82
ssg70
g680
sg63
(lp687
g312
asbag56
(g77
g58
NtRp688
(dp689
g61
(dp690
g88
g89
ssg70
g680
sg63
(lp691
S':'
asbag56
(g77
g58
NtRp692
(dp693
g61
(dp694
sg70
g680
sg63
(lp695
g56
(g57
g58
NtRp696
(dp697
g61
(dp698
g69
I3
ssg70
g692
sg63
(lp699
S''
asbasbasbag56
(g72
g58
NtRp700
(dp701
g61
(dp702
sg70
g636
sg63
(lp703
g56
(g77
g58
NtRp704
(dp705
g61
(dp706
g81
g82
ssg70
g700
sg63
(lp707
g333
asbag56
(g77
g58
NtRp708
(dp709
g61
(dp710
g88
g89
ssg70
g700
sg63
(lp711
S':'
asbag56
(g77
g58
NtRp712
(dp713
g61
(dp714
sg70
g700
sg63
(lp715
g56
(g57
g58
NtRp716
(dp717
g61
(dp718
g69
I3
ssg70
g712
sg63
(lp719
S''
asbasbasbag56
(g72
g58
NtRp720
(dp721
g61
(dp722
sg70
g636
sg63
(lp723
g56
(g77
g58
NtRp724
(dp725
g61
(dp726
g81
g82
ssg70
g720
sg63
(lp727
g354
asbag56
(g77
g58
NtRp728
(dp729
g61
(dp730
g88
g89
ssg70
g720
sg63
(lp731
S':'
asbag56
(g77
g58
NtRp732
(dp733
g61
(dp734
sg70
g720
sg63
(lp735
g56
(g57
g58
NtRp736
(dp737
g61
(dp738
g69
I3
ssg70
g732
sg63
(lp739
S''
asbasbasbag56
(g72
g58
NtRp740
(dp741
g61
(dp742
sg70
g636
sg63
(lp743
g56
(g77
g58
NtRp744
(dp745
g61
(dp746
g81
g82
ssg70
g740
sg63
(lp747
g375
asbag56
(g77
g58
NtRp748
(dp749
g61
(dp750
g88
g89
ssg70
g740
sg63
(lp751
S':'
asbag56
(g77
g58
NtRp752
(dp753
g61
(dp754
sg70
g740
sg63
(lp755
g56
(g57
g58
NtRp756
(dp757
g61
(dp758
g69
I3
ssg70
g752
sg63
(lp759
S''
asbasbasbag56
(g72
g58
NtRp760
(dp761
g61
(dp762
sg70
g636
sg63
(lp763
g56
(g77
g58
NtRp764
(dp765
g61
(dp766
g81
g82
ssg70
g760
sg63
(lp767
g396
asbag56
(g77
g58
NtRp768
(dp769
g61
(dp770
g88
g89
ssg70
g760
sg63
(lp771
S':'
asbag56
(g77
g58
NtRp772
(dp773
g61
(dp774
sg70
g760
sg63
(lp775
g56
(g57
g58
NtRp776
(dp777
g61
(dp778
g69
I3
ssg70
g772
sg63
(lp779
S''
asbasbasbag56
(g72
g58
NtRp780
(dp781
g61
(dp782
sg70
g636
sg63
(lp783
g56
(g77
g58
NtRp784
(dp785
g61
(dp786
g81
g82
ssg70
g780
sg63
(lp787
g417
asbag56
(g77
g58
NtRp788
(dp789
g61
(dp790
g88
g89
ssg70
g780
sg63
(lp791
S':'
asbag56
(g77
g58
NtRp792
(dp793
g61
(dp794
sg70
g780
sg63
(lp795
g56
(g57
g58
NtRp796
(dp797
g61
(dp798
g69
I3
ssg70
g792
sg63
(lp799
S''
asbasbasbasbasbasbasbasbasbasbasbag56
(g72
g58
NtRp800
(dp801
g61
(dp802
sg70
g66
sg63
(lp803
g56
(g77
g58
NtRp804
(dp805
g61
(dp806
g81
g82
ssg70
g800
sg63
(lp807
S'env'
p808
asbag56
(g77
g58
NtRp809
(dp810
g61
(dp811
g88
g89
ssg70
g800
sg63
(lp812
S':'
asbag56
(g77
g58
NtRp813
(dp814
g61
(dp815
sg70
g800
sg63
(lp816
g56
(g57
g58
NtRp817
(dp818
g61
(dp819
g69
I5
ssg70
g813
sg63
(lp820
g56
(g65
g58
NtRp821
(dp822
g61
(dp823
g69
I4
ssg70
Nsg63
(lp824
g56
(g72
g58
NtRp825
(dp826
g61
(dp827
sg70
g821
sg63
(lp828
g56
(g77
g58
NtRp829
(dp830
g61
(dp831
g81
g82
ssg70
g825
sg63
(lp832
S'app_folders'
p833
asbag56
(g77
g58
NtRp834
(dp835
g61
(dp836
g88
g89
ssg70
g825
sg63
(lp837
S':'
asbag56
(g77
g58
NtRp838
(dp839
g61
(dp840
sg70
g825
sg63
(lp841
g56
(g57
g58
NtRp842
(dp843
g61
(dp844
g69
I4
ssg70
g838
sg63
(lp845
S"set(['/home/mukul/web2py/applications/admin/', '/home/mukul/web2py/applications/blogpost/', '/home/mukul/web2py/applications/welcome/'])"
p846
asbasbasbag56
(g72
g58
NtRp847
(dp848
g61
(dp849
sg70
g821
sg63
(lp850
g56
(g77
g58
NtRp851
(dp852
g61
(dp853
g81
g82
ssg70
g847
sg63
(lp854
S'applications_parent'
p855
asbag56
(g77
g58
NtRp856
(dp857
g61
(dp858
g88
g89
ssg70
g847
sg63
(lp859
S':'
asbag56
(g77
g58
NtRp860
(dp861
g61
(dp862
sg70
g847
sg63
(lp863
g56
(g57
g58
NtRp864
(dp865
g61
(dp866
g69
I4
ssg70
g860
sg63
(lp867
S'/home/mukul/web2py'
p868
asbasbasbag56
(g72
g58
NtRp869
(dp870
g61
(dp871
sg70
g821
sg63
(lp872
g56
(g77
g58
NtRp873
(dp874
g61
(dp875
g81
g82
ssg70
g869
sg63
(lp876
S'cmd_args'
p877
asbag56
(g77
g58
NtRp878
(dp879
g61
(dp880
g88
g89
ssg70
g869
sg63
(lp881
S':'
asbag56
(g77
g58
NtRp882
(dp883
g61
(dp884
sg70
g869
sg63
(lp885
g56
(g57
g58
NtRp886
(dp887
g61
(dp888
g69
I4
ssg70
g882
sg63
(lp889
g56
(g65
g58
NtRp890
(dp891
g61
(dp892
g69
I3
ssg70
Nsg63
(lp893
sbasbasbasbag56
(g72
g58
NtRp894
(dp895
g61
(dp896
sg70
g821
sg63
(lp897
g56
(g77
g58
NtRp898
(dp899
g61
(dp900
g81
g82
ssg70
g894
sg63
(lp901
S'cmd_options'
p902
asbag56
(g77
g58
NtRp903
(dp904
g61
(dp905
g88
g89
ssg70
g894
sg63
(lp906
S':'
asbag56
(g77
g58
NtRp907
(dp908
g61
(dp909
sg70
g894
sg63
(lp910
g56
(g57
g58
NtRp911
(dp912
g61
(dp913
g69
I4
ssg70
g907
sg63
(lp914
S"<Values at 0xa3b678c: {'verbose': False, 'ip': '127.0.0.1', 'shutdown_timeout': 5, 'taskbar': False, 'port': 8000, 'maxthreads': None, 'softcron': False, 'server_name': 'mukul-INVALID', 'bpython': False, 'nogui': False, 'nocron': False, 'extcron': False, 'debuglevel': 30, 'test': None, 'folder': '/home/mukul/web2py', 'config': '', 'import_models': False, 'winservice': '', 'shell': None, 'run': '', 'log_filename': 'httpserver.log', 'args': [''], 'socket_timeout': 1, 'profiler_filename': None, 'ssl_private_key': '', 'password': '<ask>', 'request_queue_size': 5, 'ssl_certificate': '', 'cronjob': False, 'plain': False, 'quiet': False, 'interfaces': None, 'minthreads': None, 'timeout': 10, 'numthreads': None, 'nobanner': False, 'pid_filename': 'httpserver.pid'}>"
p915
asbasbasbag56
(g72
g58
NtRp916
(dp917
g61
(dp918
sg70
g821
sg63
(lp919
g56
(g77
g58
NtRp920
(dp921
g61
(dp922
g81
g82
ssg70
g916
sg63
(lp923
S'content_length'
p924
asbag56
(g77
g58
NtRp925
(dp926
g61
(dp927
g88
g89
ssg70
g916
sg63
(lp928
S':'
asbag56
(g77
g58
NtRp929
(dp930
g61
(dp931
sg70
g916
sg63
(lp932
g56
(g57
g58
NtRp933
(dp934
g61
(dp935
g69
I4
ssg70
g929
sg63
(lp936
S'53'
p937
asbasbasbag56
(g72
g58
NtRp938
(dp939
g61
(dp940
sg70
g821
sg63
(lp941
g56
(g77
g58
NtRp942
(dp943
g61
(dp944
g81
g82
ssg70
g938
sg63
(lp945
S'content_type'
p946
asbag56
(g77
g58
NtRp947
(dp948
g61
(dp949
g88
g89
ssg70
g938
sg63
(lp950
S':'
asbag56
(g77
g58
NtRp951
(dp952
g61
(dp953
sg70
g938
sg63
(lp954
g56
(g57
g58
NtRp955
(dp956
g61
(dp957
g69
I4
ssg70
g951
sg63
(lp958
S'application/x-www-form-urlencoded'
p959
asbasbasbag56
(g72
g58
NtRp960
(dp961
g61
(dp962
sg70
g821
sg63
(lp963
g56
(g77
g58
NtRp964
(dp965
g61
(dp966
g81
g82
ssg70
g960
sg63
(lp967
S'db_sessions'
p968
asbag56
(g77
g58
NtRp969
(dp970
g61
(dp971
g88
g89
ssg70
g960
sg63
(lp972
S':'
asbag56
(g77
g58
NtRp973
(dp974
g61
(dp975
sg70
g960
sg63
(lp976
g56
(g57
g58
NtRp977
(dp978
g61
(dp979
g69
I4
ssg70
g973
sg63
(lp980
S'set([])'
p981
asbasbasbag56
(g72
g58
NtRp982
(dp983
g61
(dp984
sg70
g821
sg63
(lp985
g56
(g77
g58
NtRp986
(dp987
g61
(dp988
g81
g82
ssg70
g982
sg63
(lp989
S'debugging'
p990
asbag56
(g77
g58
NtRp991
(dp992
g61
(dp993
g88
g89
ssg70
g982
sg63
(lp994
S':'
asbag56
(g77
g58
NtRp995
(dp996
g61
(dp997
sg70
g982
sg63
(lp998
g56
(g57
g58
NtRp999
(dp1000
g61
(dp1001
g69
I4
ssg70
g995
sg63
(lp1002
g99
asbasbasbag56
(g72
g58
NtRp1003
(dp1004
g61
(dp1005
sg70
g821
sg63
(lp1006
g56
(g77
g58
NtRp1007
(dp1008
g61
(dp1009
g81
g82
ssg70
g1003
sg63
(lp1010
S'gluon_parent'
p1011
asbag56
(g77
g58
NtRp1012
(dp1013
g61
(dp1014
g88
g89
ssg70
g1003
sg63
(lp1015
S':'
asbag56
(g77
g58
NtRp1016
(dp1017
g61
(dp1018
sg70
g1003
sg63
(lp1019
g56
(g57
g58
NtRp1020
(dp1021
g61
(dp1022
g69
I4
ssg70
g1016
sg63
(lp1023
S'/usr/share/web2py'
p1024
asbasbasbag56
(g72
g58
NtRp1025
(dp1026
g61
(dp1027
sg70
g821
sg63
(lp1028
g56
(g77
g58
NtRp1029
(dp1030
g61
(dp1031
g81
g82
ssg70
g1025
sg63
(lp1032
S'http_accept'
p1033
asbag56
(g77
g58
NtRp1034
(dp1035
g61
(dp1036
g88
g89
ssg70
g1025
sg63
(lp1037
S':'
asbag56
(g77
g58
NtRp1038
(dp1039
g61
(dp1040
sg70
g1025
sg63
(lp1041
g56
(g57
g58
NtRp1042
(dp1043
g61
(dp1044
g69
I4
ssg70
g1038
sg63
(lp1045
S'text/html,application/xhtml+xml,application/xml;q=0.9,image/webp,*/*;q=0.8'
p1046
asbasbasbag56
(g72
g58
NtRp1047
(dp1048
g61
(dp1049
sg70
g821
sg63
(lp1050
g56
(g77
g58
NtRp1051
(dp1052
g61
(dp1053
g81
g82
ssg70
g1047
sg63
(lp1054
S'http_accept_encoding'
p1055
asbag56
(g77
g58
NtRp1056
(dp1057
g61
(dp1058
g88
g89
ssg70
g1047
sg63
(lp1059
S':'
asbag56
(g77
g58
NtRp1060
(dp1061
g61
(dp1062
sg70
g1047
sg63
(lp1063
g56
(g57
g58
NtRp1064
(dp1065
g61
(dp1066
g69
I4
ssg70
g1060
sg63
(lp1067
S'gzip, deflate'
p1068
asbasbasbag56
(g72
g58
NtRp1069
(dp1070
g61
(dp1071
sg70
g821
sg63
(lp1072
g56
(g77
g58
NtRp1073
(dp1074
g61
(dp1075
g81
g82
ssg70
g1069
sg63
(lp1076
S'http_accept_language'
p1077
asbag56
(g77
g58
NtRp1078
(dp1079
g61
(dp1080
g88
g89
ssg70
g1069
sg63
(lp1081
S':'
asbag56
(g77
g58
NtRp1082
(dp1083
g61
(dp1084
sg70
g1069
sg63
(lp1085
g56
(g57
g58
NtRp1086
(dp1087
g61
(dp1088
g69
I4
ssg70
g1082
sg63
(lp1089
S'en-US,en;q=0.8'
p1090
asbasbasbag56
(g72
g58
NtRp1091
(dp1092
g61
(dp1093
sg70
g821
sg63
(lp1094
g56
(g77
g58
NtRp1095
(dp1096
g61
(dp1097
g81
g82
ssg70
g1091
sg63
(lp1098
S'http_cache_control'
p1099
asbag56
(g77
g58
NtRp1100
(dp1101
g61
(dp1102
g88
g89
ssg70
g1091
sg63
(lp1103
S':'
asbag56
(g77
g58
NtRp1104
(dp1105
g61
(dp1106
sg70
g1091
sg63
(lp1107
g56
(g57
g58
NtRp1108
(dp1109
g61
(dp1110
g69
I4
ssg70
g1104
sg63
(lp1111
S'max-age=0'
p1112
asbasbasbag56
(g72
g58
NtRp1113
(dp1114
g61
(dp1115
sg70
g821
sg63
(lp1116
g56
(g77
g58
NtRp1117
(dp1118
g61
(dp1119
g81
g82
ssg70
g1113
sg63
(lp1120
S'http_connection'
p1121
asbag56
(g77
g58
NtRp1122
(dp1123
g61
(dp1124
g88
g89
ssg70
g1113
sg63
(lp1125
S':'
asbag56
(g77
g58
NtRp1126
(dp1127
g61
(dp1128
sg70
g1113
sg63
(lp1129
g56
(g57
g58
NtRp1130
(dp1131
g61
(dp1132
g69
I4
ssg70
g1126
sg63
(lp1133
S'keep-alive'
p1134
asbasbasbag56
(g72
g58
NtRp1135
(dp1136
g61
(dp1137
sg70
g821
sg63
(lp1138
g56
(g77
g58
NtRp1139
(dp1140
g61
(dp1141
g81
g82
ssg70
g1135
sg63
(lp1142
S'http_content_length'
p1143
asbag56
(g77
g58
NtRp1144
(dp1145
g61
(dp1146
g88
g89
ssg70
g1135
sg63
(lp1147
S':'
asbag56
(g77
g58
NtRp1148
(dp1149
g61
(dp1150
sg70
g1135
sg63
(lp1151
g56
(g57
g58
NtRp1152
(dp1153
g61
(dp1154
g69
I4
ssg70
g1148
sg63
(lp1155
g937
asbasbasbag56
(g72
g58
NtRp1156
(dp1157
g61
(dp1158
sg70
g821
sg63
(lp1159
g56
(g77
g58
NtRp1160
(dp1161
g61
(dp1162
g81
g82
ssg70
g1156
sg63
(lp1163
S'http_content_type'
p1164
asbag56
(g77
g58
NtRp1165
(dp1166
g61
(dp1167
g88
g89
ssg70
g1156
sg63
(lp1168
S':'
asbag56
(g77
g58
NtRp1169
(dp1170
g61
(dp1171
sg70
g1156
sg63
(lp1172
g56
(g57
g58
NtRp1173
(dp1174
g61
(dp1175
g69
I4
ssg70
g1169
sg63
(lp1176
g959
asbasbasbag56
(g72
g58
NtRp1177
(dp1178
g61
(dp1179
sg70
g821
sg63
(lp1180
g56
(g77
g58
NtRp1181
(dp1182
g61
(dp1183
g81
g82
ssg70
g1177
sg63
(lp1184
S'http_cookie'
p1185
asbag56
(g77
g58
NtRp1186
(dp1187
g61
(dp1188
g88
g89
ssg70
g1177
sg63
(lp1189
S':'
asbag56
(g77
g58
NtRp1190
(dp1191
g61
(dp1192
sg70
g1177
sg63
(lp1193
g56
(g57
g58
NtRp1194
(dp1195
g61
(dp1196
g69
I4
ssg70
g1190
sg63
(lp1197
S'_ga=GA1.1.1697046843.1457627657; session_id_welcome=127.0.0.1-676725f2-2e5a-49d5-aec2-76b767f355a8; session_id_blogpost=127.0.0.1-bcd64a48-cdf0-42c4-b6ce-38fdcd520e45; session_id_admin=127.0.0.1-e0a50ab9-35ba-48b7-b46b-eaa7cdf00edd'
p1198
asbasbasbag56
(g72
g58
NtRp1199
(dp1200
g61
(dp1201
sg70
g821
sg63
(lp1202
g56
(g77
g58
NtRp1203
(dp1204
g61
(dp1205
g81
g82
ssg70
g1199
sg63
(lp1206
S'http_host'
p1207
asbag56
(g77
g58
NtRp1208
(dp1209
g61
(dp1210
g88
g89
ssg70
g1199
sg63
(lp1211
S':'
asbag56
(g77
g58
NtRp1212
(dp1213
g61
(dp1214
sg70
g1199
sg63
(lp1215
g56
(g57
g58
NtRp1216
(dp1217
g61
(dp1218
g69
I4
ssg70
g1212
sg63
(lp1219
S'127.0.0.1:8000'
p1220
asbasbasbag56
(g72
g58
NtRp1221
(dp1222
g61
(dp1223
sg70
g821
sg63
(lp1224
g56
(g77
g58
NtRp1225
(dp1226
g61
(dp1227
g81
g82
ssg70
g1221
sg63
(lp1228
S'http_origin'
p1229
asbag56
(g77
g58
NtRp1230
(dp1231
g61
(dp1232
g88
g89
ssg70
g1221
sg63
(lp1233
S':'
asbag56
(g77
g58
NtRp1234
(dp1235
g61
(dp1236
sg70
g1221
sg63
(lp1237
g56
(g57
g58
NtRp1238
(dp1239
g61
(dp1240
g69
I4
ssg70
g1234
sg63
(lp1241
S'http://127.0.0.1:8000'
p1242
asbasbasbag56
(g72
g58
NtRp1243
(dp1244
g61
(dp1245
sg70
g821
sg63
(lp1246
g56
(g77
g58
NtRp1247
(dp1248
g61
(dp1249
g81
g82
ssg70
g1243
sg63
(lp1250
S'http_referer'
p1251
asbag56
(g77
g58
NtRp1252
(dp1253
g61
(dp1254
g88
g89
ssg70
g1243
sg63
(lp1255
S':'
asbag56
(g77
g58
NtRp1256
(dp1257
g61
(dp1258
sg70
g1243
sg63
(lp1259
g56
(g57
g58
NtRp1260
(dp1261
g61
(dp1262
g69
I4
ssg70
g1256
sg63
(lp1263
S'http://127.0.0.1:8000/blogpost/default/show'
p1264
asbasbasbag56
(g72
g58
NtRp1265
(dp1266
g61
(dp1267
sg70
g821
sg63
(lp1268
g56
(g77
g58
NtRp1269
(dp1270
g61
(dp1271
g81
g82
ssg70
g1265
sg63
(lp1272
S'http_upgrade_insecure_requests'
p1273
asbag56
(g77
g58
NtRp1274
(dp1275
g61
(dp1276
g88
g89
ssg70
g1265
sg63
(lp1277
S':'
asbag56
(g77
g58
NtRp1278
(dp1279
g61
(dp1280
sg70
g1265
sg63
(lp1281
g56
(g57
g58
NtRp1282
(dp1283
g61
(dp1284
g69
I4
ssg70
g1278
sg63
(lp1285
S'1'
asbasbasbag56
(g72
g58
NtRp1286
(dp1287
g61
(dp1288
sg70
g821
sg63
(lp1289
g56
(g77
g58
NtRp1290
(dp1291
g61
(dp1292
g81
g82
ssg70
g1286
sg63
(lp1293
S'http_user_agent'
p1294
asbag56
(g77
g58
NtRp1295
(dp1296
g61
(dp1297
g88
g89
ssg70
g1286
sg63
(lp1298
S':'
asbag56
(g77
g58
NtRp1299
(dp1300
g61
(dp1301
sg70
g1286
sg63
(lp1302
g56
(g57
g58
NtRp1303
(dp1304
g61
(dp1305
g69
I4
ssg70
g1299
sg63
(lp1306
S'Mozilla/5.0 (X11; Linux i686) AppleWebKit/537.36 (KHTML, like Gecko) Chrome/48.0.2564.116 Safari/537.36'
p1307
asbasbasbag56
(g72
g58
NtRp1308
(dp1309
g61
(dp1310
sg70
g821
sg63
(lp1311
g56
(g77
g58
NtRp1312
(dp1313
g61
(dp1314
g81
g82
ssg70
g1308
sg63
(lp1315
S'is_jython'
p1316
asbag56
(g77
g58
NtRp1317
(dp1318
g61
(dp1319
g88
g89
ssg70
g1308
sg63
(lp1320
S':'
asbag56
(g77
g58
NtRp1321
(dp1322
g61
(dp1323
sg70
g1308
sg63
(lp1324
g56
(g57
g58
NtRp1325
(dp1326
g61
(dp1327
g69
I4
ssg70
g1321
sg63
(lp1328
g99
asbasbasbag56
(g72
g58
NtRp1329
(dp1330
g61
(dp1331
sg70
g821
sg63
(lp1332
g56
(g77
g58
NtRp1333
(dp1334
g61
(dp1335
g81
g82
ssg70
g1329
sg63
(lp1336
S'is_pypy'
p1337
asbag56
(g77
g58
NtRp1338
(dp1339
g61
(dp1340
g88
g89
ssg70
g1329
sg63
(lp1341
S':'
asbag56
(g77
g58
NtRp1342
(dp1343
g61
(dp1344
sg70
g1329
sg63
(lp1345
g56
(g57
g58
NtRp1346
(dp1347
g61
(dp1348
g69
I4
ssg70
g1342
sg63
(lp1349
g99
asbasbasbag56
(g72
g58
NtRp1350
(dp1351
g61
(dp1352
sg70
g821
sg63
(lp1353
g56
(g77
g58
NtRp1354
(dp1355
g61
(dp1356
g81
g82
ssg70
g1350
sg63
(lp1357
S'path_info'
p1358
asbag56
(g77
g58
NtRp1359
(dp1360
g61
(dp1361
g88
g89
ssg70
g1350
sg63
(lp1362
S':'
asbag56
(g77
g58
NtRp1363
(dp1364
g61
(dp1365
sg70
g1350
sg63
(lp1366
g56
(g57
g58
NtRp1367
(dp1368
g61
(dp1369
g69
I4
ssg70
g1363
sg63
(lp1370
S'/blogpost/default/show'
p1371
asbasbasbag56
(g72
g58
NtRp1372
(dp1373
g61
(dp1374
sg70
g821
sg63
(lp1375
g56
(g77
g58
NtRp1376
(dp1377
g61
(dp1378
g81
g82
ssg70
g1372
sg63
(lp1379
S'query_string'
p1380
asbag56
(g77
g58
NtRp1381
(dp1382
g61
(dp1383
g88
g89
ssg70
g1372
sg63
(lp1384
S':'
asbag56
(g77
g58
NtRp1385
(dp1386
g61
(dp1387
sg70
g1372
sg63
(lp1388
g56
(g57
g58
NtRp1389
(dp1390
g61
(dp1391
g69
I4
ssg70
g1385
sg63
(lp1392
S''
asbasbasbag56
(g72
g58
NtRp1393
(dp1394
g61
(dp1395
sg70
g821
sg63
(lp1396
g56
(g77
g58
NtRp1397
(dp1398
g61
(dp1399
g81
g82
ssg70
g1393
sg63
(lp1400
S'remote_addr'
p1401
asbag56
(g77
g58
NtRp1402
(dp1403
g61
(dp1404
g88
g89
ssg70
g1393
sg63
(lp1405
S':'
asbag56
(g77
g58
NtRp1406
(dp1407
g61
(dp1408
sg70
g1393
sg63
(lp1409
g56
(g57
g58
NtRp1410
(dp1411
g61
(dp1412
g69
I4
ssg70
g1406
sg63
(lp1413
g189
asbasbasbag56
(g72
g58
NtRp1414
(dp1415
g61
(dp1416
sg70
g821
sg63
(lp1417
g56
(g77
g58
NtRp1418
(dp1419
g61
(dp1420
g81
g82
ssg70
g1414
sg63
(lp1421
S'remote_port'
p1422
asbag56
(g77
g58
NtRp1423
(dp1424
g61
(dp1425
g88
g89
ssg70
g1414
sg63
(lp1426
S':'
asbag56
(g77
g58
NtRp1427
(dp1428
g61
(dp1429
sg70
g1414
sg63
(lp1430
g56
(g57
g58
NtRp1431
(dp1432
g61
(dp1433
g69
I4
ssg70
g1427
sg63
(lp1434
S'46391'
p1435
asbasbasbag56
(g72
g58
NtRp1436
(dp1437
g61
(dp1438
sg70
g821
sg63
(lp1439
g56
(g77
g58
NtRp1440
(dp1441
g61
(dp1442
g81
g82
ssg70
g1436
sg63
(lp1443
S'request_method'
p1444
asbag56
(g77
g58
NtRp1445
(dp1446
g61
(dp1447
g88
g89
ssg70
g1436
sg63
(lp1448
S':'
asbag56
(g77
g58
NtRp1449
(dp1450
g61
(dp1451
sg70
g1436
sg63
(lp1452
g56
(g57
g58
NtRp1453
(dp1454
g61
(dp1455
g69
I4
ssg70
g1449
sg63
(lp1456
S'POST'
p1457
asbasbasbag56
(g72
g58
NtRp1458
(dp1459
g61
(dp1460
sg70
g821
sg63
(lp1461
g56
(g77
g58
NtRp1462
(dp1463
g61
(dp1464
g81
g82
ssg70
g1458
sg63
(lp1465
S'script_name'
p1466
asbag56
(g77
g58
NtRp1467
(dp1468
g61
(dp1469
g88
g89
ssg70
g1458
sg63
(lp1470
S':'
asbag56
(g77
g58
NtRp1471
(dp1472
g61
(dp1473
sg70
g1458
sg63
(lp1474
g56
(g57
g58
NtRp1475
(dp1476
g61
(dp1477
g69
I4
ssg70
g1471
sg63
(lp1478
S''
asbasbasbag56
(g72
g58
NtRp1479
(dp1480
g61
(dp1481
sg70
g821
sg63
(lp1482
g56
(g77
g58
NtRp1483
(dp1484
g61
(dp1485
g81
g82
ssg70
g1479
sg63
(lp1486
S'server_name'
p1487
asbag56
(g77
g58
NtRp1488
(dp1489
g61
(dp1490
g88
g89
ssg70
g1479
sg63
(lp1491
S':'
asbag56
(g77
g58
NtRp1492
(dp1493
g61
(dp1494
sg70
g1479
sg63
(lp1495
g56
(g57
g58
NtRp1496
(dp1497
g61
(dp1498
g69
I4
ssg70
g1492
sg63
(lp1499
S'mukul-INVALID'
p1500
asbasbasbag56
(g72
g58
NtRp1501
(dp1502
g61
(dp1503
sg70
g821
sg63
(lp1504
g56
(g77
g58
NtRp1505
(dp1506
g61
(dp1507
g81
g82
ssg70
g1501
sg63
(lp1508
S'server_port'
p1509
asbag56
(g77
g58
NtRp1510
(dp1511
g61
(dp1512
g88
g89
ssg70
g1501
sg63
(lp1513
S':'
asbag56
(g77
g58
NtRp1514
(dp1515
g61
(dp1516
sg70
g1501
sg63
(lp1517
g56
(g57
g58
NtRp1518
(dp1519
g61
(dp1520
g69
I4
ssg70
g1514
sg63
(lp1521
S'8000'
p1522
asbasbasbag56
(g72
g58
NtRp1523
(dp1524
g61
(dp1525
sg70
g821
sg63
(lp1526
g56
(g77
g58
NtRp1527
(dp1528
g61
(dp1529
g81
g82
ssg70
g1523
sg63
(lp1530
S'server_protocol'
p1531
asbag56
(g77
g58
NtRp1532
(dp1533
g61
(dp1534
g88
g89
ssg70
g1523
sg63
(lp1535
S':'
asbag56
(g77
g58
NtRp1536
(dp1537
g61
(dp1538
sg70
g1523
sg63
(lp1539
g56
(g57
g58
NtRp1540
(dp1541
g61
(dp1542
g69
I4
ssg70
g1536
sg63
(lp1543
S'HTTP/1.1'
p1544
asbasbasbag56
(g72
g58
NtRp1545
(dp1546
g61
(dp1547
sg70
g821
sg63
(lp1548
g56
(g77
g58
NtRp1549
(dp1550
g61
(dp1551
g81
g82
ssg70
g1545
sg63
(lp1552
S'server_software'
p1553
asbag56
(g77
g58
NtRp1554
(dp1555
g61
(dp1556
g88
g89
ssg70
g1545
sg63
(lp1557
S':'
asbag56
(g77
g58
NtRp1558
(dp1559
g61
(dp1560
sg70
g1545
sg63
(lp1561
g56
(g57
g58
NtRp1562
(dp1563
g61
(dp1564
g69
I4
ssg70
g1558
sg63
(lp1565
S'Rocket 1.2.4'
p1566
asbasbasbag56
(g72
g58
NtRp1567
(dp1568
g61
(dp1569
sg70
g821
sg63
(lp1570
g56
(g77
g58
NtRp1571
(dp1572
g61
(dp1573
g81
g82
ssg70
g1567
sg63
(lp1574
S'web2py_crontype'
p1575
asbag56
(g77
g58
NtRp1576
(dp1577
g61
(dp1578
g88
g89
ssg70
g1567
sg63
(lp1579
S':'
asbag56
(g77
g58
NtRp1580
(dp1581
g61
(dp1582
sg70
g1567
sg63
(lp1583
g56
(g57
g58
NtRp1584
(dp1585
g61
(dp1586
g69
I4
ssg70
g1580
sg63
(lp1587
S'hard'
p1588
asbasbasbag56
(g72
g58
NtRp1589
(dp1590
g61
(dp1591
sg70
g821
sg63
(lp1592
g56
(g77
g58
NtRp1593
(dp1594
g61
(dp1595
g81
g82
ssg70
g1589
sg63
(lp1596
S'web2py_path'
p1597
asbag56
(g77
g58
NtRp1598
(dp1599
g61
(dp1600
g88
g89
ssg70
g1589
sg63
(lp1601
S':'
asbag56
(g77
g58
NtRp1602
(dp1603
g61
(dp1604
sg70
g1589
sg63
(lp1605
g56
(g57
g58
NtRp1606
(dp1607
g61
(dp1608
g69
I4
ssg70
g1602
sg63
(lp1609
g868
asbasbasbag56
(g72
g58
NtRp1610
(dp1611
g61
(dp1612
sg70
g821
sg63
(lp1613
g56
(g77
g58
NtRp1614
(dp1615
g61
(dp1616
g81
g82
ssg70
g1610
sg63
(lp1617
S'web2py_version'
p1618
asbag56
(g77
g58
NtRp1619
(dp1620
g61
(dp1621
g88
g89
ssg70
g1610
sg63
(lp1622
S':'
asbag56
(g77
g58
NtRp1623
(dp1624
g61
(dp1625
sg70
g1610
sg63
(lp1626
g56
(g57
g58
NtRp1627
(dp1628
g61
(dp1629
g69
I4
ssg70
g1623
sg63
(lp1630
g56
(g65
g58
NtRp1631
(dp1632
g61
(dp1633
g69
I3
ssg70
Nsg63
(lp1634
g56
(g72
g58
NtRp1635
(dp1636
g61
(dp1637
sg70
g1631
sg63
(lp1638
g56
(g77
g58
NtRp1639
(dp1640
g61
(dp1641
sg70
g1635
sg63
(lp1642
g56
(g57
g58
NtRp1643
(dp1644
g61
(dp1645
g69
I3
ssg70
g1639
sg63
(lp1646
S'1'
asbasbasbag56
(g72
g58
NtRp1647
(dp1648
g61
(dp1649
sg70
g1631
sg63
(lp1650
g56
(g77
g58
NtRp1651
(dp1652
g61
(dp1653
sg70
g1647
sg63
(lp1654
g56
(g57
g58
NtRp1655
(dp1656
g61
(dp1657
g69
I3
ssg70
g1651
sg63
(lp1658
S'99'
p1659
asbasbasbag56
(g72
g58
NtRp1660
(dp1661
g61
(dp1662
sg70
g1631
sg63
(lp1663
g56
(g77
g58
NtRp1664
(dp1665
g61
(dp1666
sg70
g1660
sg63
(lp1667
g56
(g57
g58
NtRp1668
(dp1669
g61
(dp1670
g69
I3
ssg70
g1664
sg63
(lp1671
S'4'
asbasbasbag56
(g72
g58
NtRp1672
(dp1673
g61
(dp1674
sg70
g1631
sg63
(lp1675
g56
(g77
g58
NtRp1676
(dp1677
g61
(dp1678
sg70
g1672
sg63
(lp1679
g56
(g57
g58
NtRp1680
(dp1681
g61
(dp1682
g69
I3
ssg70
g1676
sg63
(lp1683
S'datetime.datetime(2011, 12, 14, 14, 46, 14)'
p1684
asbasbasbag56
(g72
g58
NtRp1685
(dp1686
g61
(dp1687
sg70
g1631
sg63
(lp1688
g56
(g77
g58
NtRp1689
(dp1690
g61
(dp1691
sg70
g1685
sg63
(lp1692
g56
(g57
g58
NtRp1693
(dp1694
g61
(dp1695
g69
I3
ssg70
g1689
sg63
(lp1696
S'stable'
p1697
asbasbasbasbasbasbasbag56
(g72
g58
NtRp1698
(dp1699
g61
(dp1700
sg70
g821
sg63
(lp1701
g56
(g77
g58
NtRp1702
(dp1703
g61
(dp1704
g81
g82
ssg70
g1698
sg63
(lp1705
S'wsgi_errors'
p1706
asbag56
(g77
g58
NtRp1707
(dp1708
g61
(dp1709
g88
g89
ssg70
g1698
sg63
(lp1710
S':'
asbag56
(g77
g58
NtRp1711
(dp1712
g61
(dp1713
sg70
g1698
sg63
(lp1714
g56
(g57
g58
NtRp1715
(dp1716
g61
(dp1717
g69
I4
ssg70
g1711
sg63
(lp1718
S"<open file '<stderr>', mode 'w' at 0xb727d0d0>"
p1719
asbasbasbag56
(g72
g58
NtRp1720
(dp1721
g61
(dp1722
sg70
g821
sg63
(lp1723
g56
(g77
g58
NtRp1724
(dp1725
g61
(dp1726
g81
g82
ssg70
g1720
sg63
(lp1727
S'wsgi_file_wrapper'
p1728
asbag56
(g77
g58
NtRp1729
(dp1730
g61
(dp1731
g88
g89
ssg70
g1720
sg63
(lp1732
S':'
asbag56
(g77
g58
NtRp1733
(dp1734
g61
(dp1735
sg70
g1720
sg63
(lp1736
g56
(g57
g58
NtRp1737
(dp1738
g61
(dp1739
g69
I4
ssg70
g1733
sg63
(lp1740
S'<class wsgiref.util.FileWrapper at 0xa1764dc>'
p1741
asbasbasbag56
(g72
g58
NtRp1742
(dp1743
g61
(dp1744
sg70
g821
sg63
(lp1745
g56
(g77
g58
NtRp1746
(dp1747
g61
(dp1748
g81
g82
ssg70
g1742
sg63
(lp1749
S'wsgi_input'
p1750
asbag56
(g77
g58
NtRp1751
(dp1752
g61
(dp1753
g88
g89
ssg70
g1742
sg63
(lp1754
S':'
asbag56
(g77
g58
NtRp1755
(dp1756
g61
(dp1757
sg70
g1742
sg63
(lp1758
g56
(g57
g58
NtRp1759
(dp1760
g61
(dp1761
g69
I4
ssg70
g1755
sg63
(lp1762
S'<socket._fileobject object at 0xaab404ac>'
p1763
asbasbasbag56
(g72
g58
NtRp1764
(dp1765
g61
(dp1766
sg70
g821
sg63
(lp1767
g56
(g77
g58
NtRp1768
(dp1769
g61
(dp1770
g81
g82
ssg70
g1764
sg63
(lp1771
S'wsgi_multiprocess'
p1772
asbag56
(g77
g58
NtRp1773
(dp1774
g61
(dp1775
g88
g89
ssg70
g1764
sg63
(lp1776
S':'
asbag56
(g77
g58
NtRp1777
(dp1778
g61
(dp1779
sg70
g1764
sg63
(lp1780
g56
(g57
g58
NtRp1781
(dp1782
g61
(dp1783
g69
I4
ssg70
g1777
sg63
(lp1784
g99
asbasbasbag56
(g72
g58
NtRp1785
(dp1786
g61
(dp1787
sg70
g821
sg63
(lp1788
g56
(g77
g58
NtRp1789
(dp1790
g61
(dp1791
g81
g82
ssg70
g1785
sg63
(lp1792
S'wsgi_multithread'
p1793
asbag56
(g77
g58
NtRp1794
(dp1795
g61
(dp1796
g88
g89
ssg70
g1785
sg63
(lp1797
S':'
asbag56
(g77
g58
NtRp1798
(dp1799
g61
(dp1800
sg70
g1785
sg63
(lp1801
g56
(g57
g58
NtRp1802
(dp1803
g61
(dp1804
g69
I4
ssg70
g1798
sg63
(lp1805
S'True'
p1806
asbasbasbag56
(g72
g58
NtRp1807
(dp1808
g61
(dp1809
sg70
g821
sg63
(lp1810
g56
(g77
g58
NtRp1811
(dp1812
g61
(dp1813
g81
g82
ssg70
g1807
sg63
(lp1814
S'wsgi_run_once'
p1815
asbag56
(g77
g58
NtRp1816
(dp1817
g61
(dp1818
g88
g89
ssg70
g1807
sg63
(lp1819
S':'
asbag56
(g77
g58
NtRp1820
(dp1821
g61
(dp1822
sg70
g1807
sg63
(lp1823
g56
(g57
g58
NtRp1824
(dp1825
g61
(dp1826
g69
I4
ssg70
g1820
sg63
(lp1827
g99
asbasbasbag56
(g72
g58
NtRp1828
(dp1829
g61
(dp1830
sg70
g821
sg63
(lp1831
g56
(g77
g58
NtRp1832
(dp1833
g61
(dp1834
g81
g82
ssg70
g1828
sg63
(lp1835
S'wsgi_url_scheme'
p1836
asbag56
(g77
g58
NtRp1837
(dp1838
g61
(dp1839
g88
g89
ssg70
g1828
sg63
(lp1840
S':'
asbag56
(g77
g58
NtRp1841
(dp1842
g61
(dp1843
sg70
g1828
sg63
(lp1844
g56
(g57
g58
NtRp1845
(dp1846
g61
(dp1847
g69
I4
ssg70
g1841
sg63
(lp1848
S'http'
p1849
asbasbasbag56
(g72
g58
NtRp1850
(dp1851
g61
(dp1852
sg70
g821
sg63
(lp1853
g56
(g77
g58
NtRp1854
(dp1855
g61
(dp1856
g81
g82
ssg70
g1850
sg63
(lp1857
S'wsgi_version'
p1858
asbag56
(g77
g58
NtRp1859
(dp1860
g61
(dp1861
g88
g89
ssg70
g1850
sg63
(lp1862
S':'
asbag56
(g77
g58
NtRp1863
(dp1864
g61
(dp1865
sg70
g1850
sg63
(lp1866
g56
(g57
g58
NtRp1867
(dp1868
g61
(dp1869
g69
I4
ssg70
g1863
sg63
(lp1870
g56
(g65
g58
NtRp1871
(dp1872
g61
(dp1873
g69
I3
ssg70
Nsg63
(lp1874
g56
(g72
g58
NtRp1875
(dp1876
g61
(dp1877
sg70
g1871
sg63
(lp1878
g56
(g77
g58
NtRp1879
(dp1880
g61
(dp1881
sg70
g1875
sg63
(lp1882
g56
(g57
g58
NtRp1883
(dp1884
g61
(dp1885
g69
I3
ssg70
g1879
sg63
(lp1886
S'1'
asbasbasbag56
(g72
g58
NtRp1887
(dp1888
g61
(dp1889
sg70
g1871
sg63
(lp1890
g56
(g77
g58
NtRp1891
(dp1892
g61
(dp1893
sg70
g1887
sg63
(lp1894
g56
(g57
g58
NtRp1895
(dp1896
g61
(dp1897
g69
I3
ssg70
g1891
sg63
(lp1898
S'0'
asbasbasbasbasbasbasbasbasbasbasbag56
(g72
g58
NtRp1899
(dp1900
g61
(dp1901
sg70
g66
sg63
(lp1902
g56
(g77
g58
NtRp1903
(dp1904
g61
(dp1905
g81
g82
ssg70
g1899
sg63
(lp1906
S'extension'
p1907
asbag56
(g77
g58
NtRp1908
(dp1909
g61
(dp1910
g88
g89
ssg70
g1899
sg63
(lp1911
S':'
asbag56
(g77
g58
NtRp1912
(dp1913
g61
(dp1914
sg70
g1899
sg63
(lp1915
g56
(g57
g58
NtRp1916
(dp1917
g61
(dp1918
g69
I5
ssg70
g1912
sg63
(lp1919
S'html'
p1920
asbasbasbag56
(g72
g58
NtRp1921
(dp1922
g61
(dp1923
sg70
g66
sg63
(lp1924
g56
(g77
g58
NtRp1925
(dp1926
g61
(dp1927
g81
g82
ssg70
g1921
sg63
(lp1928
S'folder'
p1929
asbag56
(g77
g58
NtRp1930
(dp1931
g61
(dp1932
g88
g89
ssg70
g1921
sg63
(lp1933
S':'
asbag56
(g77
g58
NtRp1934
(dp1935
g61
(dp1936
sg70
g1921
sg63
(lp1937
g56
(g57
g58
NtRp1938
(dp1939
g61
(dp1940
g69
I5
ssg70
g1934
sg63
(lp1941
S'/home/mukul/web2py/applications/blogpost/'
p1942
asbasbasbag56
(g72
g58
NtRp1943
(dp1944
g61
(dp1945
sg70
g66
sg63
(lp1946
g56
(g77
g58
NtRp1947
(dp1948
g61
(dp1949
g81
g82
ssg70
g1943
sg63
(lp1950
S'function'
p1951
asbag56
(g77
g58
NtRp1952
(dp1953
g61
(dp1954
g88
g89
ssg70
g1943
sg63
(lp1955
S':'
asbag56
(g77
g58
NtRp1956
(dp1957
g61
(dp1958
sg70
g1943
sg63
(lp1959
g56
(g57
g58
NtRp1960
(dp1961
g61
(dp1962
g69
I5
ssg70
g1956
sg63
(lp1963
S'show'
p1964
asbasbasbag56
(g72
g58
NtRp1965
(dp1966
g61
(dp1967
sg70
g66
sg63
(lp1968
g56
(g77
g58
NtRp1969
(dp1970
g61
(dp1971
g81
g82
ssg70
g1965
sg63
(lp1972
S'get_vars'
p1973
asbag56
(g77
g58
NtRp1974
(dp1975
g61
(dp1976
g88
g89
ssg70
g1965
sg63
(lp1977
S':'
asbag56
(g77
g58
NtRp1978
(dp1979
g61
(dp1980
sg70
g1965
sg63
(lp1981
g56
(g57
g58
NtRp1982
(dp1983
g61
(dp1984
g69
I5
ssg70
g1978
sg63
(lp1985
g56
(g65
g58
NtRp1986
(dp1987
g61
(dp1988
g69
I4
ssg70
Nsg63
(lp1989
sbasbasbasbag56
(g72
g58
NtRp1990
(dp1991
g61
(dp1992
sg70
g66
sg63
(lp1993
g56
(g77
g58
NtRp1994
(dp1995
g61
(dp1996
g81
g82
ssg70
g1990
sg63
(lp1997
S'global_settings'
p1998
asbag56
(g77
g58
NtRp1999
(dp2000
g61
(dp2001
g88
g89
ssg70
g1990
sg63
(lp2002
S':'
asbag56
(g77
g58
NtRp2003
(dp2004
g61
(dp2005
sg70
g1990
sg63
(lp2006
g56
(g57
g58
NtRp2007
(dp2008
g61
(dp2009
g69
I5
ssg70
g2003
sg63
(lp2010
g56
(g65
g58
NtRp2011
(dp2012
g61
(dp2013
g69
I4
ssg70
Nsg63
(lp2014
g56
(g72
g58
NtRp2015
(dp2016
g61
(dp2017
sg70
g2011
sg63
(lp2018
g56
(g77
g58
NtRp2019
(dp2020
g61
(dp2021
g81
g82
ssg70
g2015
sg63
(lp2022
g833
asbag56
(g77
g58
NtRp2023
(dp2024
g61
(dp2025
g88
g89
ssg70
g2015
sg63
(lp2026
S':'
asbag56
(g77
g58
NtRp2027
(dp2028
g61
(dp2029
sg70
g2015
sg63
(lp2030
g56
(g57
g58
NtRp2031
(dp2032
g61
(dp2033
g69
I4
ssg70
g2027
sg63
(lp2034
S"set(['/home/mukul/web2py/applications/admin/', '/home/mukul/web2py/applications/blogpost/', '/home/mukul/web2py/applications/welcome/'])"
p2035
asbasbasbag56
(g72
g58
NtRp2036
(dp2037
g61
(dp2038
sg70
g2011
sg63
(lp2039
g56
(g77
g58
NtRp2040
(dp2041
g61
(dp2042
g81
g82
ssg70
g2036
sg63
(lp2043
g855
asbag56
(g77
g58
NtRp2044
(dp2045
g61
(dp2046
g88
g89
ssg70
g2036
sg63
(lp2047
S':'
asbag56
(g77
g58
NtRp2048
(dp2049
g61
(dp2050
sg70
g2036
sg63
(lp2051
g56
(g57
g58
NtRp2052
(dp2053
g61
(dp2054
g69
I4
ssg70
g2048
sg63
(lp2055
g868
asbasbasbag56
(g72
g58
NtRp2056
(dp2057
g61
(dp2058
sg70
g2011
sg63
(lp2059
g56
(g77
g58
NtRp2060
(dp2061
g61
(dp2062
g81
g82
ssg70
g2056
sg63
(lp2063
g877
asbag56
(g77
g58
NtRp2064
(dp2065
g61
(dp2066
g88
g89
ssg70
g2056
sg63
(lp2067
S':'
asbag56
(g77
g58
NtRp2068
(dp2069
g61
(dp2070
sg70
g2056
sg63
(lp2071
g56
(g57
g58
NtRp2072
(dp2073
g61
(dp2074
g69
I4
ssg70
g2068
sg63
(lp2075
g56
(g65
g58
NtRp2076
(dp2077
g61
(dp2078
g69
I3
ssg70
Nsg63
(lp2079
sbasbasbasbag56
(g72
g58
NtRp2080
(dp2081
g61
(dp2082
sg70
g2011
sg63
(lp2083
g56
(g77
g58
NtRp2084
(dp2085
g61
(dp2086
g81
g82
ssg70
g2080
sg63
(lp2087
g902
asbag56
(g77
g58
NtRp2088
(dp2089
g61
(dp2090
g88
g89
ssg70
g2080
sg63
(lp2091
S':'
asbag56
(g77
g58
NtRp2092
(dp2093
g61
(dp2094
sg70
g2080
sg63
(lp2095
g56
(g57
g58
NtRp2096
(dp2097
g61
(dp2098
g69
I4
ssg70
g2092
sg63
(lp2099
S"<Values at 0xa3b678c: {'verbose': False, 'ip': '127.0.0.1', 'shutdown_timeout': 5, 'taskbar': False, 'port': 8000, 'maxthreads': None, 'softcron': False, 'server_name': 'mukul-INVALID', 'bpython': False, 'nogui': False, 'nocron': False, 'extcron': False, 'debuglevel': 30, 'test': None, 'folder': '/home/mukul/web2py', 'config': '', 'import_models': False, 'winservice': '', 'shell': None, 'run': '', 'log_filename': 'httpserver.log', 'args': [''], 'socket_timeout': 1, 'profiler_filename': None, 'ssl_private_key': '', 'password': '<ask>', 'request_queue_size': 5, 'ssl_certificate': '', 'cronjob': False, 'plain': False, 'quiet': False, 'interfaces': None, 'minthreads': None, 'timeout': 10, 'numthreads': None, 'nobanner': False, 'pid_filename': 'httpserver.pid'}>"
p2100
asbasbasbag56
(g72
g58
NtRp2101
(dp2102
g61
(dp2103
sg70
g2011
sg63
(lp2104
g56
(g77
g58
NtRp2105
(dp2106
g61
(dp2107
g81
g82
ssg70
g2101
sg63
(lp2108
g968
asbag56
(g77
g58
NtRp2109
(dp2110
g61
(dp2111
g88
g89
ssg70
g2101
sg63
(lp2112
S':'
asbag56
(g77
g58
NtRp2113
(dp2114
g61
(dp2115
sg70
g2101
sg63
(lp2116
g56
(g57
g58
NtRp2117
(dp2118
g61
(dp2119
g69
I4
ssg70
g2113
sg63
(lp2120
S'set([])'
p2121
asbasbasbag56
(g72
g58
NtRp2122
(dp2123
g61
(dp2124
sg70
g2011
sg63
(lp2125
g56
(g77
g58
NtRp2126
(dp2127
g61
(dp2128
g81
g82
ssg70
g2122
sg63
(lp2129
g990
asbag56
(g77
g58
NtRp2130
(dp2131
g61
(dp2132
g88
g89
ssg70
g2122
sg63
(lp2133
S':'
asbag56
(g77
g58
NtRp2134
(dp2135
g61
(dp2136
sg70
g2122
sg63
(lp2137
g56
(g57
g58
NtRp2138
(dp2139
g61
(dp2140
g69
I4
ssg70
g2134
sg63
(lp2141
g99
asbasbasbag56
(g72
g58
NtRp2142
(dp2143
g61
(dp2144
sg70
g2011
sg63
(lp2145
g56
(g77
g58
NtRp2146
(dp2147
g61
(dp2148
g81
g82
ssg70
g2142
sg63
(lp2149
g1011
asbag56
(g77
g58
NtRp2150
(dp2151
g61
(dp2152
g88
g89
ssg70
g2142
sg63
(lp2153
S':'
asbag56
(g77
g58
NtRp2154
(dp2155
g61
(dp2156
sg70
g2142
sg63
(lp2157
g56
(g57
g58
NtRp2158
(dp2159
g61
(dp2160
g69
I4
ssg70
g2154
sg63
(lp2161
g1024
asbasbasbag56
(g72
g58
NtRp2162
(dp2163
g61
(dp2164
sg70
g2011
sg63
(lp2165
g56
(g77
g58
NtRp2166
(dp2167
g61
(dp2168
g81
g82
ssg70
g2162
sg63
(lp2169
g1316
asbag56
(g77
g58
NtRp2170
(dp2171
g61
(dp2172
g88
g89
ssg70
g2162
sg63
(lp2173
S':'
asbag56
(g77
g58
NtRp2174
(dp2175
g61
(dp2176
sg70
g2162
sg63
(lp2177
g56
(g57
g58
NtRp2178
(dp2179
g61
(dp2180
g69
I4
ssg70
g2174
sg63
(lp2181
g99
asbasbasbag56
(g72
g58
NtRp2182
(dp2183
g61
(dp2184
sg70
g2011
sg63
(lp2185
g56
(g77
g58
NtRp2186
(dp2187
g61
(dp2188
g81
g82
ssg70
g2182
sg63
(lp2189
g1337
asbag56
(g77
g58
NtRp2190
(dp2191
g61
(dp2192
g88
g89
ssg70
g2182
sg63
(lp2193
S':'
asbag56
(g77
g58
NtRp2194
(dp2195
g61
(dp2196
sg70
g2182
sg63
(lp2197
g56
(g57
g58
NtRp2198
(dp2199
g61
(dp2200
g69
I4
ssg70
g2194
sg63
(lp2201
g99
asbasbasbag56
(g72
g58
NtRp2202
(dp2203
g61
(dp2204
sg70
g2011
sg63
(lp2205
g56
(g77
g58
NtRp2206
(dp2207
g61
(dp2208
g81
g82
ssg70
g2202
sg63
(lp2209
g1575
asbag56
(g77
g58
NtRp2210
(dp2211
g61
(dp2212
g88
g89
ssg70
g2202
sg63
(lp2213
S':'
asbag56
(g77
g58
NtRp2214
(dp2215
g61
(dp2216
sg70
g2202
sg63
(lp2217
g56
(g57
g58
NtRp2218
(dp2219
g61
(dp2220
g69
I4
ssg70
g2214
sg63
(lp2221
g1588
asbasbasbag56
(g72
g58
NtRp2222
(dp2223
g61
(dp2224
sg70
g2011
sg63
(lp2225
g56
(g77
g58
NtRp2226
(dp2227
g61
(dp2228
g81
g82
ssg70
g2222
sg63
(lp2229
g1618
asbag56
(g77
g58
NtRp2230
(dp2231
g61
(dp2232
g88
g89
ssg70
g2222
sg63
(lp2233
S':'
asbag56
(g77
g58
NtRp2234
(dp2235
g61
(dp2236
sg70
g2222
sg63
(lp2237
g56
(g57
g58
NtRp2238
(dp2239
g61
(dp2240
g69
I4
ssg70
g2234
sg63
(lp2241
g56
(g65
g58
NtRp2242
(dp2243
g61
(dp2244
g69
I3
ssg70
Nsg63
(lp2245
g56
(g72
g58
NtRp2246
(dp2247
g61
(dp2248
sg70
g2242
sg63
(lp2249
g56
(g77
g58
NtRp2250
(dp2251
g61
(dp2252
sg70
g2246
sg63
(lp2253
g56
(g57
g58
NtRp2254
(dp2255
g61
(dp2256
g69
I3
ssg70
g2250
sg63
(lp2257
S'1'
asbasbasbag56
(g72
g58
NtRp2258
(dp2259
g61
(dp2260
sg70
g2242
sg63
(lp2261
g56
(g77
g58
NtRp2262
(dp2263
g61
(dp2264
sg70
g2258
sg63
(lp2265
g56
(g57
g58
NtRp2266
(dp2267
g61
(dp2268
g69
I3
ssg70
g2262
sg63
(lp2269
S'99'
p2270
asbasbasbag56
(g72
g58
NtRp2271
(dp2272
g61
(dp2273
sg70
g2242
sg63
(lp2274
g56
(g77
g58
NtRp2275
(dp2276
g61
(dp2277
sg70
g2271
sg63
(lp2278
g56
(g57
g58
NtRp2279
(dp2280
g61
(dp2281
g69
I3
ssg70
g2275
sg63
(lp2282
S'4'
asbasbasbag56
(g72
g58
NtRp2283
(dp2284
g61
(dp2285
sg70
g2242
sg63
(lp2286
g56
(g77
g58
NtRp2287
(dp2288
g61
(dp2289
sg70
g2283
sg63
(lp2290
g56
(g57
g58
NtRp2291
(dp2292
g61
(dp2293
g69
I3
ssg70
g2287
sg63
(lp2294
S'datetime.datetime(2011, 12, 14, 14, 46, 14)'
p2295
asbasbasbag56
(g72
g58
NtRp2296
(dp2297
g61
(dp2298
sg70
g2242
sg63
(lp2299
g56
(g77
g58
NtRp2300
(dp2301
g61
(dp2302
sg70
g2296
sg63
(lp2303
g56
(g57
g58
NtRp2304
(dp2305
g61
(dp2306
g69
I3
ssg70
g2300
sg63
(lp2307
g1697
asbasbasbasbasbasbasbasbasbasbasbag56
(g72
g58
NtRp2308
(dp2309
g61
(dp2310
sg70
g66
sg63
(lp2311
g56
(g77
g58
NtRp2312
(dp2313
g61
(dp2314
g81
g82
ssg70
g2308
sg63
(lp2315
S'is_https'
p2316
asbag56
(g77
g58
NtRp2317
(dp2318
g61
(dp2319
g88
g89
ssg70
g2308
sg63
(lp2320
S':'
asbag56
(g77
g58
NtRp2321
(dp2322
g61
(dp2323
sg70
g2308
sg63
(lp2324
g56
(g57
g58
NtRp2325
(dp2326
g61
(dp2327
g69
I5
ssg70
g2321
sg63
(lp2328
g99
asbasbasbag56
(g72
g58
NtRp2329
(dp2330
g61
(dp2331
sg70
g66
sg63
(lp2332
g56
(g77
g58
NtRp2333
(dp2334
g61
(dp2335
g81
g82
ssg70
g2329
sg63
(lp2336
S'is_local'
p2337
asbag56
(g77
g58
NtRp2338
(dp2339
g61
(dp2340
g88
g89
ssg70
g2329
sg63
(lp2341
S':'
asbag56
(g77
g58
NtRp2342
(dp2343
g61
(dp2344
sg70
g2329
sg63
(lp2345
g56
(g57
g58
NtRp2346
(dp2347
g61
(dp2348
g69
I5
ssg70
g2342
sg63
(lp2349
g1806
asbasbasbag56
(g72
g58
NtRp2350
(dp2351
g61
(dp2352
sg70
g66
sg63
(lp2353
g56
(g77
g58
NtRp2354
(dp2355
g61
(dp2356
g81
g82
ssg70
g2350
sg63
(lp2357
S'is_restful'
p2358
asbag56
(g77
g58
NtRp2359
(dp2360
g61
(dp2361
g88
g89
ssg70
g2350
sg63
(lp2362
S':'
asbag56
(g77
g58
NtRp2363
(dp2364
g61
(dp2365
sg70
g2350
sg63
(lp2366
g56
(g57
g58
NtRp2367
(dp2368
g61
(dp2369
g69
I5
ssg70
g2363
sg63
(lp2370
g99
asbasbasbag56
(g72
g58
NtRp2371
(dp2372
g61
(dp2373
sg70
g66
sg63
(lp2374
g56
(g77
g58
NtRp2375
(dp2376
g61
(dp2377
g81
g82
ssg70
g2371
sg63
(lp2378
S'now'
p2379
asbag56
(g77
g58
NtRp2380
(dp2381
g61
(dp2382
g88
g89
ssg70
g2371
sg63
(lp2383
S':'
asbag56
(g77
g58
NtRp2384
(dp2385
g61
(dp2386
sg70
g2371
sg63
(lp2387
g56
(g57
g58
NtRp2388
(dp2389
g61
(dp2390
g69
I5
ssg70
g2384
sg63
(lp2391
S'datetime.datetime(2016, 5, 15, 14, 36, 11, 35509)'
p2392
asbasbasbag56
(g72
g58
NtRp2393
(dp2394
g61
(dp2395
sg70
g66
sg63
(lp2396
g56
(g77
g58
NtRp2397
(dp2398
g61
(dp2399
g81
g82
ssg70
g2393
sg63
(lp2400
S'post_vars'
p2401
asbag56
(g77
g58
NtRp2402
(dp2403
g61
(dp2404
g88
g89
ssg70
g2393
sg63
(lp2405
S':'
asbag56
(g77
g58
NtRp2406
(dp2407
g61
(dp2408
sg70
g2393
sg63
(lp2409
g56
(g57
g58
NtRp2410
(dp2411
g61
(dp2412
g69
I5
ssg70
g2406
sg63
(lp2413
g56
(g65
g58
NtRp2414
(dp2415
g61
(dp2416
g69
I4
ssg70
Nsg63
(lp2417
g56
(g72
g58
NtRp2418
(dp2419
g61
(dp2420
sg70
g2414
sg63
(lp2421
g56
(g77
g58
NtRp2422
(dp2423
g61
(dp2424
g81
g82
ssg70
g2418
sg63
(lp2425
S'comment_data'
p2426
asbag56
(g77
g58
NtRp2427
(dp2428
g61
(dp2429
g88
g89
ssg70
g2418
sg63
(lp2430
S':'
asbag56
(g77
g58
NtRp2431
(dp2432
g61
(dp2433
sg70
g2418
sg63
(lp2434
g56
(g57
g58
NtRp2435
(dp2436
g61
(dp2437
g69
I4
ssg70
g2431
sg63
(lp2438
S'hjjjj\r\nkkkkk\r\nllll'
p2439
asbasbasbag56
(g72
g58
NtRp2440
(dp2441
g61
(dp2442
sg70
g2414
sg63
(lp2443
g56
(g77
g58
NtRp2444
(dp2445
g61
(dp2446
g81
g82
ssg70
g2440
sg63
(lp2447
S'submit'
p2448
asbag56
(g77
g58
NtRp2449
(dp2450
g61
(dp2451
g88
g89
ssg70
g2440
sg63
(lp2452
S':'
asbag56
(g77
g58
NtRp2453
(dp2454
g61
(dp2455
sg70
g2440
sg63
(lp2456
g56
(g57
g58
NtRp2457
(dp2458
g61
(dp2459
g69
I4
ssg70
g2453
sg63
(lp2460
S'Submit'
p2461
asbasbasbasbasbasbasbag56
(g72
g58
NtRp2462
(dp2463
g61
(dp2464
sg70
g66
sg63
(lp2465
g56
(g77
g58
NtRp2466
(dp2467
g61
(dp2468
g81
g82
ssg70
g2462
sg63
(lp2469
S'url'
p2470
asbag56
(g77
g58
NtRp2471
(dp2472
g61
(dp2473
g88
g89
ssg70
g2462
sg63
(lp2474
S':'
asbag56
(g77
g58
NtRp2475
(dp2476
g61
(dp2477
sg70
g2462
sg63
(lp2478
g56
(g57
g58
NtRp2479
(dp2480
g61
(dp2481
g69
I5
ssg70
g2475
sg63
(lp2482
S'/blogpost/default/show'
p2483
asbasbasbag56
(g72
g58
NtRp2484
(dp2485
g61
(dp2486
sg70
g66
sg63
(lp2487
g56
(g77
g58
NtRp2488
(dp2489
g61
(dp2490
g81
g82
ssg70
g2484
sg63
(lp2491
S'utcnow'
p2492
asbag56
(g77
g58
NtRp2493
(dp2494
g61
(dp2495
g88
g89
ssg70
g2484
sg63
(lp2496
S':'
asbag56
(g77
g58
NtRp2497
(dp2498
g61
(dp2499
sg70
g2484
sg63
(lp2500
g56
(g57
g58
NtRp2501
(dp2502
g61
(dp2503
g69
I5
ssg70
g2497
sg63
(lp2504
S'datetime.datetime(2016, 5, 15, 9, 6, 11, 35548)'
p2505
asbasbasbag56
(g72
g58
NtRp2506
(dp2507
g61
(dp2508
sg70
g66
sg63
(lp2509
g56
(g77
g58
NtRp2510
(dp2511
g61
(dp2512
g81
g82
ssg70
g2506
sg63
(lp2513
S'uuid'
p2514
asbag56
(g77
g58
NtRp2515
(dp2516
g61
(dp2517
g88
g89
ssg70
g2506
sg63
(lp2518
S':'
asbag56
(g77
g58
NtRp2519
(dp2520
g61
(dp2521
sg70
g2506
sg63
(lp2522
g56
(g57
g58
NtRp2523
(dp2524
g61
(dp2525
g69
I5
ssg70
g2519
sg63
(lp2526
S'blogpost/127.0.0.1.2016-05-15.14-36-11.dd272903-c2c4-4cf1-8139-18e680e3aba2'
p2527
asbasbasbag56
(g72
g58
NtRp2528
(dp2529
g61
(dp2530
sg70
g66
sg63
(lp2531
g56
(g77
g58
NtRp2532
(dp2533
g61
(dp2534
g81
g82
ssg70
g2528
sg63
(lp2535
S'vars'
p2536
asbag56
(g77
g58
NtRp2537
(dp2538
g61
(dp2539
g88
g89
ssg70
g2528
sg63
(lp2540
S':'
asbag56
(g77
g58
NtRp2541
(dp2542
g61
(dp2543
sg70
g2528
sg63
(lp2544
g56
(g57
g58
NtRp2545
(dp2546
g61
(dp2547
g69
I5
ssg70
g2541
sg63
(lp2548
g56
(g65
g58
NtRp2549
(dp2550
g61
(dp2551
g69
I4
ssg70
Nsg63
(lp2552
g56
(g72
g58
NtRp2553
(dp2554
g61
(dp2555
sg70
g2549
sg63
(lp2556
g56
(g77
g58
NtRp2557
(dp2558
g61
(dp2559
g81
g82
ssg70
g2553
sg63
(lp2560
g2426
asbag56
(g77
g58
NtRp2561
(dp2562
g61
(dp2563
g88
g89
ssg70
g2553
sg63
(lp2564
S':'
asbag56
(g77
g58
NtRp2565
(dp2566
g61
(dp2567
sg70
g2553
sg63
(lp2568
g56
(g57
g58
NtRp2569
(dp2570
g61
(dp2571
g69
I4
ssg70
g2565
sg63
(lp2572
g2439
asbasbasbag56
(g72
g58
NtRp2573
(dp2574
g61
(dp2575
sg70
g2549
sg63
(lp2576
g56
(g77
g58
NtRp2577
(dp2578
g61
(dp2579
g81
g82
ssg70
g2573
sg63
(lp2580
g2448
asbag56
(g77
g58
NtRp2581
(dp2582
g61
(dp2583
g88
g89
ssg70
g2573
sg63
(lp2584
S':'
asbag56
(g77
g58
NtRp2585
(dp2586
g61
(dp2587
sg70
g2573
sg63
(lp2588
g56
(g57
g58
NtRp2589
(dp2590
g61
(dp2591
g69
I4
ssg70
g2585
sg63
(lp2592
g2461
asbasbasbasbasbasbasbag56
(g72
g58
NtRp2593
(dp2594
g61
(dp2595
sg70
g66
sg63
(lp2596
g56
(g77
g58
NtRp2597
(dp2598
g61
(dp2599
g81
g82
ssg70
g2593
sg63
(lp2600
S'wsgi'
p2601
asbag56
(g77
g58
NtRp2602
(dp2603
g61
(dp2604
g88
g89
ssg70
g2593
sg63
(lp2605
S':'
asbag56
(g77
g58
NtRp2606
(dp2607
g61
(dp2608
sg70
g2593
sg63
(lp2609
g56
(g57
g58
NtRp2610
(dp2611
g61
(dp2612
g69
I5
ssg70
g2606
sg63
(lp2613
g56
(g65
g58
NtRp2614
(dp2615
g61
(dp2616
g69
I4
ssg70
Nsg63
(lp2617
g56
(g72
g58
NtRp2618
(dp2619
g61
(dp2620
sg70
g2614
sg63
(lp2621
g56
(g77
g58
NtRp2622
(dp2623
g61
(dp2624
g81
g82
ssg70
g2618
sg63
(lp2625
S'environ'
p2626
asbag56
(g77
g58
NtRp2627
(dp2628
g61
(dp2629
g88
g89
ssg70
g2618
sg63
(lp2630
S':'
asbag56
(g77
g58
NtRp2631
(dp2632
g61
(dp2633
sg70
g2618
sg63
(lp2634
g56
(g57
g58
NtRp2635
(dp2636
g61
(dp2637
g69
I4
ssg70
g2631
sg63
(lp2638
g56
(g65
g58
NtRp2639
(dp2640
g61
(dp2641
g69
I3
ssg70
Nsg63
(lp2642
g56
(g72
g58
NtRp2643
(dp2644
g61
(dp2645
sg70
g2639
sg63
(lp2646
g56
(g77
g58
NtRp2647
(dp2648
g61
(dp2649
g81
g82
ssg70
g2643
sg63
(lp2650
S'CONTENT_LENGTH'
p2651
asbag56
(g77
g58
NtRp2652
(dp2653
g61
(dp2654
g88
g89
ssg70
g2643
sg63
(lp2655
S':'
asbag56
(g77
g58
NtRp2656
(dp2657
g61
(dp2658
sg70
g2643
sg63
(lp2659
g56
(g57
g58
NtRp2660
(dp2661
g61
(dp2662
g69
I3
ssg70
g2656
sg63
(lp2663
g937
asbasbasbag56
(g72
g58
NtRp2664
(dp2665
g61
(dp2666
sg70
g2639
sg63
(lp2667
g56
(g77
g58
NtRp2668
(dp2669
g61
(dp2670
g81
g82
ssg70
g2664
sg63
(lp2671
S'CONTENT_TYPE'
p2672
asbag56
(g77
g58
NtRp2673
(dp2674
g61
(dp2675
g88
g89
ssg70
g2664
sg63
(lp2676
S':'
asbag56
(g77
g58
NtRp2677
(dp2678
g61
(dp2679
sg70
g2664
sg63
(lp2680
g56
(g57
g58
NtRp2681
(dp2682
g61
(dp2683
g69
I3
ssg70
g2677
sg63
(lp2684
g959
asbasbasbag56
(g72
g58
NtRp2685
(dp2686
g61
(dp2687
sg70
g2639
sg63
(lp2688
g56
(g77
g58
NtRp2689
(dp2690
g61
(dp2691
g81
g82
ssg70
g2685
sg63
(lp2692
S'HTTP_ACCEPT'
p2693
asbag56
(g77
g58
NtRp2694
(dp2695
g61
(dp2696
g88
g89
ssg70
g2685
sg63
(lp2697
S':'
asbag56
(g77
g58
NtRp2698
(dp2699
g61
(dp2700
sg70
g2685
sg63
(lp2701
g56
(g57
g58
NtRp2702
(dp2703
g61
(dp2704
g69
I3
ssg70
g2698
sg63
(lp2705
g1046
asbasbasbag56
(g72
g58
NtRp2706
(dp2707
g61
(dp2708
sg70
g2639
sg63
(lp2709
g56
(g77
g58
NtRp2710
(dp2711
g61
(dp2712
g81
g82
ssg70
g2706
sg63
(lp2713
S'HTTP_ACCEPT_ENCODING'
p2714
asbag56
(g77
g58
NtRp2715
(dp2716
g61
(dp2717
g88
g89
ssg70
g2706
sg63
(lp2718
S':'
asbag56
(g77
g58
NtRp2719
(dp2720
g61
(dp2721
sg70
g2706
sg63
(lp2722
g56
(g57
g58
NtRp2723
(dp2724
g61
(dp2725
g69
I3
ssg70
g2719
sg63
(lp2726
g1068
asbasbasbag56
(g72
g58
NtRp2727
(dp2728
g61
(dp2729
sg70
g2639
sg63
(lp2730
g56
(g77
g58
NtRp2731
(dp2732
g61
(dp2733
g81
g82
ssg70
g2727
sg63
(lp2734
S'HTTP_ACCEPT_LANGUAGE'
p2735
asbag56
(g77
g58
NtRp2736
(dp2737
g61
(dp2738
g88
g89
ssg70
g2727
sg63
(lp2739
S':'
asbag56
(g77
g58
NtRp2740
(dp2741
g61
(dp2742
sg70
g2727
sg63
(lp2743
g56
(g57
g58
NtRp2744
(dp2745
g61
(dp2746
g69
I3
ssg70
g2740
sg63
(lp2747
g1090
asbasbasbag56
(g72
g58
NtRp2748
(dp2749
g61
(dp2750
sg70
g2639
sg63
(lp2751
g56
(g77
g58
NtRp2752
(dp2753
g61
(dp2754
g81
g82
ssg70
g2748
sg63
(lp2755
S'HTTP_CACHE_CONTROL'
p2756
asbag56
(g77
g58
NtRp2757
(dp2758
g61
(dp2759
g88
g89
ssg70
g2748
sg63
(lp2760
S':'
asbag56
(g77
g58
NtRp2761
(dp2762
g61
(dp2763
sg70
g2748
sg63
(lp2764
g56
(g57
g58
NtRp2765
(dp2766
g61
(dp2767
g69
I3
ssg70
g2761
sg63
(lp2768
g1112
asbasbasbag56
(g72
g58
NtRp2769
(dp2770
g61
(dp2771
sg70
g2639
sg63
(lp2772
g56
(g77
g58
NtRp2773
(dp2774
g61
(dp2775
g81
g82
ssg70
g2769
sg63
(lp2776
S'HTTP_CONNECTION'
p2777
asbag56
(g77
g58
NtRp2778
(dp2779
g61
(dp2780
g88
g89
ssg70
g2769
sg63
(lp2781
S':'
asbag56
(g77
g58
NtRp2782
(dp2783
g61
(dp2784
sg70
g2769
sg63
(lp2785
g56
(g57
g58
NtRp2786
(dp2787
g61
(dp2788
g69
I3
ssg70
g2782
sg63
(lp2789
g1134
asbasbasbag56
(g72
g58
NtRp2790
(dp2791
g61
(dp2792
sg70
g2639
sg63
(lp2793
g56
(g77
g58
NtRp2794
(dp2795
g61
(dp2796
g81
g82
ssg70
g2790
sg63
(lp2797
S'HTTP_CONTENT_LENGTH'
p2798
asbag56
(g77
g58
NtRp2799
(dp2800
g61
(dp2801
g88
g89
ssg70
g2790
sg63
(lp2802
S':'
asbag56
(g77
g58
NtRp2803
(dp2804
g61
(dp2805
sg70
g2790
sg63
(lp2806
g56
(g57
g58
NtRp2807
(dp2808
g61
(dp2809
g69
I3
ssg70
g2803
sg63
(lp2810
g937
asbasbasbag56
(g72
g58
NtRp2811
(dp2812
g61
(dp2813
sg70
g2639
sg63
(lp2814
g56
(g77
g58
NtRp2815
(dp2816
g61
(dp2817
g81
g82
ssg70
g2811
sg63
(lp2818
S'HTTP_CONTENT_TYPE'
p2819
asbag56
(g77
g58
NtRp2820
(dp2821
g61
(dp2822
g88
g89
ssg70
g2811
sg63
(lp2823
S':'
asbag56
(g77
g58
NtRp2824
(dp2825
g61
(dp2826
sg70
g2811
sg63
(lp2827
g56
(g57
g58
NtRp2828
(dp2829
g61
(dp2830
g69
I3
ssg70
g2824
sg63
(lp2831
g959
asbasbasbag56
(g72
g58
NtRp2832
(dp2833
g61
(dp2834
sg70
g2639
sg63
(lp2835
g56
(g77
g58
NtRp2836
(dp2837
g61
(dp2838
g81
g82
ssg70
g2832
sg63
(lp2839
S'HTTP_COOKIE'
p2840
asbag56
(g77
g58
NtRp2841
(dp2842
g61
(dp2843
g88
g89
ssg70
g2832
sg63
(lp2844
S':'
asbag56
(g77
g58
NtRp2845
(dp2846
g61
(dp2847
sg70
g2832
sg63
(lp2848
g56
(g57
g58
NtRp2849
(dp2850
g61
(dp2851
g69
I3
ssg70
g2845
sg63
(lp2852
g1198
asbasbasbag56
(g72
g58
NtRp2853
(dp2854
g61
(dp2855
sg70
g2639
sg63
(lp2856
g56
(g77
g58
NtRp2857
(dp2858
g61
(dp2859
g81
g82
ssg70
g2853
sg63
(lp2860
S'HTTP_HOST'
p2861
asbag56
(g77
g58
NtRp2862
(dp2863
g61
(dp2864
g88
g89
ssg70
g2853
sg63
(lp2865
S':'
asbag56
(g77
g58
NtRp2866
(dp2867
g61
(dp2868
sg70
g2853
sg63
(lp2869
g56
(g57
g58
NtRp2870
(dp2871
g61
(dp2872
g69
I3
ssg70
g2866
sg63
(lp2873
g1220
asbasbasbag56
(g72
g58
NtRp2874
(dp2875
g61
(dp2876
sg70
g2639
sg63
(lp2877
g56
(g77
g58
NtRp2878
(dp2879
g61
(dp2880
g81
g82
ssg70
g2874
sg63
(lp2881
S'HTTP_ORIGIN'
p2882
asbag56
(g77
g58
NtRp2883
(dp2884
g61
(dp2885
g88
g89
ssg70
g2874
sg63
(lp2886
S':'
asbag56
(g77
g58
NtRp2887
(dp2888
g61
(dp2889
sg70
g2874
sg63
(lp2890
g56
(g57
g58
NtRp2891
(dp2892
g61
(dp2893
g69
I3
ssg70
g2887
sg63
(lp2894
g1242
asbasbasbag56
(g72
g58
NtRp2895
(dp2896
g61
(dp2897
sg70
g2639
sg63
(lp2898
g56
(g77
g58
NtRp2899
(dp2900
g61
(dp2901
g81
g82
ssg70
g2895
sg63
(lp2902
S'HTTP_REFERER'
p2903
asbag56
(g77
g58
NtRp2904
(dp2905
g61
(dp2906
g88
g89
ssg70
g2895
sg63
(lp2907
S':'
asbag56
(g77
g58
NtRp2908
(dp2909
g61
(dp2910
sg70
g2895
sg63
(lp2911
g56
(g57
g58
NtRp2912
(dp2913
g61
(dp2914
g69
I3
ssg70
g2908
sg63
(lp2915
g1264
asbasbasbag56
(g72
g58
NtRp2916
(dp2917
g61
(dp2918
sg70
g2639
sg63
(lp2919
g56
(g77
g58
NtRp2920
(dp2921
g61
(dp2922
g81
g82
ssg70
g2916
sg63
(lp2923
S'HTTP_UPGRADE_INSECURE_REQUESTS'
p2924
asbag56
(g77
g58
NtRp2925
(dp2926
g61
(dp2927
g88
g89
ssg70
g2916
sg63
(lp2928
S':'
asbag56
(g77
g58
NtRp2929
(dp2930
g61
(dp2931
sg70
g2916
sg63
(lp2932
g56
(g57
g58
NtRp2933
(dp2934
g61
(dp2935
g69
I3
ssg70
g2929
sg63
(lp2936
S'1'
asbasbasbag56
(g72
g58
NtRp2937
(dp2938
g61
(dp2939
sg70
g2639
sg63
(lp2940
g56
(g77
g58
NtRp2941
(dp2942
g61
(dp2943
g81
g82
ssg70
g2937
sg63
(lp2944
S'HTTP_USER_AGENT'
p2945
asbag56
(g77
g58
NtRp2946
(dp2947
g61
(dp2948
g88
g89
ssg70
g2937
sg63
(lp2949
S':'
asbag56
(g77
g58
NtRp2950
(dp2951
g61
(dp2952
sg70
g2937
sg63
(lp2953
g56
(g57
g58
NtRp2954
(dp2955
g61
(dp2956
g69
I3
ssg70
g2950
sg63
(lp2957
g1307
asbasbasbag56
(g72
g58
NtRp2958
(dp2959
g61
(dp2960
sg70
g2639
sg63
(lp2961
g56
(g77
g58
NtRp2962
(dp2963
g61
(dp2964
g81
g82
ssg70
g2958
sg63
(lp2965
S'PATH_INFO'
p2966
asbag56
(g77
g58
NtRp2967
(dp2968
g61
(dp2969
g88
g89
ssg70
g2958
sg63
(lp2970
S':'
asbag56
(g77
g58
NtRp2971
(dp2972
g61
(dp2973
sg70
g2958
sg63
(lp2974
g56
(g57
g58
NtRp2975
(dp2976
g61
(dp2977
g69
I3
ssg70
g2971
sg63
(lp2978
g1371
asbasbasbag56
(g72
g58
NtRp2979
(dp2980
g61
(dp2981
sg70
g2639
sg63
(lp2982
g56
(g77
g58
NtRp2983
(dp2984
g61
(dp2985
g81
g82
ssg70
g2979
sg63
(lp2986
S'QUERY_STRING'
p2987
asbag56
(g77
g58
NtRp2988
(dp2989
g61
(dp2990
g88
g89
ssg70
g2979
sg63
(lp2991
S':'
asbag56
(g77
g58
NtRp2992
(dp2993
g61
(dp2994
sg70
g2979
sg63
(lp2995
g56
(g57
g58
NtRp2996
(dp2997
g61
(dp2998
g69
I3
ssg70
g2992
sg63
(lp2999
S''
asbasbasbag56
(g72
g58
NtRp3000
(dp3001
g61
(dp3002
sg70
g2639
sg63
(lp3003
g56
(g77
g58
NtRp3004
(dp3005
g61
(dp3006
g81
g82
ssg70
g3000
sg63
(lp3007
S'REMOTE_ADDR'
p3008
asbag56
(g77
g58
NtRp3009
(dp3010
g61
(dp3011
g88
g89
ssg70
g3000
sg63
(lp3012
S':'
asbag56
(g77
g58
NtRp3013
(dp3014
g61
(dp3015
sg70
g3000
sg63
(lp3016
g56
(g57
g58
NtRp3017
(dp3018
g61
(dp3019
g69
I3
ssg70
g3013
sg63
(lp3020
g189
asbasbasbag56
(g72
g58
NtRp3021
(dp3022
g61
(dp3023
sg70
g2639
sg63
(lp3024
g56
(g77
g58
NtRp3025
(dp3026
g61
(dp3027
g81
g82
ssg70
g3021
sg63
(lp3028
S'REMOTE_PORT'
p3029
asbag56
(g77
g58
NtRp3030
(dp3031
g61
(dp3032
g88
g89
ssg70
g3021
sg63
(lp3033
S':'
asbag56
(g77
g58
NtRp3034
(dp3035
g61
(dp3036
sg70
g3021
sg63
(lp3037
g56
(g57
g58
NtRp3038
(dp3039
g61
(dp3040
g69
I3
ssg70
g3034
sg63
(lp3041
g1435
asbasbasbag56
(g72
g58
NtRp3042
(dp3043
g61
(dp3044
sg70
g2639
sg63
(lp3045
g56
(g77
g58
NtRp3046
(dp3047
g61
(dp3048
g81
g82
ssg70
g3042
sg63
(lp3049
S'REQUEST_METHOD'
p3050
asbag56
(g77
g58
NtRp3051
(dp3052
g61
(dp3053
g88
g89
ssg70
g3042
sg63
(lp3054
S':'
asbag56
(g77
g58
NtRp3055
(dp3056
g61
(dp3057
sg70
g3042
sg63
(lp3058
g56
(g57
g58
NtRp3059
(dp3060
g61
(dp3061
g69
I3
ssg70
g3055
sg63
(lp3062
g1457
asbasbasbag56
(g72
g58
NtRp3063
(dp3064
g61
(dp3065
sg70
g2639
sg63
(lp3066
g56
(g77
g58
NtRp3067
(dp3068
g61
(dp3069
g81
g82
ssg70
g3063
sg63
(lp3070
S'SCRIPT_NAME'
p3071
asbag56
(g77
g58
NtRp3072
(dp3073
g61
(dp3074
g88
g89
ssg70
g3063
sg63
(lp3075
S':'
asbag56
(g77
g58
NtRp3076
(dp3077
g61
(dp3078
sg70
g3063
sg63
(lp3079
g56
(g57
g58
NtRp3080
(dp3081
g61
(dp3082
g69
I3
ssg70
g3076
sg63
(lp3083
S''
asbasbasbag56
(g72
g58
NtRp3084
(dp3085
g61
(dp3086
sg70
g2639
sg63
(lp3087
g56
(g77
g58
NtRp3088
(dp3089
g61
(dp3090
g81
g82
ssg70
g3084
sg63
(lp3091
S'SERVER_NAME'
p3092
asbag56
(g77
g58
NtRp3093
(dp3094
g61
(dp3095
g88
g89
ssg70
g3084
sg63
(lp3096
S':'
asbag56
(g77
g58
NtRp3097
(dp3098
g61
(dp3099
sg70
g3084
sg63
(lp3100
g56
(g57
g58
NtRp3101
(dp3102
g61
(dp3103
g69
I3
ssg70
g3097
sg63
(lp3104
g1500
asbasbasbag56
(g72
g58
NtRp3105
(dp3106
g61
(dp3107
sg70
g2639
sg63
(lp3108
g56
(g77
g58
NtRp3109
(dp3110
g61
(dp3111
g81
g82
ssg70
g3105
sg63
(lp3112
S'SERVER_PORT'
p3113
asbag56
(g77
g58
NtRp3114
(dp3115
g61
(dp3116
g88
g89
ssg70
g3105
sg63
(lp3117
S':'
asbag56
(g77
g58
NtRp3118
(dp3119
g61
(dp3120
sg70
g3105
sg63
(lp3121
g56
(g57
g58
NtRp3122
(dp3123
g61
(dp3124
g69
I3
ssg70
g3118
sg63
(lp3125
g1522
asbasbasbag56
(g72
g58
NtRp3126
(dp3127
g61
(dp3128
sg70
g2639
sg63
(lp3129
g56
(g77
g58
NtRp3130
(dp3131
g61
(dp3132
g81
g82
ssg70
g3126
sg63
(lp3133
S'SERVER_PROTOCOL'
p3134
asbag56
(g77
g58
NtRp3135
(dp3136
g61
(dp3137
g88
g89
ssg70
g3126
sg63
(lp3138
S':'
asbag56
(g77
g58
NtRp3139
(dp3140
g61
(dp3141
sg70
g3126
sg63
(lp3142
g56
(g57
g58
NtRp3143
(dp3144
g61
(dp3145
g69
I3
ssg70
g3139
sg63
(lp3146
g1544
asbasbasbag56
(g72
g58
NtRp3147
(dp3148
g61
(dp3149
sg70
g2639
sg63
(lp3150
g56
(g77
g58
NtRp3151
(dp3152
g61
(dp3153
g81
g82
ssg70
g3147
sg63
(lp3154
S'SERVER_SOFTWARE'
p3155
asbag56
(g77
g58
NtRp3156
(dp3157
g61
(dp3158
g88
g89
ssg70
g3147
sg63
(lp3159
S':'
asbag56
(g77
g58
NtRp3160
(dp3161
g61
(dp3162
sg70
g3147
sg63
(lp3163
g56
(g57
g58
NtRp3164
(dp3165
g61
(dp3166
g69
I3
ssg70
g3160
sg63
(lp3167
g1566
asbasbasbag56
(g72
g58
NtRp3168
(dp3169
g61
(dp3170
sg70
g2639
sg63
(lp3171
g56
(g77
g58
NtRp3172
(dp3173
g61
(dp3174
g81
g82
ssg70
g3168
sg63
(lp3175
S'wsgi.errors'
p3176
asbag56
(g77
g58
NtRp3177
(dp3178
g61
(dp3179
g88
g89
ssg70
g3168
sg63
(lp3180
S':'
asbag56
(g77
g58
NtRp3181
(dp3182
g61
(dp3183
sg70
g3168
sg63
(lp3184
g56
(g57
g58
NtRp3185
(dp3186
g61
(dp3187
g69
I3
ssg70
g3181
sg63
(lp3188
S"<open file '<stderr>', mode 'w' at 0xb727d0d0>"
p3189
asbasbasbag56
(g72
g58
NtRp3190
(dp3191
g61
(dp3192
sg70
g2639
sg63
(lp3193
g56
(g77
g58
NtRp3194
(dp3195
g61
(dp3196
g81
g82
ssg70
g3190
sg63
(lp3197
S'wsgi.file_wrapper'
p3198
asbag56
(g77
g58
NtRp3199
(dp3200
g61
(dp3201
g88
g89
ssg70
g3190
sg63
(lp3202
S':'
asbag56
(g77
g58
NtRp3203
(dp3204
g61
(dp3205
sg70
g3190
sg63
(lp3206
g56
(g57
g58
NtRp3207
(dp3208
g61
(dp3209
g69
I3
ssg70
g3203
sg63
(lp3210
S'<class wsgiref.util.FileWrapper at 0xa1764dc>'
p3211
asbasbasbag56
(g72
g58
NtRp3212
(dp3213
g61
(dp3214
sg70
g2639
sg63
(lp3215
g56
(g77
g58
NtRp3216
(dp3217
g61
(dp3218
g81
g82
ssg70
g3212
sg63
(lp3219
S'wsgi.input'
p3220
asbag56
(g77
g58
NtRp3221
(dp3222
g61
(dp3223
g88
g89
ssg70
g3212
sg63
(lp3224
S':'
asbag56
(g77
g58
NtRp3225
(dp3226
g61
(dp3227
sg70
g3212
sg63
(lp3228
g56
(g57
g58
NtRp3229
(dp3230
g61
(dp3231
g69
I3
ssg70
g3225
sg63
(lp3232
S"<open file '<fdopen>', mode 'w+b' at 0xb2999d88>"
p3233
asbasbasbag56
(g72
g58
NtRp3234
(dp3235
g61
(dp3236
sg70
g2639
sg63
(lp3237
g56
(g77
g58
NtRp3238
(dp3239
g61
(dp3240
g81
g82
ssg70
g3234
sg63
(lp3241
S'wsgi.multiprocess'
p3242
asbag56
(g77
g58
NtRp3243
(dp3244
g61
(dp3245
g88
g89
ssg70
g3234
sg63
(lp3246
S':'
asbag56
(g77
g58
NtRp3247
(dp3248
g61
(dp3249
sg70
g3234
sg63
(lp3250
g56
(g57
g58
NtRp3251
(dp3252
g61
(dp3253
g69
I3
ssg70
g3247
sg63
(lp3254
g99
asbasbasbag56
(g72
g58
NtRp3255
(dp3256
g61
(dp3257
sg70
g2639
sg63
(lp3258
g56
(g77
g58
NtRp3259
(dp3260
g61
(dp3261
g81
g82
ssg70
g3255
sg63
(lp3262
S'wsgi.multithread'
p3263
asbag56
(g77
g58
NtRp3264
(dp3265
g61
(dp3266
g88
g89
ssg70
g3255
sg63
(lp3267
S':'
asbag56
(g77
g58
NtRp3268
(dp3269
g61
(dp3270
sg70
g3255
sg63
(lp3271
g56
(g57
g58
NtRp3272
(dp3273
g61
(dp3274
g69
I3
ssg70
g3268
sg63
(lp3275
g1806
asbasbasbag56
(g72
g58
NtRp3276
(dp3277
g61
(dp3278
sg70
g2639
sg63
(lp3279
g56
(g77
g58
NtRp3280
(dp3281
g61
(dp3282
g81
g82
ssg70
g3276
sg63
(lp3283
S'wsgi.run_once'
p3284
asbag56
(g77
g58
NtRp3285
(dp3286
g61
(dp3287
g88
g89
ssg70
g3276
sg63
(lp3288
S':'
asbag56
(g77
g58
NtRp3289
(dp3290
g61
(dp3291
sg70
g3276
sg63
(lp3292
g56
(g57
g58
NtRp3293
(dp3294
g61
(dp3295
g69
I3
ssg70
g3289
sg63
(lp3296
g99
asbasbasbag56
(g72
g58
NtRp3297
(dp3298
g61
(dp3299
sg70
g2639
sg63
(lp3300
g56
(g77
g58
NtRp3301
(dp3302
g61
(dp3303
g81
g82
ssg70
g3297
sg63
(lp3304
S'wsgi.url_scheme'
p3305
asbag56
(g77
g58
NtRp3306
(dp3307
g61
(dp3308
g88
g89
ssg70
g3297
sg63
(lp3309
S':'
asbag56
(g77
g58
NtRp3310
(dp3311
g61
(dp3312
sg70
g3297
sg63
(lp3313
g56
(g57
g58
NtRp3314
(dp3315
g61
(dp3316
g69
I3
ssg70
g3310
sg63
(lp3317
g1849
asbasbasbag56
(g72
g58
NtRp3318
(dp3319
g61
(dp3320
sg70
g2639
sg63
(lp3321
g56
(g77
g58
NtRp3322
(dp3323
g61
(dp3324
g81
g82
ssg70
g3318
sg63
(lp3325
S'wsgi.version'
p3326
asbag56
(g77
g58
NtRp3327
(dp3328
g61
(dp3329
g88
g89
ssg70
g3318
sg63
(lp3330
S':'
asbag56
(g77
g58
NtRp3331
(dp3332
g61
(dp3333
sg70
g3318
sg63
(lp3334
g56
(g57
g58
NtRp3335
(dp3336
g61
(dp3337
g69
I3
ssg70
g3331
sg63
(lp3338
S'1'
asbasbasbasbasbasbasbasbasbasbasbasbasbsS'frames'
p3339
(lp3340
(dp3341
S'file'
p3342
S'/usr/lib/pymodules/python2.7/gluon/restricted.py'
p3343
sS'dump'
p3344
(dp3345
S'environment'
p3346
S"{'A': <class 'gluon.html.A'>, 'Auth': <class 'gluon.tools.Auth'>, 'B': <class 'gluon.html.B'>, 'BEAUTIFY': <class 'gluon.html.BEAUTIFY'>, 'BODY': <class 'gluon.html.BODY'>, 'BR': <class 'gluon.html.BR'>, 'BUTTON': <class 'gluon.html.BUTTON'>, 'CAT': <class 'gluon.html.CAT'>, 'CENTER': <class 'gluon.html.CENTER'>, 'CLEANUP': <class 'gluon.validators.CLEANUP'>, ...}"
p3347
sS'ccode'
p3348
S'<code object <module> at 0xa8768d8, file "/home/...ations/blogpost/controllers/default.py", line 11>'
p3349
ssS'lnum'
p3350
I204
sS'lines'
p3351
(dp3352
I199
S'    try:'
p3353
sI200
S'        if type(code) == types.CodeType:'
p3354
sI201
S'            ccode = code'
p3355
sI202
S'        else:'
p3356
sI203
S'            ccode = compile2(code,layer)'
p3357
sI204
S'        exec ccode in environment'
p3358
sI205
S'    except HTTP:'
p3359
sI206
S'        raise'
p3360
sI207
S'    except RestrictedError:'
p3361
sI208
S'        # do not encapsulate (obfuscate) the original RestrictedError'
p3362
ssS'call'
p3363
S"(code='# -*- coding: utf-8 -*-\\n# this file is released ...og,a=id1)\\n\\nresponse._vars=response._caller(show)\\n', environment={'A': <class 'gluon.html.A'>, 'Auth': <class 'gluon.tools.Auth'>, 'B': <class 'gluon.html.B'>, 'BEAUTIFY': <class 'gluon.html.BEAUTIFY'>, 'BODY': <class 'gluon.html.BODY'>, 'BR': <class 'gluon.html.BR'>, 'BUTTON': <class 'gluon.html.BUTTON'>, 'CAT': <class 'gluon.html.CAT'>, 'CENTER': <class 'gluon.html.CENTER'>, 'CLEANUP': <class 'gluon.validators.CLEANUP'>, ...}, layer='/home/mukul/web2py/applications/blogpost/controllers/default.py')"
p3364
sS'func'
p3365
S'restricted'
p3366
sa(dp3367
g3342
S'/home/mukul/web2py/applications/blogpost/controllers/default.py'
p3368
sg3344
(dp3369
sg3350
I54
sg3351
(dp3370
I43
S'           b=i.id'
p3371
sI44
S'           x=db(db.content.id==b).select(db.content.data)'
p3372
sI45
S"           all_blog[b]['data']=x"
p3373
sI46
S'           y=db(db.content.id==b).select(db.content.title)'
p3374
sI47
S"           all_blog[b]['title']=y"
p3375
sI48
S'           z=db(db.content.id==b).select(db.content.video)'
p3376
sI49
S"           all_blog[b]['video']=z"
p3377
sI50
S''
sI51
S''
sI52
S'           return dict(t=all_blog,a=id1)'
p3378
ssg3363
S'()'
p3379
sg3365
S'<module>'
p3380
sa(dp3381
g3342
S'/usr/lib/pymodules/python2.7/gluon/globals.py'
p3382
sg3344
(dp3383
S'self'
p3384
S'undefined'
p3385
sS'f'
S'<function show>'
p3386
ssg3350
I172
sg3351
(dp3387
I167
S'        self.meta = Storage()      # used by web2py_ajax.html'
p3388
sI168
S'        self.menu = []             # used by the default view layout'
p3389
sI169
S'        self.files = []            # used by web2py_ajax.html'
p3390
sI170
S'        self.generic_patterns = [] # patterns to allow generic views'
p3391
sI171
S'        self._vars = None'
p3392
sI172
S'        self._caller = lambda f: f()'
p3393
sI173
S'        self._view_environment = None'
p3394
sI174
S'        self._custom_commit = None'
p3395
sI175
S'        self._custom_rollback = None'
p3396
sI176
S''
ssg3363
S'(f=<function show>)'
p3397
sg3365
S'<lambda>'
p3398
sa(dp3399
g3342
S'/usr/lib/pymodules/python2.7/gluon/tools.py'
p3400
sg3344
(dp3401
S'action'
p3402
S'<function show>'
p3403
sS'a'
S'()'
p3404
sS'b'
g45
ssg3350
I2533
sg3351
(dp3405
I2528
S'                # otherwise case 3 would be ok.'
p3406
sI2529
S'                if not (callable(condition) and condition() == True) and not condition == True:'
p3407
sI2530
S'                    current.session.flash = self.messages.access_denied'
p3408
sI2531
S'                    return call_or_redirect('
p3409
sI2532
S'                        self.settings.on_failed_authorization)'
p3410
sI2533
S'                return action(*a, **b)'
p3411
sI2534
S'            f.__doc__ = action.__doc__'
p3412
sI2535
S'            f.__name__ = action.__name__'
p3413
sI2536
S'            f.__dict__.update(action.__dict__)'
p3414
sI2537
S'            return f'
p3415
ssg3363
S'(*a=(), **b={})'
p3416
sg3365
S'f'
sa(dp3417
g3342
S'/home/mukul/web2py/applications/blogpost/controllers/default.py'
p3418
sg3344
(dp3419
S'all_blog'
p3420
g45
sS'x'
S'<gluon.dal.Rows object>'
p3421
sS'b'
S'1'
ssg3350
I45
sg3351
(dp3422
I40
S''
sI41
S'       all_blog={}'
p3423
sI42
S'       for i in db().select(db.content.ALL):'
p3424
sI43
S'           b=i.id'
p3425
sI44
S'           x=db(db.content.id==b).select(db.content.data)'
p3426
sI45
S"           all_blog[b]['data']=x"
p3427
sI46
S'           y=db(db.content.id==b).select(db.content.title)'
p3428
sI47
S"           all_blog[b]['title']=y"
p3429
sI48
S'           z=db(db.content.id==b).select(db.content.video)'
p3430
sI49
S"           all_blog[b]['video']=z"
p3431
ssg3363
S'()'
p3432
sg3365
S'show'
p3433
sasS'pyver'
p3434
S'Python 2.7.3: /usr/bin/python'
p3435
sS'session'
p3436
g56
(g57
g58
NtRp3437
(dp3438
g61
(dp3439
sg63
(lp3440
g56
(g65
g58
NtRp3441
(dp3442
g61
(dp3443
g69
I5
ssg70
Nsg63
(lp3444
g56
(g72
g58
NtRp3445
(dp3446
g61
(dp3447
sg70
g3441
sg63
(lp3448
g56
(g77
g58
NtRp3449
(dp3450
g61
(dp3451
g81
g82
ssg70
g3445
sg63
(lp3452
S'auth'
p3453
asbag56
(g77
g58
NtRp3454
(dp3455
g61
(dp3456
g88
g89
ssg70
g3445
sg63
(lp3457
S':'
asbag56
(g77
g58
NtRp3458
(dp3459
g61
(dp3460
sg70
g3445
sg63
(lp3461
g56
(g57
g58
NtRp3462
(dp3463
g61
(dp3464
g69
I5
ssg70
g3458
sg63
(lp3465
g56
(g65
g58
NtRp3466
(dp3467
g61
(dp3468
g69
I4
ssg70
Nsg63
(lp3469
g56
(g72
g58
NtRp3470
(dp3471
g61
(dp3472
sg70
g3466
sg63
(lp3473
g56
(g77
g58
NtRp3474
(dp3475
g61
(dp3476
g81
g82
ssg70
g3470
sg63
(lp3477
S'expiration'
p3478
asbag56
(g77
g58
NtRp3479
(dp3480
g61
(dp3481
g88
g89
ssg70
g3470
sg63
(lp3482
S':'
asbag56
(g77
g58
NtRp3483
(dp3484
g61
(dp3485
sg70
g3470
sg63
(lp3486
g56
(g57
g58
NtRp3487
(dp3488
g61
(dp3489
g69
I4
ssg70
g3483
sg63
(lp3490
S'2592000'
p3491
asbasbasbag56
(g72
g58
NtRp3492
(dp3493
g61
(dp3494
sg70
g3466
sg63
(lp3495
g56
(g77
g58
NtRp3496
(dp3497
g61
(dp3498
g81
g82
ssg70
g3492
sg63
(lp3499
S'hmac_key'
p3500
asbag56
(g77
g58
NtRp3501
(dp3502
g61
(dp3503
g88
g89
ssg70
g3492
sg63
(lp3504
S':'
asbag56
(g77
g58
NtRp3505
(dp3506
g61
(dp3507
sg70
g3492
sg63
(lp3508
g56
(g57
g58
NtRp3509
(dp3510
g61
(dp3511
g69
I4
ssg70
g3505
sg63
(lp3512
S'130c25d1-2de4-4e1f-91a4-e3f8ae2a53c6'
p3513
asbasbasbag56
(g72
g58
NtRp3514
(dp3515
g61
(dp3516
sg70
g3466
sg63
(lp3517
g56
(g77
g58
NtRp3518
(dp3519
g61
(dp3520
g81
g82
ssg70
g3514
sg63
(lp3521
S'last_visit'
p3522
asbag56
(g77
g58
NtRp3523
(dp3524
g61
(dp3525
g88
g89
ssg70
g3514
sg63
(lp3526
S':'
asbag56
(g77
g58
NtRp3527
(dp3528
g61
(dp3529
sg70
g3514
sg63
(lp3530
g56
(g57
g58
NtRp3531
(dp3532
g61
(dp3533
g69
I4
ssg70
g3527
sg63
(lp3534
S'datetime.datetime(2016, 5, 15, 1, 25, 57, 434025)'
p3535
asbasbasbag56
(g72
g58
NtRp3536
(dp3537
g61
(dp3538
sg70
g3466
sg63
(lp3539
g56
(g77
g58
NtRp3540
(dp3541
g61
(dp3542
g81
g82
ssg70
g3536
sg63
(lp3543
S'remember'
p3544
asbag56
(g77
g58
NtRp3545
(dp3546
g61
(dp3547
g88
g89
ssg70
g3536
sg63
(lp3548
S':'
asbag56
(g77
g58
NtRp3549
(dp3550
g61
(dp3551
sg70
g3536
sg63
(lp3552
g56
(g57
g58
NtRp3553
(dp3554
g61
(dp3555
g69
I4
ssg70
g3549
sg63
(lp3556
g99
asbasbasbag56
(g72
g58
NtRp3557
(dp3558
g61
(dp3559
sg70
g3466
sg63
(lp3560
g56
(g77
g58
NtRp3561
(dp3562
g61
(dp3563
g81
g82
ssg70
g3557
sg63
(lp3564
S'user'
p3565
asbag56
(g77
g58
NtRp3566
(dp3567
g61
(dp3568
g88
g89
ssg70
g3557
sg63
(lp3569
S':'
asbag56
(g77
g58
NtRp3570
(dp3571
g61
(dp3572
sg70
g3557
sg63
(lp3573
g56
(g57
g58
NtRp3574
(dp3575
g61
(dp3576
g69
I4
ssg70
g3570
sg63
(lp3577
g56
(g65
g58
NtRp3578
(dp3579
g61
(dp3580
g69
I3
ssg70
Nsg63
(lp3581
g56
(g72
g58
NtRp3582
(dp3583
g61
(dp3584
sg70
g3578
sg63
(lp3585
g56
(g77
g58
NtRp3586
(dp3587
g61
(dp3588
g81
g82
ssg70
g3582
sg63
(lp3589
S'email'
p3590
asbag56
(g77
g58
NtRp3591
(dp3592
g61
(dp3593
g88
g89
ssg70
g3582
sg63
(lp3594
S':'
asbag56
(g77
g58
NtRp3595
(dp3596
g61
(dp3597
sg70
g3582
sg63
(lp3598
g56
(g57
g58
NtRp3599
(dp3600
g61
(dp3601
g69
I3
ssg70
g3595
sg63
(lp3602
S'mukulkathpalia@gmail.com'
p3603
asbasbasbag56
(g72
g58
NtRp3604
(dp3605
g61
(dp3606
sg70
g3578
sg63
(lp3607
g56
(g77
g58
NtRp3608
(dp3609
g61
(dp3610
g81
g82
ssg70
g3604
sg63
(lp3611
S'first_name'
p3612
asbag56
(g77
g58
NtRp3613
(dp3614
g61
(dp3615
g88
g89
ssg70
g3604
sg63
(lp3616
S':'
asbag56
(g77
g58
NtRp3617
(dp3618
g61
(dp3619
sg70
g3604
sg63
(lp3620
g56
(g57
g58
NtRp3621
(dp3622
g61
(dp3623
g69
I3
ssg70
g3617
sg63
(lp3624
S'mukul'
p3625
asbasbasbag56
(g72
g58
NtRp3626
(dp3627
g61
(dp3628
sg70
g3578
sg63
(lp3629
g56
(g77
g58
NtRp3630
(dp3631
g61
(dp3632
g81
g82
ssg70
g3626
sg63
(lp3633
S'id'
p3634
asbag56
(g77
g58
NtRp3635
(dp3636
g61
(dp3637
g88
g89
ssg70
g3626
sg63
(lp3638
S':'
asbag56
(g77
g58
NtRp3639
(dp3640
g61
(dp3641
sg70
g3626
sg63
(lp3642
g56
(g57
g58
NtRp3643
(dp3644
g61
(dp3645
g69
I3
ssg70
g3639
sg63
(lp3646
S'1'
asbasbasbag56
(g72
g58
NtRp3647
(dp3648
g61
(dp3649
sg70
g3578
sg63
(lp3650
g56
(g77
g58
NtRp3651
(dp3652
g61
(dp3653
g81
g82
ssg70
g3647
sg63
(lp3654
S'last_name'
p3655
asbag56
(g77
g58
NtRp3656
(dp3657
g61
(dp3658
g88
g89
ssg70
g3647
sg63
(lp3659
S':'
asbag56
(g77
g58
NtRp3660
(dp3661
g61
(dp3662
sg70
g3647
sg63
(lp3663
g56
(g57
g58
NtRp3664
(dp3665
g61
(dp3666
g69
I3
ssg70
g3660
sg63
(lp3667
S'kathpalia'
p3668
asbasbasbag56
(g72
g58
NtRp3669
(dp3670
g61
(dp3671
sg70
g3578
sg63
(lp3672
g56
(g77
g58
NtRp3673
(dp3674
g61
(dp3675
g81
g82
ssg70
g3669
sg63
(lp3676
S'password'
p3677
asbag56
(g77
g58
NtRp3678
(dp3679
g61
(dp3680
g88
g89
ssg70
g3669
sg63
(lp3681
S':'
asbag56
(g77
g58
NtRp3682
(dp3683
g61
(dp3684
sg70
g3669
sg63
(lp3685
g56
(g57
g58
NtRp3686
(dp3687
g61
(dp3688
g69
I3
ssg70
g3682
sg63
(lp3689
S'80aeb2ab48c122c2c0b4eeef2ef83fb4'
p3690
asbasbasbag56
(g72
g58
NtRp3691
(dp3692
g61
(dp3693
sg70
g3578
sg63
(lp3694
g56
(g77
g58
NtRp3695
(dp3696
g61
(dp3697
g81
g82
ssg70
g3691
sg63
(lp3698
S'registration_id'
p3699
asbag56
(g77
g58
NtRp3700
(dp3701
g61
(dp3702
g88
g89
ssg70
g3691
sg63
(lp3703
S':'
asbag56
(g77
g58
NtRp3704
(dp3705
g61
(dp3706
sg70
g3691
sg63
(lp3707
g56
(g57
g58
NtRp3708
(dp3709
g61
(dp3710
g69
I3
ssg70
g3704
sg63
(lp3711
S''
asbasbasbag56
(g72
g58
NtRp3712
(dp3713
g61
(dp3714
sg70
g3578
sg63
(lp3715
g56
(g77
g58
NtRp3716
(dp3717
g61
(dp3718
g81
g82
ssg70
g3712
sg63
(lp3719
S'registration_key'
p3720
asbag56
(g77
g58
NtRp3721
(dp3722
g61
(dp3723
g88
g89
ssg70
g3712
sg63
(lp3724
S':'
asbag56
(g77
g58
NtRp3725
(dp3726
g61
(dp3727
sg70
g3712
sg63
(lp3728
g56
(g57
g58
NtRp3729
(dp3730
g61
(dp3731
g69
I3
ssg70
g3725
sg63
(lp3732
S''
asbasbasbag56
(g72
g58
NtRp3733
(dp3734
g61
(dp3735
sg70
g3578
sg63
(lp3736
g56
(g77
g58
NtRp3737
(dp3738
g61
(dp3739
g81
g82
ssg70
g3733
sg63
(lp3740
S'reset_password_key'
p3741
asbag56
(g77
g58
NtRp3742
(dp3743
g61
(dp3744
g88
g89
ssg70
g3733
sg63
(lp3745
S':'
asbag56
(g77
g58
NtRp3746
(dp3747
g61
(dp3748
sg70
g3733
sg63
(lp3749
g56
(g57
g58
NtRp3750
(dp3751
g61
(dp3752
g69
I3
ssg70
g3746
sg63
(lp3753
S''
asbasbasbasbasbasbasbasbasbasbasbag56
(g72
g58
NtRp3754
(dp3755
g61
(dp3756
sg70
g3441
sg63
(lp3757
g56
(g77
g58
NtRp3758
(dp3759
g61
(dp3760
g81
g82
ssg70
g3754
sg63
(lp3761
S'last_query'
p3762
asbag56
(g77
g58
NtRp3763
(dp3764
g61
(dp3765
g88
g89
ssg70
g3754
sg63
(lp3766
S':'
asbag56
(g77
g58
NtRp3767
(dp3768
g61
(dp3769
sg70
g3754
sg63
(lp3770
g56
(g57
g58
NtRp3771
(dp3772
g61
(dp3773
g69
I5
ssg70
g3767
sg63
(lp3774
S'db.content.id>0'
p3775
asbasbasbasbasbsS'etype'
p3776
S"<type 'exceptions.KeyError'>"
p3777
sS'date'
p3778
S'Sun May 15 14:36:11 2016'
p3779
sS'response'
p3780
g56
(g57
g58
NtRp3781
(dp3782
g61
(dp3783
sg63
(lp3784
g56
(g65
g58
NtRp3785
(dp3786
g61
(dp3787
g69
I5
ssg70
Nsg63
(lp3788
g56
(g72
g58
NtRp3789
(dp3790
g61
(dp3791
sg70
g3785
sg63
(lp3792
g56
(g77
g58
NtRp3793
(dp3794
g61
(dp3795
g81
g82
ssg70
g3789
sg63
(lp3796
g154
asbag56
(g77
g58
NtRp3797
(dp3798
g61
(dp3799
g88
g89
ssg70
g3789
sg63
(lp3800
S':'
asbag56
(g77
g58
NtRp3801
(dp3802
g61
(dp3803
sg70
g3789
sg63
(lp3804
g56
(g57
g58
NtRp3805
(dp3806
g61
(dp3807
g69
I5
ssg70
g3801
sg63
(lp3808
S'<cStringIO.StringO object at 0xaa33bde0>'
p3809
asbasbasbag56
(g72
g58
NtRp3810
(dp3811
g61
(dp3812
sg70
g3785
sg63
(lp3813
g56
(g77
g58
NtRp3814
(dp3815
g61
(dp3816
g81
g82
ssg70
g3810
sg63
(lp3817
g220
asbag56
(g77
g58
NtRp3818
(dp3819
g61
(dp3820
g88
g89
ssg70
g3810
sg63
(lp3821
S':'
asbag56
(g77
g58
NtRp3822
(dp3823
g61
(dp3824
sg70
g3810
sg63
(lp3825
g56
(g57
g58
NtRp3826
(dp3827
g61
(dp3828
g69
I5
ssg70
g3822
sg63
(lp3829
g56
(g65
g58
NtRp3830
(dp3831
g61
(dp3832
g69
I4
ssg70
Nsg63
(lp3833
g56
(g72
g58
NtRp3834
(dp3835
g61
(dp3836
sg70
g3830
sg63
(lp3837
g56
(g77
g58
NtRp3838
(dp3839
g61
(dp3840
g81
g82
ssg70
g3834
sg63
(lp3841
S'session_id_blogpost'
p3842
asbag56
(g77
g58
NtRp3843
(dp3844
g61
(dp3845
g88
g89
ssg70
g3834
sg63
(lp3846
S':'
asbag56
(g77
g58
NtRp3847
(dp3848
g61
(dp3849
sg70
g3834
sg63
(lp3850
g56
(g57
g58
NtRp3851
(dp3852
g61
(dp3853
g69
I4
ssg70
g3847
sg63
(lp3854
g56
(g65
g58
NtRp3855
(dp3856
g61
(dp3857
g69
I3
ssg70
Nsg63
(lp3858
g56
(g72
g58
NtRp3859
(dp3860
g61
(dp3861
sg70
g3855
sg63
(lp3862
g56
(g77
g58
NtRp3863
(dp3864
g61
(dp3865
g81
g82
ssg70
g3859
sg63
(lp3866
g270
asbag56
(g77
g58
NtRp3867
(dp3868
g61
(dp3869
g88
g89
ssg70
g3859
sg63
(lp3870
S':'
asbag56
(g77
g58
NtRp3871
(dp3872
g61
(dp3873
sg70
g3859
sg63
(lp3874
g56
(g57
g58
NtRp3875
(dp3876
g61
(dp3877
g69
I3
ssg70
g3871
sg63
(lp3878
S''
asbasbasbag56
(g72
g58
NtRp3879
(dp3880
g61
(dp3881
sg70
g3855
sg63
(lp3882
g56
(g77
g58
NtRp3883
(dp3884
g61
(dp3885
g81
g82
ssg70
g3879
sg63
(lp3886
g291
asbag56
(g77
g58
NtRp3887
(dp3888
g61
(dp3889
g88
g89
ssg70
g3879
sg63
(lp3890
S':'
asbag56
(g77
g58
NtRp3891
(dp3892
g61
(dp3893
sg70
g3879
sg63
(lp3894
g56
(g57
g58
NtRp3895
(dp3896
g61
(dp3897
g69
I3
ssg70
g3891
sg63
(lp3898
S''
asbasbasbag56
(g72
g58
NtRp3899
(dp3900
g61
(dp3901
sg70
g3855
sg63
(lp3902
g56
(g77
g58
NtRp3903
(dp3904
g61
(dp3905
g81
g82
ssg70
g3899
sg63
(lp3906
g312
asbag56
(g77
g58
NtRp3907
(dp3908
g61
(dp3909
g88
g89
ssg70
g3899
sg63
(lp3910
S':'
asbag56
(g77
g58
NtRp3911
(dp3912
g61
(dp3913
sg70
g3899
sg63
(lp3914
g56
(g57
g58
NtRp3915
(dp3916
g61
(dp3917
g69
I3
ssg70
g3911
sg63
(lp3918
S''
asbasbasbag56
(g72
g58
NtRp3919
(dp3920
g61
(dp3921
sg70
g3855
sg63
(lp3922
g56
(g77
g58
NtRp3923
(dp3924
g61
(dp3925
g81
g82
ssg70
g3919
sg63
(lp3926
g333
asbag56
(g77
g58
NtRp3927
(dp3928
g61
(dp3929
g88
g89
ssg70
g3919
sg63
(lp3930
S':'
asbag56
(g77
g58
NtRp3931
(dp3932
g61
(dp3933
sg70
g3919
sg63
(lp3934
g56
(g57
g58
NtRp3935
(dp3936
g61
(dp3937
g69
I3
ssg70
g3931
sg63
(lp3938
S''
asbasbasbag56
(g72
g58
NtRp3939
(dp3940
g61
(dp3941
sg70
g3855
sg63
(lp3942
g56
(g77
g58
NtRp3943
(dp3944
g61
(dp3945
g81
g82
ssg70
g3939
sg63
(lp3946
g354
asbag56
(g77
g58
NtRp3947
(dp3948
g61
(dp3949
g88
g89
ssg70
g3939
sg63
(lp3950
S':'
asbag56
(g77
g58
NtRp3951
(dp3952
g61
(dp3953
sg70
g3939
sg63
(lp3954
g56
(g57
g58
NtRp3955
(dp3956
g61
(dp3957
g69
I3
ssg70
g3951
sg63
(lp3958
S''
asbasbasbag56
(g72
g58
NtRp3959
(dp3960
g61
(dp3961
sg70
g3855
sg63
(lp3962
g56
(g77
g58
NtRp3963
(dp3964
g61
(dp3965
g81
g82
ssg70
g3959
sg63
(lp3966
g375
asbag56
(g77
g58
NtRp3967
(dp3968
g61
(dp3969
g88
g89
ssg70
g3959
sg63
(lp3970
S':'
asbag56
(g77
g58
NtRp3971
(dp3972
g61
(dp3973
sg70
g3959
sg63
(lp3974
g56
(g57
g58
NtRp3975
(dp3976
g61
(dp3977
g69
I3
ssg70
g3971
sg63
(lp3978
S'/'
asbasbasbag56
(g72
g58
NtRp3979
(dp3980
g61
(dp3981
sg70
g3855
sg63
(lp3982
g56
(g77
g58
NtRp3983
(dp3984
g61
(dp3985
g81
g82
ssg70
g3979
sg63
(lp3986
g396
asbag56
(g77
g58
NtRp3987
(dp3988
g61
(dp3989
g88
g89
ssg70
g3979
sg63
(lp3990
S':'
asbag56
(g77
g58
NtRp3991
(dp3992
g61
(dp3993
sg70
g3979
sg63
(lp3994
g56
(g57
g58
NtRp3995
(dp3996
g61
(dp3997
g69
I3
ssg70
g3991
sg63
(lp3998
S''
asbasbasbag56
(g72
g58
NtRp3999
(dp4000
g61
(dp4001
sg70
g3855
sg63
(lp4002
g56
(g77
g58
NtRp4003
(dp4004
g61
(dp4005
g81
g82
ssg70
g3999
sg63
(lp4006
g417
asbag56
(g77
g58
NtRp4007
(dp4008
g61
(dp4009
g88
g89
ssg70
g3999
sg63
(lp4010
S':'
asbag56
(g77
g58
NtRp4011
(dp4012
g61
(dp4013
sg70
g3999
sg63
(lp4014
g56
(g57
g58
NtRp4015
(dp4016
g61
(dp4017
g69
I3
ssg70
g4011
sg63
(lp4018
S''
asbasbasbasbasbasbasbasbasbasbasbag56
(g72
g58
NtRp4019
(dp4020
g61
(dp4021
sg70
g3785
sg63
(lp4022
g56
(g77
g58
NtRp4023
(dp4024
g61
(dp4025
g81
g82
ssg70
g4019
sg63
(lp4026
S'files'
p4027
asbag56
(g77
g58
NtRp4028
(dp4029
g61
(dp4030
g88
g89
ssg70
g4019
sg63
(lp4031
S':'
asbag56
(g77
g58
NtRp4032
(dp4033
g61
(dp4034
sg70
g4019
sg63
(lp4035
g56
(g57
g58
NtRp4036
(dp4037
g61
(dp4038
g69
I5
ssg70
g4032
sg63
(lp4039
g56
(g65
g58
NtRp4040
(dp4041
g61
(dp4042
g69
I4
ssg70
Nsg63
(lp4043
sbasbasbasbag56
(g72
g58
NtRp4044
(dp4045
g61
(dp4046
sg70
g3785
sg63
(lp4047
g56
(g77
g58
NtRp4048
(dp4049
g61
(dp4050
g81
g82
ssg70
g4044
sg63
(lp4051
S'flash'
p4052
asbag56
(g77
g58
NtRp4053
(dp4054
g61
(dp4055
g88
g89
ssg70
g4044
sg63
(lp4056
S':'
asbag56
(g77
g58
NtRp4057
(dp4058
g61
(dp4059
sg70
g4044
sg63
(lp4060
g56
(g57
g58
NtRp4061
(dp4062
g61
(dp4063
g69
I5
ssg70
g4057
sg63
(lp4064
S''
asbasbasbag56
(g72
g58
NtRp4065
(dp4066
g61
(dp4067
sg70
g3785
sg63
(lp4068
g56
(g77
g58
NtRp4069
(dp4070
g61
(dp4071
g81
g82
ssg70
g4065
sg63
(lp4072
S'generic_patterns'
p4073
asbag56
(g77
g58
NtRp4074
(dp4075
g61
(dp4076
g88
g89
ssg70
g4065
sg63
(lp4077
S':'
asbag56
(g77
g58
NtRp4078
(dp4079
g61
(dp4080
sg70
g4065
sg63
(lp4081
g56
(g57
g58
NtRp4082
(dp4083
g61
(dp4084
g69
I5
ssg70
g4078
sg63
(lp4085
g56
(g65
g58
NtRp4086
(dp4087
g61
(dp4088
g69
I4
ssg70
Nsg63
(lp4089
g56
(g72
g58
NtRp4090
(dp4091
g61
(dp4092
sg70
g4086
sg63
(lp4093
g56
(g77
g58
NtRp4094
(dp4095
g61
(dp4096
sg70
g4090
sg63
(lp4097
g56
(g57
g58
NtRp4098
(dp4099
g61
(dp4100
g69
I4
ssg70
g4094
sg63
(lp4101
S'*'
asbasbasbasbasbasbasbag56
(g72
g58
NtRp4102
(dp4103
g61
(dp4104
sg70
g3785
sg63
(lp4105
g56
(g77
g58
NtRp4106
(dp4107
g61
(dp4108
g81
g82
ssg70
g4102
sg63
(lp4109
S'headers'
p4110
asbag56
(g77
g58
NtRp4111
(dp4112
g61
(dp4113
g88
g89
ssg70
g4102
sg63
(lp4114
S':'
asbag56
(g77
g58
NtRp4115
(dp4116
g61
(dp4117
sg70
g4102
sg63
(lp4118
g56
(g57
g58
NtRp4119
(dp4120
g61
(dp4121
g69
I5
ssg70
g4115
sg63
(lp4122
g56
(g65
g58
NtRp4123
(dp4124
g61
(dp4125
g69
I4
ssg70
Nsg63
(lp4126
g56
(g72
g58
NtRp4127
(dp4128
g61
(dp4129
sg70
g4123
sg63
(lp4130
g56
(g77
g58
NtRp4131
(dp4132
g61
(dp4133
g81
g82
ssg70
g4127
sg63
(lp4134
S'Cache-Control'
p4135
asbag56
(g77
g58
NtRp4136
(dp4137
g61
(dp4138
g88
g89
ssg70
g4127
sg63
(lp4139
S':'
asbag56
(g77
g58
NtRp4140
(dp4141
g61
(dp4142
sg70
g4127
sg63
(lp4143
g56
(g57
g58
NtRp4144
(dp4145
g61
(dp4146
g69
I4
ssg70
g4140
sg63
(lp4147
S'no-store, no-cache, must-revalidate, post-check=0, pre-check=0'
p4148
asbasbasbag56
(g72
g58
NtRp4149
(dp4150
g61
(dp4151
sg70
g4123
sg63
(lp4152
g56
(g77
g58
NtRp4153
(dp4154
g61
(dp4155
g81
g82
ssg70
g4149
sg63
(lp4156
S'Content-Type'
p4157
asbag56
(g77
g58
NtRp4158
(dp4159
g61
(dp4160
g88
g89
ssg70
g4149
sg63
(lp4161
S':'
asbag56
(g77
g58
NtRp4162
(dp4163
g61
(dp4164
sg70
g4149
sg63
(lp4165
g56
(g57
g58
NtRp4166
(dp4167
g61
(dp4168
g69
I4
ssg70
g4162
sg63
(lp4169
S'text/html; charset=utf-8'
p4170
asbasbasbag56
(g72
g58
NtRp4171
(dp4172
g61
(dp4173
sg70
g4123
sg63
(lp4174
g56
(g77
g58
NtRp4175
(dp4176
g61
(dp4177
g81
g82
ssg70
g4171
sg63
(lp4178
S'Expires'
p4179
asbag56
(g77
g58
NtRp4180
(dp4181
g61
(dp4182
g88
g89
ssg70
g4171
sg63
(lp4183
S':'
asbag56
(g77
g58
NtRp4184
(dp4185
g61
(dp4186
sg70
g4171
sg63
(lp4187
g56
(g57
g58
NtRp4188
(dp4189
g61
(dp4190
g69
I4
ssg70
g4184
sg63
(lp4191
S'Sun, 15 May 2016 09:06:11 GMT'
p4192
asbasbasbag56
(g72
g58
NtRp4193
(dp4194
g61
(dp4195
sg70
g4123
sg63
(lp4196
g56
(g77
g58
NtRp4197
(dp4198
g61
(dp4199
g81
g82
ssg70
g4193
sg63
(lp4200
S'Pragma'
p4201
asbag56
(g77
g58
NtRp4202
(dp4203
g61
(dp4204
g88
g89
ssg70
g4193
sg63
(lp4205
S':'
asbag56
(g77
g58
NtRp4206
(dp4207
g61
(dp4208
sg70
g4193
sg63
(lp4209
g56
(g57
g58
NtRp4210
(dp4211
g61
(dp4212
g69
I4
ssg70
g4206
sg63
(lp4213
S'no-cache'
p4214
asbasbasbag56
(g72
g58
NtRp4215
(dp4216
g61
(dp4217
sg70
g4123
sg63
(lp4218
g56
(g77
g58
NtRp4219
(dp4220
g61
(dp4221
g81
g82
ssg70
g4215
sg63
(lp4222
S'X-Powered-By'
p4223
asbag56
(g77
g58
NtRp4224
(dp4225
g61
(dp4226
g88
g89
ssg70
g4215
sg63
(lp4227
S':'
asbag56
(g77
g58
NtRp4228
(dp4229
g61
(dp4230
sg70
g4215
sg63
(lp4231
g56
(g57
g58
NtRp4232
(dp4233
g61
(dp4234
g69
I4
ssg70
g4228
sg63
(lp4235
S'web2py'
p4236
asbasbasbasbasbasbasbag56
(g72
g58
NtRp4237
(dp4238
g61
(dp4239
sg70
g3785
sg63
(lp4240
g56
(g77
g58
NtRp4241
(dp4242
g61
(dp4243
g81
g82
ssg70
g4237
sg63
(lp4244
S'menu'
p4245
asbag56
(g77
g58
NtRp4246
(dp4247
g61
(dp4248
g88
g89
ssg70
g4237
sg63
(lp4249
S':'
asbag56
(g77
g58
NtRp4250
(dp4251
g61
(dp4252
sg70
g4237
sg63
(lp4253
g56
(g57
g58
NtRp4254
(dp4255
g61
(dp4256
g69
I5
ssg70
g4250
sg63
(lp4257
g56
(g65
g58
NtRp4258
(dp4259
g61
(dp4260
g69
I4
ssg70
Nsg63
(lp4261
g56
(g72
g58
NtRp4262
(dp4263
g61
(dp4264
sg70
g4258
sg63
(lp4265
g56
(g77
g58
NtRp4266
(dp4267
g61
(dp4268
sg70
g4262
sg63
(lp4269
g56
(g57
g58
NtRp4270
(dp4271
g61
(dp4272
g69
I4
ssg70
g4266
sg63
(lp4273
g56
(g65
g58
NtRp4274
(dp4275
g61
(dp4276
g69
I3
ssg70
Nsg63
(lp4277
g56
(g72
g58
NtRp4278
(dp4279
g61
(dp4280
sg70
g4274
sg63
(lp4281
g56
(g77
g58
NtRp4282
(dp4283
g61
(dp4284
sg70
g4278
sg63
(lp4285
g56
(g57
g58
NtRp4286
(dp4287
g61
(dp4288
g69
I3
ssg70
g4282
sg63
(lp4289
cgluon.languages
lazyT_unpickle
p4290
(S't\x04\x00\x00\x00Home'
tRp4291
asbasbasbag56
(g72
g58
NtRp4292
(dp4293
g61
(dp4294
sg70
g4274
sg63
(lp4295
g56
(g77
g58
NtRp4296
(dp4297
g61
(dp4298
sg70
g4292
sg63
(lp4299
g56
(g57
g58
NtRp4300
(dp4301
g61
(dp4302
g69
I3
ssg70
g4296
sg63
(lp4303
g99
asbasbasbag56
(g72
g58
NtRp4304
(dp4305
g61
(dp4306
sg70
g4274
sg63
(lp4307
g56
(g77
g58
NtRp4308
(dp4309
g61
(dp4310
sg70
g4304
sg63
(lp4311
g56
(g57
g58
NtRp4312
(dp4313
g61
(dp4314
g69
I3
ssg70
g4308
sg63
(lp4315
S'/blogpost/default/index'
p4316
asbasbasbag56
(g72
g58
NtRp4317
(dp4318
g61
(dp4319
sg70
g4274
sg63
(lp4320
g56
(g77
g58
NtRp4321
(dp4322
g61
(dp4323
sg70
g4317
sg63
(lp4324
g56
(g57
g58
NtRp4325
(dp4326
g61
(dp4327
g69
I3
ssg70
g4321
sg63
(lp4328
g56
(g65
g58
NtRp4329
(dp4330
g61
(dp4331
g69
I2
ssg70
Nsg63
(lp4332
sbasbasbasbasbasbasbasbag56
(g72
g58
NtRp4333
(dp4334
g61
(dp4335
sg70
g4258
sg63
(lp4336
g56
(g77
g58
NtRp4337
(dp4338
g61
(dp4339
sg70
g4333
sg63
(lp4340
g56
(g57
g58
NtRp4341
(dp4342
g61
(dp4343
g69
I4
ssg70
g4337
sg63
(lp4344
g56
(g65
g58
NtRp4345
(dp4346
g61
(dp4347
g69
I3
ssg70
Nsg63
(lp4348
g56
(g72
g58
NtRp4349
(dp4350
g61
(dp4351
sg70
g4345
sg63
(lp4352
g56
(g77
g58
NtRp4353
(dp4354
g61
(dp4355
sg70
g4349
sg63
(lp4356
g56
(g57
g58
NtRp4357
(dp4358
g61
(dp4359
g69
I3
ssg70
g4353
sg63
(lp4360
g56
(cgluon.html
SPAN
p4361
g58
NtRp4362
(dp4363
g61
(dp4364
g81
S'color:yellow'
p4365
ssg70
Nsg63
(lp4366
g4236
asbasbasbasbag56
(g72
g58
NtRp4367
(dp4368
g61
(dp4369
sg70
g4345
sg63
(lp4370
g56
(g77
g58
NtRp4371
(dp4372
g61
(dp4373
sg70
g4367
sg63
(lp4374
g56
(g57
g58
NtRp4375
(dp4376
g61
(dp4377
g69
I3
ssg70
g4371
sg63
(lp4378
g99
asbasbasbag56
(g72
g58
NtRp4379
(dp4380
g61
(dp4381
sg70
g4345
sg63
(lp4382
g56
(g77
g58
NtRp4383
(dp4384
g61
(dp4385
sg70
g4379
sg63
(lp4386
g56
(g57
g58
NtRp4387
(dp4388
g61
(dp4389
g69
I3
ssg70
g4383
sg63
(lp4390
S'None'
p4391
asbasbasbag56
(g72
g58
NtRp4392
(dp4393
g61
(dp4394
sg70
g4345
sg63
(lp4395
g56
(g77
g58
NtRp4396
(dp4397
g61
(dp4398
sg70
g4392
sg63
(lp4399
g56
(g57
g58
NtRp4400
(dp4401
g61
(dp4402
g69
I3
ssg70
g4396
sg63
(lp4403
g56
(g65
g58
NtRp4404
(dp4405
g61
(dp4406
g69
I2
ssg70
Nsg63
(lp4407
g56
(g72
g58
NtRp4408
(dp4409
g61
(dp4410
sg70
g4404
sg63
(lp4411
g56
(g77
g58
NtRp4412
(dp4413
g61
(dp4414
sg70
g4408
sg63
(lp4415
g56
(g57
g58
NtRp4416
(dp4417
g61
(dp4418
g69
I2
ssg70
g4412
sg63
(lp4419
g56
(g65
g58
NtRp4420
(dp4421
g61
(dp4422
g69
I1
ssg70
Nsg63
(lp4423
g56
(g72
g58
NtRp4424
(dp4425
g61
(dp4426
sg70
g4420
sg63
(lp4427
g56
(g77
g58
NtRp4428
(dp4429
g61
(dp4430
sg70
g4424
sg63
(lp4431
g56
(g57
g58
NtRp4432
(dp4433
g61
(dp4434
g69
I1
ssg70
g4428
sg63
(lp4435
g4290
(S's\x08\x00\x00\x00My Sites'
tRp4436
asbasbasbag56
(g72
g58
NtRp4437
(dp4438
g61
(dp4439
sg70
g4420
sg63
(lp4440
g56
(g77
g58
NtRp4441
(dp4442
g61
(dp4443
sg70
g4437
sg63
(lp4444
g56
(g57
g58
NtRp4445
(dp4446
g61
(dp4447
g69
I1
ssg70
g4441
sg63
(lp4448
I00
asbasbasbag56
(g72
g58
NtRp4449
(dp4450
g61
(dp4451
sg70
g4420
sg63
(lp4452
g56
(g77
g58
NtRp4453
(dp4454
g61
(dp4455
sg70
g4449
sg63
(lp4456
g56
(g57
g58
NtRp4457
(dp4458
g61
(dp4459
g69
I1
ssg70
g4453
sg63
(lp4460
S'/admin/default/site'
p4461
asbasbasbasbasbasbasbag56
(g72
g58
NtRp4462
(dp4463
g61
(dp4464
sg70
g4404
sg63
(lp4465
g56
(g77
g58
NtRp4466
(dp4467
g61
(dp4468
sg70
g4462
sg63
(lp4469
g56
(g57
g58
NtRp4470
(dp4471
g61
(dp4472
g69
I2
ssg70
g4466
sg63
(lp4473
g56
(g65
g58
NtRp4474
(dp4475
g61
(dp4476
g69
I1
ssg70
Nsg63
(lp4477
g56
(g72
g58
NtRp4478
(dp4479
g61
(dp4480
sg70
g4474
sg63
(lp4481
g56
(g77
g58
NtRp4482
(dp4483
g61
(dp4484
sg70
g4478
sg63
(lp4485
g56
(g57
g58
NtRp4486
(dp4487
g61
(dp4488
g69
I1
ssg70
g4482
sg63
(lp4489
g4290
(S's\x08\x00\x00\x00This App'
tRp4490
asbasbasbag56
(g72
g58
NtRp4491
(dp4492
g61
(dp4493
sg70
g4474
sg63
(lp4494
g56
(g77
g58
NtRp4495
(dp4496
g61
(dp4497
sg70
g4491
sg63
(lp4498
g56
(g57
g58
NtRp4499
(dp4500
g61
(dp4501
g69
I1
ssg70
g4495
sg63
(lp4502
I00
asbasbasbag56
(g72
g58
NtRp4503
(dp4504
g61
(dp4505
sg70
g4474
sg63
(lp4506
g56
(g77
g58
NtRp4507
(dp4508
g61
(dp4509
sg70
g4503
sg63
(lp4510
g56
(g57
g58
NtRp4511
(dp4512
g61
(dp4513
g69
I1
ssg70
g4507
sg63
(lp4514
S'/admin/default/design/blogpost'
p4515
asbasbasbag56
(g72
g58
NtRp4516
(dp4517
g61
(dp4518
sg70
g4474
sg63
(lp4519
g56
(g77
g58
NtRp4520
(dp4521
g61
(dp4522
sg70
g4516
sg63
(lp4523
g56
(g57
g58
NtRp4524
(dp4525
g61
(dp4526
g69
I1
ssg70
g4520
sg63
(lp4527
(lp4528
(g4290
(S't\n\x00\x00\x00Controller'
tRp4529
I00
S'/admin/default/edit/blogpost/controllers/default.py'
tp4530
a(g4290
(S't\x04\x00\x00\x00View'
tRp4531
I00
S'/admin/default/edit/blogpost/views/default/show.html'
tp4532
a(g4290
(S't\x06\x00\x00\x00Layout'
tRp4533
I00
S'/admin/default/edit/blogpost/views/layout.html'
tp4534
a(g4290
(S't\n\x00\x00\x00Stylesheet'
tRp4535
I00
S'/admin/default/edit/blogpost/static/css/web2py.css'
tp4536
a(g4290
(S's\x08\x00\x00\x00DB Model'
tRp4537
I00
S'/admin/default/edit/blogpost/models/db.py'
tp4538
a(g4290
(S's\n\x00\x00\x00Menu Model'
tRp4539
I00
S'/admin/default/edit/blogpost/models/menu.py'
tp4540
a(g4290
(S't\x08\x00\x00\x00Database'
tRp4541
I00
S'/blogpost/appadmin/index'
tp4542
a(g4290
(S't\x06\x00\x00\x00Errors'
tRp4543
I00
S'/admin/default/errors/blogpost'
tp4544
a(g4290
(S't\x05\x00\x00\x00About'
tRp4545
I00
S'/admin/default/about/blogpost'
tp4546
aasbasbasbasbasbasbasbag56
(g72
g58
NtRp4547
(dp4548
g61
(dp4549
sg70
g4404
sg63
(lp4550
g56
(g77
g58
NtRp4551
(dp4552
g61
(dp4553
sg70
g4547
sg63
(lp4554
g56
(g57
g58
NtRp4555
(dp4556
g61
(dp4557
g69
I2
ssg70
g4551
sg63
(lp4558
g56
(g65
g58
NtRp4559
(dp4560
g61
(dp4561
g69
I1
ssg70
Nsg63
(lp4562
g56
(g72
g58
NtRp4563
(dp4564
g61
(dp4565
sg70
g4559
sg63
(lp4566
g56
(g77
g58
NtRp4567
(dp4568
g61
(dp4569
sg70
g4563
sg63
(lp4570
g56
(g57
g58
NtRp4571
(dp4572
g61
(dp4573
g69
I1
ssg70
g4567
sg63
(lp4574
S'web2py.com'
p4575
asbasbasbag56
(g72
g58
NtRp4576
(dp4577
g61
(dp4578
sg70
g4559
sg63
(lp4579
g56
(g77
g58
NtRp4580
(dp4581
g61
(dp4582
sg70
g4576
sg63
(lp4583
g56
(g57
g58
NtRp4584
(dp4585
g61
(dp4586
g69
I1
ssg70
g4580
sg63
(lp4587
I00
asbasbasbag56
(g72
g58
NtRp4588
(dp4589
g61
(dp4590
sg70
g4559
sg63
(lp4591
g56
(g77
g58
NtRp4592
(dp4593
g61
(dp4594
sg70
g4588
sg63
(lp4595
g56
(g57
g58
NtRp4596
(dp4597
g61
(dp4598
g69
I1
ssg70
g4592
sg63
(lp4599
S'http://www.web2py.com'
p4600
asbasbasbag56
(g72
g58
NtRp4601
(dp4602
g61
(dp4603
sg70
g4559
sg63
(lp4604
g56
(g77
g58
NtRp4605
(dp4606
g61
(dp4607
sg70
g4601
sg63
(lp4608
g56
(g57
g58
NtRp4609
(dp4610
g61
(dp4611
g69
I1
ssg70
g4605
sg63
(lp4612
(lp4613
(g4290
(S't\x08\x00\x00\x00Download'
tRp4614
I00
S'http://www.web2py.com/examples/default/download'
p4615
tp4616
a(g4290
(S't\x07\x00\x00\x00Support'
tRp4617
I00
S'http://www.web2py.com/examples/default/support'
p4618
tp4619
a(g4290
(S't\x04\x00\x00\x00Demo'
tRp4620
I00
S'http://web2py.com/demo_admin'
p4621
tp4622
a(g4290
(S's\x0e\x00\x00\x00Quick Examples'
tRp4623
I00
S'http://web2py.com/examples/default/examples'
p4624
tp4625
a(g4290
(S't\x03\x00\x00\x00FAQ'
tRp4626
I00
S'http://web2py.com/AlterEgo'
p4627
tp4628
a(g4290
(S't\x06\x00\x00\x00Videos'
tRp4629
I00
S'http://www.web2py.com/examples/default/videos/'
p4630
tp4631
a(g4290
(S's\x11\x00\x00\x00Free Applications'
tRp4632
I00
S'http://web2py.com/appliances'
p4633
tp4634
a(g4290
(S't\x07\x00\x00\x00Plugins'
tRp4635
I00
S'http://web2py.com/plugins'
p4636
tp4637
a(g4290
(S't\x07\x00\x00\x00Layouts'
tRp4638
I00
S'http://web2py.com/layouts'
p4639
tp4640
a(g4290
(S't\x07\x00\x00\x00Recipes'
tRp4641
I00
S'http://web2pyslices.com/'
p4642
tp4643
a(g4290
(S't\x08\x00\x00\x00Semantic'
tRp4644
I00
S'http://web2py.com/semantic'
p4645
tp4646
aasbasbasbasbasbasbasbag56
(g72
g58
NtRp4647
(dp4648
g61
(dp4649
sg70
g4404
sg63
(lp4650
g56
(g77
g58
NtRp4651
(dp4652
g61
(dp4653
sg70
g4647
sg63
(lp4654
g56
(g57
g58
NtRp4655
(dp4656
g61
(dp4657
g69
I2
ssg70
g4651
sg63
(lp4658
g56
(g65
g58
NtRp4659
(dp4660
g61
(dp4661
g69
I1
ssg70
Nsg63
(lp4662
g56
(g72
g58
NtRp4663
(dp4664
g61
(dp4665
sg70
g4659
sg63
(lp4666
g56
(g77
g58
NtRp4667
(dp4668
g61
(dp4669
sg70
g4663
sg63
(lp4670
g56
(g57
g58
NtRp4671
(dp4672
g61
(dp4673
g69
I1
ssg70
g4667
sg63
(lp4674
g4290
(S't\r\x00\x00\x00Documentation'
tRp4675
asbasbasbag56
(g72
g58
NtRp4676
(dp4677
g61
(dp4678
sg70
g4659
sg63
(lp4679
g56
(g77
g58
NtRp4680
(dp4681
g61
(dp4682
sg70
g4676
sg63
(lp4683
g56
(g57
g58
NtRp4684
(dp4685
g61
(dp4686
g69
I1
ssg70
g4680
sg63
(lp4687
I00
asbasbasbag56
(g72
g58
NtRp4688
(dp4689
g61
(dp4690
sg70
g4659
sg63
(lp4691
g56
(g77
g58
NtRp4692
(dp4693
g61
(dp4694
sg70
g4688
sg63
(lp4695
g56
(g57
g58
NtRp4696
(dp4697
g61
(dp4698
g69
I1
ssg70
g4692
sg63
(lp4699
S'http://www.web2py.com/book'
p4700
asbasbasbag56
(g72
g58
NtRp4701
(dp4702
g61
(dp4703
sg70
g4659
sg63
(lp4704
g56
(g77
g58
NtRp4705
(dp4706
g61
(dp4707
sg70
g4701
sg63
(lp4708
g56
(g57
g58
NtRp4709
(dp4710
g61
(dp4711
g69
I1
ssg70
g4705
sg63
(lp4712
(lp4713
(g4290
(S't\x07\x00\x00\x00Preface'
tRp4714
I00
S'http://www.web2py.com/book/default/chapter/00'
p4715
tp4716
a(g4290
(S't\x0c\x00\x00\x00Introduction'
tRp4717
I00
S'http://www.web2py.com/book/default/chapter/01'
p4718
tp4719
a(g4290
(S't\x06\x00\x00\x00Python'
tRp4720
I00
S'http://www.web2py.com/book/default/chapter/02'
p4721
tp4722
a(g4290
(S't\x08\x00\x00\x00Overview'
tRp4723
I00
S'http://www.web2py.com/book/default/chapter/03'
p4724
tp4725
a(g4290
(S's\x08\x00\x00\x00The Core'
tRp4726
I00
S'http://www.web2py.com/book/default/chapter/04'
p4727
tp4728
a(g4290
(S's\t\x00\x00\x00The Views'
tRp4729
I00
S'http://www.web2py.com/book/default/chapter/05'
p4730
tp4731
a(g4290
(S't\x08\x00\x00\x00Database'
tRp4732
I00
S'http://www.web2py.com/book/default/chapter/06'
p4733
tp4734
a(g4290
(S's\x14\x00\x00\x00Forms and Validators'
tRp4735
I00
S'http://www.web2py.com/book/default/chapter/07'
p4736
tp4737
a(g4290
(S's\r\x00\x00\x00Email and SMS'
tRp4738
I00
S'http://www.web2py.com/book/default/chapter/08'
p4739
tp4740
a(g4290
(S's\x0e\x00\x00\x00Access Control'
tRp4741
I00
S'http://www.web2py.com/book/default/chapter/09'
p4742
tp4743
a(g4290
(S't\x08\x00\x00\x00Services'
tRp4744
I00
S'http://www.web2py.com/book/default/chapter/10'
p4745
tp4746
a(g4290
(S's\x0c\x00\x00\x00Ajax Recipes'
tRp4747
I00
S'http://www.web2py.com/book/default/chapter/11'
p4748
tp4749
a(g4290
(S's\x16\x00\x00\x00Components and Plugins'
tRp4750
I00
S'http://www.web2py.com/book/default/chapter/12'
p4751
tp4752
a(g4290
(S's\x12\x00\x00\x00Deployment Recipes'
tRp4753
I00
S'http://www.web2py.com/book/default/chapter/13'
p4754
tp4755
a(g4290
(S's\r\x00\x00\x00Other Recipes'
tRp4756
I00
S'http://www.web2py.com/book/default/chapter/14'
p4757
tp4758
a(g4290
(S's\r\x00\x00\x00Buy this book'
tRp4759
I00
S'http://stores.lulu.com/web2py'
p4760
tp4761
aasbasbasbasbasbasbasbag56
(g72
g58
NtRp4762
(dp4763
g61
(dp4764
sg70
g4404
sg63
(lp4765
g56
(g77
g58
NtRp4766
(dp4767
g61
(dp4768
sg70
g4762
sg63
(lp4769
g56
(g57
g58
NtRp4770
(dp4771
g61
(dp4772
g69
I2
ssg70
g4766
sg63
(lp4773
g56
(g65
g58
NtRp4774
(dp4775
g61
(dp4776
g69
I1
ssg70
Nsg63
(lp4777
g56
(g72
g58
NtRp4778
(dp4779
g61
(dp4780
sg70
g4774
sg63
(lp4781
g56
(g77
g58
NtRp4782
(dp4783
g61
(dp4784
sg70
g4778
sg63
(lp4785
g56
(g57
g58
NtRp4786
(dp4787
g61
(dp4788
g69
I1
ssg70
g4782
sg63
(lp4789
g4290
(S't\t\x00\x00\x00Community'
tRp4790
asbasbasbag56
(g72
g58
NtRp4791
(dp4792
g61
(dp4793
sg70
g4774
sg63
(lp4794
g56
(g77
g58
NtRp4795
(dp4796
g61
(dp4797
sg70
g4791
sg63
(lp4798
g56
(g57
g58
NtRp4799
(dp4800
g61
(dp4801
g69
I1
ssg70
g4795
sg63
(lp4802
I00
asbasbasbag56
(g72
g58
NtRp4803
(dp4804
g61
(dp4805
sg70
g4774
sg63
(lp4806
g56
(g77
g58
NtRp4807
(dp4808
g61
(dp4809
sg70
g4803
sg63
(lp4810
g56
(g57
g58
NtRp4811
(dp4812
g61
(dp4813
g69
I1
ssg70
g4807
sg63
(lp4814
Nasbasbasbag56
(g72
g58
NtRp4815
(dp4816
g61
(dp4817
sg70
g4774
sg63
(lp4818
g56
(g77
g58
NtRp4819
(dp4820
g61
(dp4821
sg70
g4815
sg63
(lp4822
g56
(g57
g58
NtRp4823
(dp4824
g61
(dp4825
g69
I1
ssg70
g4819
sg63
(lp4826
(lp4827
(g4290
(S't\x06\x00\x00\x00Groups'
tRp4828
I00
S'http://www.web2py.com/examples/default/usergroups'
p4829
tp4830
a(g4290
(S't\x07\x00\x00\x00Twitter'
tRp4831
I00
S'http://twitter.com/web2py'
p4832
tp4833
a(g4290
(S's\t\x00\x00\x00Live Chat'
tRp4834
I00
S'http://webchat.freenode.net/?channels=web2py'
p4835
tp4836
aasbasbasbasbasbasbasbag56
(g72
g58
NtRp4837
(dp4838
g61
(dp4839
sg70
g4404
sg63
(lp4840
g56
(g77
g58
NtRp4841
(dp4842
g61
(dp4843
sg70
g4837
sg63
(lp4844
g56
(g57
g58
NtRp4845
(dp4846
g61
(dp4847
g69
I2
ssg70
g4841
sg63
(lp4848
g56
(g65
g58
NtRp4849
(dp4850
g61
(dp4851
g69
I1
ssg70
Nsg63
(lp4852
g56
(g72
g58
NtRp4853
(dp4854
g61
(dp4855
sg70
g4849
sg63
(lp4856
g56
(g77
g58
NtRp4857
(dp4858
g61
(dp4859
sg70
g4853
sg63
(lp4860
g56
(g57
g58
NtRp4861
(dp4862
g61
(dp4863
g69
I1
ssg70
g4857
sg63
(lp4864
g4290
(S't\x07\x00\x00\x00Plugins'
tRp4865
asbasbasbag56
(g72
g58
NtRp4866
(dp4867
g61
(dp4868
sg70
g4849
sg63
(lp4869
g56
(g77
g58
NtRp4870
(dp4871
g61
(dp4872
sg70
g4866
sg63
(lp4873
g56
(g57
g58
NtRp4874
(dp4875
g61
(dp4876
g69
I1
ssg70
g4870
sg63
(lp4877
I00
asbasbasbag56
(g72
g58
NtRp4878
(dp4879
g61
(dp4880
sg70
g4849
sg63
(lp4881
g56
(g77
g58
NtRp4882
(dp4883
g61
(dp4884
sg70
g4878
sg63
(lp4885
g56
(g57
g58
NtRp4886
(dp4887
g61
(dp4888
g69
I1
ssg70
g4882
sg63
(lp4889
Nasbasbasbag56
(g72
g58
NtRp4890
(dp4891
g61
(dp4892
sg70
g4849
sg63
(lp4893
g56
(g77
g58
NtRp4894
(dp4895
g61
(dp4896
sg70
g4890
sg63
(lp4897
g56
(g57
g58
NtRp4898
(dp4899
g61
(dp4900
g69
I1
ssg70
g4894
sg63
(lp4901
(lp4902
(S'plugin_wiki'
p4903
I00
S'http://web2py.com/examples/default/download'
p4904
tp4905
a(g4290
(S's\r\x00\x00\x00Other Plugins'
tRp4906
I00
g4636
tp4907
a(g4290
(S's\x0e\x00\x00\x00Layout Plugins'
tRp4908
I00
g4639
tp4909
aasbasbasbasbasbasbasbasbasbasbasbasbasbasbasbasbasbasbasbag56
(g72
g58
NtRp4910
(dp4911
g61
(dp4912
sg70
g3785
sg63
(lp4913
g56
(g77
g58
NtRp4914
(dp4915
g61
(dp4916
g81
g82
ssg70
g4910
sg63
(lp4917
S'meta'
p4918
asbag56
(g77
g58
NtRp4919
(dp4920
g61
(dp4921
g88
g89
ssg70
g4910
sg63
(lp4922
S':'
asbag56
(g77
g58
NtRp4923
(dp4924
g61
(dp4925
sg70
g4910
sg63
(lp4926
g56
(g57
g58
NtRp4927
(dp4928
g61
(dp4929
g69
I5
ssg70
g4923
sg63
(lp4930
g56
(g65
g58
NtRp4931
(dp4932
g61
(dp4933
g69
I4
ssg70
Nsg63
(lp4934
g56
(g72
g58
NtRp4935
(dp4936
g61
(dp4937
sg70
g4931
sg63
(lp4938
g56
(g77
g58
NtRp4939
(dp4940
g61
(dp4941
g81
g82
ssg70
g4935
sg63
(lp4942
S'author'
p4943
asbag56
(g77
g58
NtRp4944
(dp4945
g61
(dp4946
g88
g89
ssg70
g4935
sg63
(lp4947
S':'
asbag56
(g77
g58
NtRp4948
(dp4949
g61
(dp4950
sg70
g4935
sg63
(lp4951
g56
(g57
g58
NtRp4952
(dp4953
g61
(dp4954
g69
I4
ssg70
g4948
sg63
(lp4955
S'Your Name <you@example.com>'
p4956
asbasbasbag56
(g72
g58
NtRp4957
(dp4958
g61
(dp4959
sg70
g4931
sg63
(lp4960
g56
(g77
g58
NtRp4961
(dp4962
g61
(dp4963
g81
g82
ssg70
g4957
sg63
(lp4964
S'copyright'
p4965
asbag56
(g77
g58
NtRp4966
(dp4967
g61
(dp4968
g88
g89
ssg70
g4957
sg63
(lp4969
S':'
asbag56
(g77
g58
NtRp4970
(dp4971
g61
(dp4972
sg70
g4957
sg63
(lp4973
g56
(g57
g58
NtRp4974
(dp4975
g61
(dp4976
g69
I4
ssg70
g4970
sg63
(lp4977
S'Copyright 2011'
p4978
asbasbasbag56
(g72
g58
NtRp4979
(dp4980
g61
(dp4981
sg70
g4931
sg63
(lp4982
g56
(g77
g58
NtRp4983
(dp4984
g61
(dp4985
g81
g82
ssg70
g4979
sg63
(lp4986
S'description'
p4987
asbag56
(g77
g58
NtRp4988
(dp4989
g61
(dp4990
g88
g89
ssg70
g4979
sg63
(lp4991
S':'
asbag56
(g77
g58
NtRp4992
(dp4993
g61
(dp4994
sg70
g4979
sg63
(lp4995
g56
(g57
g58
NtRp4996
(dp4997
g61
(dp4998
g69
I4
ssg70
g4992
sg63
(lp4999
S'a cool new app'
p5000
asbasbasbag56
(g72
g58
NtRp5001
(dp5002
g61
(dp5003
sg70
g4931
sg63
(lp5004
g56
(g77
g58
NtRp5005
(dp5006
g61
(dp5007
g81
g82
ssg70
g5001
sg63
(lp5008
S'generator'
p5009
asbag56
(g77
g58
NtRp5010
(dp5011
g61
(dp5012
g88
g89
ssg70
g5001
sg63
(lp5013
S':'
asbag56
(g77
g58
NtRp5014
(dp5015
g61
(dp5016
sg70
g5001
sg63
(lp5017
g56
(g57
g58
NtRp5018
(dp5019
g61
(dp5020
g69
I4
ssg70
g5014
sg63
(lp5021
S'Web2py Web Framework'
p5022
asbasbasbag56
(g72
g58
NtRp5023
(dp5024
g61
(dp5025
sg70
g4931
sg63
(lp5026
g56
(g77
g58
NtRp5027
(dp5028
g61
(dp5029
g81
g82
ssg70
g5023
sg63
(lp5030
S'keywords'
p5031
asbag56
(g77
g58
NtRp5032
(dp5033
g61
(dp5034
g88
g89
ssg70
g5023
sg63
(lp5035
S':'
asbag56
(g77
g58
NtRp5036
(dp5037
g61
(dp5038
sg70
g5023
sg63
(lp5039
g56
(g57
g58
NtRp5040
(dp5041
g61
(dp5042
g69
I4
ssg70
g5036
sg63
(lp5043
S'web2py, python, framework'
p5044
asbasbasbasbasbasbasbag56
(g72
g58
NtRp5045
(dp5046
g61
(dp5047
sg70
g3785
sg63
(lp5048
g56
(g77
g58
NtRp5049
(dp5050
g61
(dp5051
g81
g82
ssg70
g5045
sg63
(lp5052
S'postprocessing'
p5053
asbag56
(g77
g58
NtRp5054
(dp5055
g61
(dp5056
g88
g89
ssg70
g5045
sg63
(lp5057
S':'
asbag56
(g77
g58
NtRp5058
(dp5059
g61
(dp5060
sg70
g5045
sg63
(lp5061
g56
(g57
g58
NtRp5062
(dp5063
g61
(dp5064
g69
I5
ssg70
g5058
sg63
(lp5065
g56
(g65
g58
NtRp5066
(dp5067
g61
(dp5068
g69
I4
ssg70
Nsg63
(lp5069
sbasbasbasbag56
(g72
g58
NtRp5070
(dp5071
g61
(dp5072
sg70
g3785
sg63
(lp5073
g56
(g77
g58
NtRp5074
(dp5075
g61
(dp5076
g81
g82
ssg70
g5070
sg63
(lp5077
S'session_file'
p5078
asbag56
(g77
g58
NtRp5079
(dp5080
g61
(dp5081
g88
g89
ssg70
g5070
sg63
(lp5082
S':'
asbag56
(g77
g58
NtRp5083
(dp5084
g61
(dp5085
sg70
g5070
sg63
(lp5086
g56
(g57
g58
NtRp5087
(dp5088
g61
(dp5089
g69
I5
ssg70
g5083
sg63
(lp5090
S"<open file '/home/mukul/web2py/applications/blogpost/sessions/127.0.0.1-bcd64a48-cdf0-42c4-b6ce-38fdcd520e45', mode 'rb+' at 0xa900390>"
p5091
asbasbasbag56
(g72
g58
NtRp5092
(dp5093
g61
(dp5094
sg70
g3785
sg63
(lp5095
g56
(g77
g58
NtRp5096
(dp5097
g61
(dp5098
g81
g82
ssg70
g5092
sg63
(lp5099
S'session_filename'
p5100
asbag56
(g77
g58
NtRp5101
(dp5102
g61
(dp5103
g88
g89
ssg70
g5092
sg63
(lp5104
S':'
asbag56
(g77
g58
NtRp5105
(dp5106
g61
(dp5107
sg70
g5092
sg63
(lp5108
g56
(g57
g58
NtRp5109
(dp5110
g61
(dp5111
g69
I5
ssg70
g5105
sg63
(lp5112
S'/home/mukul/web2py/applications/blogpost/sessions/127.0.0.1-bcd64a48-cdf0-42c4-b6ce-38fdcd520e45'
p5113
asbasbasbag56
(g72
g58
NtRp5114
(dp5115
g61
(dp5116
sg70
g3785
sg63
(lp5117
g56
(g77
g58
NtRp5118
(dp5119
g61
(dp5120
g81
g82
ssg70
g5114
sg63
(lp5121
S'session_id'
p5122
asbag56
(g77
g58
NtRp5123
(dp5124
g61
(dp5125
g88
g89
ssg70
g5114
sg63
(lp5126
S':'
asbag56
(g77
g58
NtRp5127
(dp5128
g61
(dp5129
sg70
g5114
sg63
(lp5130
g56
(g57
g58
NtRp5131
(dp5132
g61
(dp5133
g69
I5
ssg70
g5127
sg63
(lp5134
S'127.0.0.1-bcd64a48-cdf0-42c4-b6ce-38fdcd520e45'
p5135
asbasbasbag56
(g72
g58
NtRp5136
(dp5137
g61
(dp5138
sg70
g3785
sg63
(lp5139
g56
(g77
g58
NtRp5140
(dp5141
g61
(dp5142
g81
g82
ssg70
g5136
sg63
(lp5143
S'session_id_name'
p5144
asbag56
(g77
g58
NtRp5145
(dp5146
g61
(dp5147
g88
g89
ssg70
g5136
sg63
(lp5148
S':'
asbag56
(g77
g58
NtRp5149
(dp5150
g61
(dp5151
sg70
g5136
sg63
(lp5152
g56
(g57
g58
NtRp5153
(dp5154
g61
(dp5155
g69
I5
ssg70
g5149
sg63
(lp5156
g3842
asbasbasbag56
(g72
g58
NtRp5157
(dp5158
g61
(dp5159
sg70
g3785
sg63
(lp5160
g56
(g77
g58
NtRp5161
(dp5162
g61
(dp5163
g81
g82
ssg70
g5157
sg63
(lp5164
S'session_locked'
p5165
asbag56
(g77
g58
NtRp5166
(dp5167
g61
(dp5168
g88
g89
ssg70
g5157
sg63
(lp5169
S':'
asbag56
(g77
g58
NtRp5170
(dp5171
g61
(dp5172
sg70
g5157
sg63
(lp5173
g56
(g57
g58
NtRp5174
(dp5175
g61
(dp5176
g69
I5
ssg70
g5170
sg63
(lp5177
g1806
asbasbasbag56
(g72
g58
NtRp5178
(dp5179
g61
(dp5180
sg70
g3785
sg63
(lp5181
g56
(g77
g58
NtRp5182
(dp5183
g61
(dp5184
g81
g82
ssg70
g5178
sg63
(lp5185
S'session_new'
p5186
asbag56
(g77
g58
NtRp5187
(dp5188
g61
(dp5189
g88
g89
ssg70
g5178
sg63
(lp5190
S':'
asbag56
(g77
g58
NtRp5191
(dp5192
g61
(dp5193
sg70
g5178
sg63
(lp5194
g56
(g57
g58
NtRp5195
(dp5196
g61
(dp5197
g69
I5
ssg70
g5191
sg63
(lp5198
g99
asbasbasbag56
(g72
g58
NtRp5199
(dp5200
g61
(dp5201
sg70
g3785
sg63
(lp5202
g56
(g77
g58
NtRp5203
(dp5204
g61
(dp5205
g81
g82
ssg70
g5199
sg63
(lp5206
S'status'
p5207
asbag56
(g77
g58
NtRp5208
(dp5209
g61
(dp5210
g88
g89
ssg70
g5199
sg63
(lp5211
S':'
asbag56
(g77
g58
NtRp5212
(dp5213
g61
(dp5214
sg70
g5199
sg63
(lp5215
g56
(g57
g58
NtRp5216
(dp5217
g61
(dp5218
g69
I5
ssg70
g5212
sg63
(lp5219
S'200'
p5220
asbasbasbag56
(g72
g58
NtRp5221
(dp5222
g61
(dp5223
sg70
g3785
sg63
(lp5224
g56
(g77
g58
NtRp5225
(dp5226
g61
(dp5227
g81
g82
ssg70
g5221
sg63
(lp5228
S'subtitle'
p5229
asbag56
(g77
g58
NtRp5230
(dp5231
g61
(dp5232
g88
g89
ssg70
g5221
sg63
(lp5233
S':'
asbag56
(g77
g58
NtRp5234
(dp5235
g61
(dp5236
sg70
g5221
sg63
(lp5237
g56
(g57
g58
NtRp5238
(dp5239
g61
(dp5240
g69
I5
ssg70
g5234
sg63
(lp5241
g4290
(S's\r\x00\x00\x00customize me!'
tRp5242
asbasbasbag56
(g72
g58
NtRp5243
(dp5244
g61
(dp5245
sg70
g3785
sg63
(lp5246
g56
(g77
g58
NtRp5247
(dp5248
g61
(dp5249
g81
g82
ssg70
g5243
sg63
(lp5250
S'title'
p5251
asbag56
(g77
g58
NtRp5252
(dp5253
g61
(dp5254
g88
g89
ssg70
g5243
sg63
(lp5255
S':'
asbag56
(g77
g58
NtRp5256
(dp5257
g61
(dp5258
sg70
g5243
sg63
(lp5259
g56
(g57
g58
NtRp5260
(dp5261
g61
(dp5262
g69
I5
ssg70
g5256
sg63
(lp5263
S'Blogpost'
p5264
asbasbasbag56
(g72
g58
NtRp5265
(dp5266
g61
(dp5267
sg70
g3785
sg63
(lp5268
g56
(g77
g58
NtRp5269
(dp5270
g61
(dp5271
g81
g82
ssg70
g5265
sg63
(lp5272
g2514
asbag56
(g77
g58
NtRp5273
(dp5274
g61
(dp5275
g88
g89
ssg70
g5265
sg63
(lp5276
S':'
asbag56
(g77
g58
NtRp5277
(dp5278
g61
(dp5279
sg70
g5265
sg63
(lp5280
g56
(g57
g58
NtRp5281
(dp5282
g61
(dp5283
g69
I5
ssg70
g5277
sg63
(lp5284
g2527
asbasbasbag56
(g72
g58
NtRp5285
(dp5286
g61
(dp5287
sg70
g3785
sg63
(lp5288
g56
(g77
g58
NtRp5289
(dp5290
g61
(dp5291
g81
g82
ssg70
g5285
sg63
(lp5292
S'view'
p5293
asbag56
(g77
g58
NtRp5294
(dp5295
g61
(dp5296
g88
g89
ssg70
g5285
sg63
(lp5297
S':'
asbag56
(g77
g58
NtRp5298
(dp5299
g61
(dp5300
sg70
g5285
sg63
(lp5301
g56
(g57
g58
NtRp5302
(dp5303
g61
(dp5304
g69
I5
ssg70
g5298
sg63
(lp5305
S'default/show.html'
p5306
asbasbasbasbasbsS'locals'
p5307
(dp5308
S'i'
S"<Row {'comment': <gluon.dal.Set object at 0xab70...lete_record': <function <lambda> at 0xaa430144>}>"
p5309
sS'x'
S'<gluon.dal.Rows object>'
p5310
sS'b'
S'1'
sS'all_blog'
p5311
g45
sssS'traceback'
p5312
S'Traceback (most recent call last):\n  File "/usr/lib/pymodules/python2.7/gluon/restricted.py", line 204, in restricted\n    exec ccode in environment\n  File "/home/mukul/web2py/applications/blogpost/controllers/default.py", line 54, in <module>\n  File "/usr/lib/pymodules/python2.7/gluon/globals.py", line 172, in <lambda>\n    self._caller = lambda f: f()\n  File "/usr/lib/pymodules/python2.7/gluon/tools.py", line 2533, in f\n    return action(*a, **b)\n  File "/home/mukul/web2py/applications/blogpost/controllers/default.py", line 45, in show\n    all_blog[b][\'data\']=x\nKeyError: 1\n'
p5313
s.