(dp1
S'output'
p2
S"<type 'exceptions.UnboundLocalError'> local variable 'commented' referenced before assignment"
p3
sS'layer'
p4
S'/home/mukul/web2py/applications/blogpost/controllers/default.py'
p5
sS'code'
p6
S"# -*- coding: utf-8 -*-\n# this file is released under public domain and you can use without limitations\n\n#########################################################################\n## This is a samples controller\n## - index is the default action of any application\n## - user is required for authentication and authorization\n## - download is for downloading files uploaded in the db (does streaming)\n## - call exposes all registered services (none by default)\n#########################################################################\nimport datetime\n\ndef user():\n    return dict(form=auth())\n    \n    \n    \ndef add_blog_post():\n    if request.post_vars['title'] != None:\n        blog_title = request.post_vars['title']\n        blog_data = request.post_vars['data']\n        x = request.post_vars['video']\n        y=x.split('=')        \n        \n        blog_date = datetime.datetime.now()\n        db.content.insert(title=blog_title\n                        ,data=blog_data\n                        ,video='https://www.youtube.com/embed/'+y[1]\n                        ,date_time=blog_date)\n        redirect(URL('show'))\n    return dict()\n    \n     \n    #redirect  show all blog posts usi particular user ke   \n\n    \n     \n@auth.requires_login()\ndef show():\n       imag=db().select(db.content.ALL,orderby=db.content.id)\n       if request.post_vars['comment_data']!=None:\n           comments=request.post_vars['comment_data']\n           db.comment.insert(data=comments)\n           \n       else:\n           commented=db(db.comment.blog_id==db.content.id).select(db.comment.ALL)\n       return dict(imag=imag ,x=commented)\n\nresponse._vars=response._caller(show)\n"
p7
sS'snapshot'
p8
(dp9
S'exception'
p10
(dp11
S'__hash__'
p12
S"<method-wrapper '__hash__' of exceptions.UnboundLocalError object>"
p13
sS'__setattr__'
p14
S"<method-wrapper '__setattr__' of exceptions.UnboundLocalError object>"
p15
sS'__reduce_ex__'
p16
S'<built-in method __reduce_ex__ of exceptions.UnboundLocalError object>'
p17
sS'__getslice__'
p18
S"<method-wrapper '__getslice__' of exceptions.UnboundLocalError object>"
p19
sS'__getitem__'
p20
S"<method-wrapper '__getitem__' of exceptions.UnboundLocalError object>"
p21
sS'__setstate__'
p22
S'<built-in method __setstate__ of exceptions.UnboundLocalError object>'
p23
sS'__reduce__'
p24
S'<built-in method __reduce__ of exceptions.UnboundLocalError object>'
p25
sS'__str__'
p26
S"<method-wrapper '__str__' of exceptions.UnboundLocalError object>"
p27
sS'__format__'
p28
S'<built-in method __format__ of exceptions.UnboundLocalError object>'
p29
sS'__getattribute__'
p30
S"<method-wrapper '__getattribute__' of exceptions.UnboundLocalError object>"
p31
sS'__class__'
p32
S"<type 'exceptions.UnboundLocalError'>"
p33
sS'__unicode__'
p34
S'<built-in method __unicode__ of exceptions.UnboundLocalError object>'
p35
sS'__delattr__'
p36
S"<method-wrapper '__delattr__' of exceptions.UnboundLocalError object>"
p37
sS'__subclasshook__'
p38
S'<built-in method __subclasshook__ of type object>'
p39
sS'__repr__'
p40
S"<method-wrapper '__repr__' of exceptions.UnboundLocalError object>"
p41
sS'args'
p42
S'("local variable \'commented\' referenced before assignment",)'
p43
sS'__dict__'
p44
S'{}'
p45
sS'__sizeof__'
p46
S'<built-in method __sizeof__ of exceptions.UnboundLocalError object>'
p47
sS'__doc__'
p48
S"'Local name referenced but not bound to a value.'"
p49
sS'__init__'
p50
S"<method-wrapper '__init__' of exceptions.UnboundLocalError object>"
p51
sS'__new__'
p52
S'<built-in method __new__ of type object>'
p53
ssS'evalue'
p54
S"local variable 'commented' referenced before assignment"
p55
sS'request'
p56
ccopy_reg
_reconstructor
p57
(cgluon.html
BEAUTIFY
p58
c__builtin__
object
p59
NtRp60
(dp61
S'attributes'
p62
(dp63
sS'components'
p64
(lp65
g57
(cgluon.html
TABLE
p66
g59
NtRp67
(dp68
g62
(dp69
S'level'
p70
I5
ssS'parent'
p71
Nsg64
(lp72
g57
(cgluon.html
TR
p73
g59
NtRp74
(dp75
g62
(dp76
sg71
g67
sg64
(lp77
g57
(cgluon.html
TD
p78
g59
NtRp79
(dp80
g62
(dp81
S'_style'
p82
S'font-weight:bold;vertical-align:top'
p83
ssg71
g74
sg64
(lp84
S'ajax'
p85
asbag57
(g78
g59
NtRp86
(dp87
g62
(dp88
S'_valign'
p89
S'top'
p90
ssg71
g74
sg64
(lp91
S':'
asbag57
(g78
g59
NtRp92
(dp93
g62
(dp94
sg71
g74
sg64
(lp95
g57
(g58
g59
NtRp96
(dp97
g62
(dp98
g70
I5
ssg71
g92
sg64
(lp99
S'False'
p100
asbasbasbag57
(g73
g59
NtRp101
(dp102
g62
(dp103
sg71
g67
sg64
(lp104
g57
(g78
g59
NtRp105
(dp106
g62
(dp107
g82
g83
ssg71
g101
sg64
(lp108
S'application'
p109
asbag57
(g78
g59
NtRp110
(dp111
g62
(dp112
g89
g90
ssg71
g101
sg64
(lp113
S':'
asbag57
(g78
g59
NtRp114
(dp115
g62
(dp116
sg71
g101
sg64
(lp117
g57
(g58
g59
NtRp118
(dp119
g62
(dp120
g70
I5
ssg71
g114
sg64
(lp121
S'blogpost'
p122
asbasbasbag57
(g73
g59
NtRp123
(dp124
g62
(dp125
sg71
g67
sg64
(lp126
g57
(g78
g59
NtRp127
(dp128
g62
(dp129
g82
g83
ssg71
g123
sg64
(lp130
g42
asbag57
(g78
g59
NtRp131
(dp132
g62
(dp133
g89
g90
ssg71
g123
sg64
(lp134
S':'
asbag57
(g78
g59
NtRp135
(dp136
g62
(dp137
sg71
g123
sg64
(lp138
g57
(g58
g59
NtRp139
(dp140
g62
(dp141
g70
I5
ssg71
g135
sg64
(lp142
g57
(g66
g59
NtRp143
(dp144
g62
(dp145
g70
I4
ssg71
Nsg64
(lp146
sbasbasbasbag57
(g73
g59
NtRp147
(dp148
g62
(dp149
sg71
g67
sg64
(lp150
g57
(g78
g59
NtRp151
(dp152
g62
(dp153
g82
g83
ssg71
g147
sg64
(lp154
S'body'
p155
asbag57
(g78
g59
NtRp156
(dp157
g62
(dp158
g89
g90
ssg71
g147
sg64
(lp159
S':'
asbag57
(g78
g59
NtRp160
(dp161
g62
(dp162
sg71
g147
sg64
(lp163
g57
(g58
g59
NtRp164
(dp165
g62
(dp166
g70
I5
ssg71
g160
sg64
(lp167
S"<open file '<fdopen>', mode 'w+b' at 0xaa31c5a0>"
p168
asbasbasbag57
(g73
g59
NtRp169
(dp170
g62
(dp171
sg71
g67
sg64
(lp172
g57
(g78
g59
NtRp173
(dp174
g62
(dp175
g82
g83
ssg71
g169
sg64
(lp176
S'client'
p177
asbag57
(g78
g59
NtRp178
(dp179
g62
(dp180
g89
g90
ssg71
g169
sg64
(lp181
S':'
asbag57
(g78
g59
NtRp182
(dp183
g62
(dp184
sg71
g169
sg64
(lp185
g57
(g58
g59
NtRp186
(dp187
g62
(dp188
g70
I5
ssg71
g182
sg64
(lp189
S'127.0.0.1'
p190
asbasbasbag57
(g73
g59
NtRp191
(dp192
g62
(dp193
sg71
g67
sg64
(lp194
g57
(g78
g59
NtRp195
(dp196
g62
(dp197
g82
g83
ssg71
g191
sg64
(lp198
S'controller'
p199
asbag57
(g78
g59
NtRp200
(dp201
g62
(dp202
g89
g90
ssg71
g191
sg64
(lp203
S':'
asbag57
(g78
g59
NtRp204
(dp205
g62
(dp206
sg71
g191
sg64
(lp207
g57
(g58
g59
NtRp208
(dp209
g62
(dp210
g70
I5
ssg71
g204
sg64
(lp211
S'default'
p212
asbasbasbag57
(g73
g59
NtRp213
(dp214
g62
(dp215
sg71
g67
sg64
(lp216
g57
(g78
g59
NtRp217
(dp218
g62
(dp219
g82
g83
ssg71
g213
sg64
(lp220
S'cookies'
p221
asbag57
(g78
g59
NtRp222
(dp223
g62
(dp224
g89
g90
ssg71
g213
sg64
(lp225
S':'
asbag57
(g78
g59
NtRp226
(dp227
g62
(dp228
sg71
g213
sg64
(lp229
g57
(g58
g59
NtRp230
(dp231
g62
(dp232
g70
I5
ssg71
g226
sg64
(lp233
g57
(g66
g59
NtRp234
(dp235
g62
(dp236
g70
I4
ssg71
Nsg64
(lp237
g57
(g73
g59
NtRp238
(dp239
g62
(dp240
sg71
g234
sg64
(lp241
g57
(g78
g59
NtRp242
(dp243
g62
(dp244
g82
g83
ssg71
g238
sg64
(lp245
S'session_id_admin'
p246
asbag57
(g78
g59
NtRp247
(dp248
g62
(dp249
g89
g90
ssg71
g238
sg64
(lp250
S':'
asbag57
(g78
g59
NtRp251
(dp252
g62
(dp253
sg71
g238
sg64
(lp254
g57
(g58
g59
NtRp255
(dp256
g62
(dp257
g70
I4
ssg71
g251
sg64
(lp258
g57
(g66
g59
NtRp259
(dp260
g62
(dp261
g70
I3
ssg71
Nsg64
(lp262
g57
(g73
g59
NtRp263
(dp264
g62
(dp265
sg71
g259
sg64
(lp266
g57
(g78
g59
NtRp267
(dp268
g62
(dp269
g82
g83
ssg71
g263
sg64
(lp270
S'comment'
p271
asbag57
(g78
g59
NtRp272
(dp273
g62
(dp274
g89
g90
ssg71
g263
sg64
(lp275
S':'
asbag57
(g78
g59
NtRp276
(dp277
g62
(dp278
sg71
g263
sg64
(lp279
g57
(g58
g59
NtRp280
(dp281
g62
(dp282
g70
I3
ssg71
g276
sg64
(lp283
S''
asbasbasbag57
(g73
g59
NtRp284
(dp285
g62
(dp286
sg71
g259
sg64
(lp287
g57
(g78
g59
NtRp288
(dp289
g62
(dp290
g82
g83
ssg71
g284
sg64
(lp291
S'domain'
p292
asbag57
(g78
g59
NtRp293
(dp294
g62
(dp295
g89
g90
ssg71
g284
sg64
(lp296
S':'
asbag57
(g78
g59
NtRp297
(dp298
g62
(dp299
sg71
g284
sg64
(lp300
g57
(g58
g59
NtRp301
(dp302
g62
(dp303
g70
I3
ssg71
g297
sg64
(lp304
S''
asbasbasbag57
(g73
g59
NtRp305
(dp306
g62
(dp307
sg71
g259
sg64
(lp308
g57
(g78
g59
NtRp309
(dp310
g62
(dp311
g82
g83
ssg71
g305
sg64
(lp312
S'expires'
p313
asbag57
(g78
g59
NtRp314
(dp315
g62
(dp316
g89
g90
ssg71
g305
sg64
(lp317
S':'
asbag57
(g78
g59
NtRp318
(dp319
g62
(dp320
sg71
g305
sg64
(lp321
g57
(g58
g59
NtRp322
(dp323
g62
(dp324
g70
I3
ssg71
g318
sg64
(lp325
S''
asbasbasbag57
(g73
g59
NtRp326
(dp327
g62
(dp328
sg71
g259
sg64
(lp329
g57
(g78
g59
NtRp330
(dp331
g62
(dp332
g82
g83
ssg71
g326
sg64
(lp333
S'httponly'
p334
asbag57
(g78
g59
NtRp335
(dp336
g62
(dp337
g89
g90
ssg71
g326
sg64
(lp338
S':'
asbag57
(g78
g59
NtRp339
(dp340
g62
(dp341
sg71
g326
sg64
(lp342
g57
(g58
g59
NtRp343
(dp344
g62
(dp345
g70
I3
ssg71
g339
sg64
(lp346
S''
asbasbasbag57
(g73
g59
NtRp347
(dp348
g62
(dp349
sg71
g259
sg64
(lp350
g57
(g78
g59
NtRp351
(dp352
g62
(dp353
g82
g83
ssg71
g347
sg64
(lp354
S'max-age'
p355
asbag57
(g78
g59
NtRp356
(dp357
g62
(dp358
g89
g90
ssg71
g347
sg64
(lp359
S':'
asbag57
(g78
g59
NtRp360
(dp361
g62
(dp362
sg71
g347
sg64
(lp363
g57
(g58
g59
NtRp364
(dp365
g62
(dp366
g70
I3
ssg71
g360
sg64
(lp367
S''
asbasbasbag57
(g73
g59
NtRp368
(dp369
g62
(dp370
sg71
g259
sg64
(lp371
g57
(g78
g59
NtRp372
(dp373
g62
(dp374
g82
g83
ssg71
g368
sg64
(lp375
S'path'
p376
asbag57
(g78
g59
NtRp377
(dp378
g62
(dp379
g89
g90
ssg71
g368
sg64
(lp380
S':'
asbag57
(g78
g59
NtRp381
(dp382
g62
(dp383
sg71
g368
sg64
(lp384
g57
(g58
g59
NtRp385
(dp386
g62
(dp387
g70
I3
ssg71
g381
sg64
(lp388
S''
asbasbasbag57
(g73
g59
NtRp389
(dp390
g62
(dp391
sg71
g259
sg64
(lp392
g57
(g78
g59
NtRp393
(dp394
g62
(dp395
g82
g83
ssg71
g389
sg64
(lp396
S'secure'
p397
asbag57
(g78
g59
NtRp398
(dp399
g62
(dp400
g89
g90
ssg71
g389
sg64
(lp401
S':'
asbag57
(g78
g59
NtRp402
(dp403
g62
(dp404
sg71
g389
sg64
(lp405
g57
(g58
g59
NtRp406
(dp407
g62
(dp408
g70
I3
ssg71
g402
sg64
(lp409
S''
asbasbasbag57
(g73
g59
NtRp410
(dp411
g62
(dp412
sg71
g259
sg64
(lp413
g57
(g78
g59
NtRp414
(dp415
g62
(dp416
g82
g83
ssg71
g410
sg64
(lp417
S'version'
p418
asbag57
(g78
g59
NtRp419
(dp420
g62
(dp421
g89
g90
ssg71
g410
sg64
(lp422
S':'
asbag57
(g78
g59
NtRp423
(dp424
g62
(dp425
sg71
g410
sg64
(lp426
g57
(g58
g59
NtRp427
(dp428
g62
(dp429
g70
I3
ssg71
g423
sg64
(lp430
S''
asbasbasbasbasbasbasbag57
(g73
g59
NtRp431
(dp432
g62
(dp433
sg71
g234
sg64
(lp434
g57
(g78
g59
NtRp435
(dp436
g62
(dp437
g82
g83
ssg71
g431
sg64
(lp438
S'session_id_blogpost'
p439
asbag57
(g78
g59
NtRp440
(dp441
g62
(dp442
g89
g90
ssg71
g431
sg64
(lp443
S':'
asbag57
(g78
g59
NtRp444
(dp445
g62
(dp446
sg71
g431
sg64
(lp447
g57
(g58
g59
NtRp448
(dp449
g62
(dp450
g70
I4
ssg71
g444
sg64
(lp451
g57
(g66
g59
NtRp452
(dp453
g62
(dp454
g70
I3
ssg71
Nsg64
(lp455
g57
(g73
g59
NtRp456
(dp457
g62
(dp458
sg71
g452
sg64
(lp459
g57
(g78
g59
NtRp460
(dp461
g62
(dp462
g82
g83
ssg71
g456
sg64
(lp463
g271
asbag57
(g78
g59
NtRp464
(dp465
g62
(dp466
g89
g90
ssg71
g456
sg64
(lp467
S':'
asbag57
(g78
g59
NtRp468
(dp469
g62
(dp470
sg71
g456
sg64
(lp471
g57
(g58
g59
NtRp472
(dp473
g62
(dp474
g70
I3
ssg71
g468
sg64
(lp475
S''
asbasbasbag57
(g73
g59
NtRp476
(dp477
g62
(dp478
sg71
g452
sg64
(lp479
g57
(g78
g59
NtRp480
(dp481
g62
(dp482
g82
g83
ssg71
g476
sg64
(lp483
g292
asbag57
(g78
g59
NtRp484
(dp485
g62
(dp486
g89
g90
ssg71
g476
sg64
(lp487
S':'
asbag57
(g78
g59
NtRp488
(dp489
g62
(dp490
sg71
g476
sg64
(lp491
g57
(g58
g59
NtRp492
(dp493
g62
(dp494
g70
I3
ssg71
g488
sg64
(lp495
S''
asbasbasbag57
(g73
g59
NtRp496
(dp497
g62
(dp498
sg71
g452
sg64
(lp499
g57
(g78
g59
NtRp500
(dp501
g62
(dp502
g82
g83
ssg71
g496
sg64
(lp503
g313
asbag57
(g78
g59
NtRp504
(dp505
g62
(dp506
g89
g90
ssg71
g496
sg64
(lp507
S':'
asbag57
(g78
g59
NtRp508
(dp509
g62
(dp510
sg71
g496
sg64
(lp511
g57
(g58
g59
NtRp512
(dp513
g62
(dp514
g70
I3
ssg71
g508
sg64
(lp515
S''
asbasbasbag57
(g73
g59
NtRp516
(dp517
g62
(dp518
sg71
g452
sg64
(lp519
g57
(g78
g59
NtRp520
(dp521
g62
(dp522
g82
g83
ssg71
g516
sg64
(lp523
g334
asbag57
(g78
g59
NtRp524
(dp525
g62
(dp526
g89
g90
ssg71
g516
sg64
(lp527
S':'
asbag57
(g78
g59
NtRp528
(dp529
g62
(dp530
sg71
g516
sg64
(lp531
g57
(g58
g59
NtRp532
(dp533
g62
(dp534
g70
I3
ssg71
g528
sg64
(lp535
S''
asbasbasbag57
(g73
g59
NtRp536
(dp537
g62
(dp538
sg71
g452
sg64
(lp539
g57
(g78
g59
NtRp540
(dp541
g62
(dp542
g82
g83
ssg71
g536
sg64
(lp543
g355
asbag57
(g78
g59
NtRp544
(dp545
g62
(dp546
g89
g90
ssg71
g536
sg64
(lp547
S':'
asbag57
(g78
g59
NtRp548
(dp549
g62
(dp550
sg71
g536
sg64
(lp551
g57
(g58
g59
NtRp552
(dp553
g62
(dp554
g70
I3
ssg71
g548
sg64
(lp555
S''
asbasbasbag57
(g73
g59
NtRp556
(dp557
g62
(dp558
sg71
g452
sg64
(lp559
g57
(g78
g59
NtRp560
(dp561
g62
(dp562
g82
g83
ssg71
g556
sg64
(lp563
g376
asbag57
(g78
g59
NtRp564
(dp565
g62
(dp566
g89
g90
ssg71
g556
sg64
(lp567
S':'
asbag57
(g78
g59
NtRp568
(dp569
g62
(dp570
sg71
g556
sg64
(lp571
g57
(g58
g59
NtRp572
(dp573
g62
(dp574
g70
I3
ssg71
g568
sg64
(lp575
S''
asbasbasbag57
(g73
g59
NtRp576
(dp577
g62
(dp578
sg71
g452
sg64
(lp579
g57
(g78
g59
NtRp580
(dp581
g62
(dp582
g82
g83
ssg71
g576
sg64
(lp583
g397
asbag57
(g78
g59
NtRp584
(dp585
g62
(dp586
g89
g90
ssg71
g576
sg64
(lp587
S':'
asbag57
(g78
g59
NtRp588
(dp589
g62
(dp590
sg71
g576
sg64
(lp591
g57
(g58
g59
NtRp592
(dp593
g62
(dp594
g70
I3
ssg71
g588
sg64
(lp595
S''
asbasbasbag57
(g73
g59
NtRp596
(dp597
g62
(dp598
sg71
g452
sg64
(lp599
g57
(g78
g59
NtRp600
(dp601
g62
(dp602
g82
g83
ssg71
g596
sg64
(lp603
g418
asbag57
(g78
g59
NtRp604
(dp605
g62
(dp606
g89
g90
ssg71
g596
sg64
(lp607
S':'
asbag57
(g78
g59
NtRp608
(dp609
g62
(dp610
sg71
g596
sg64
(lp611
g57
(g58
g59
NtRp612
(dp613
g62
(dp614
g70
I3
ssg71
g608
sg64
(lp615
S''
asbasbasbasbasbasbasbag57
(g73
g59
NtRp616
(dp617
g62
(dp618
sg71
g234
sg64
(lp619
g57
(g78
g59
NtRp620
(dp621
g62
(dp622
g82
g83
ssg71
g616
sg64
(lp623
S'session_id_welcome'
p624
asbag57
(g78
g59
NtRp625
(dp626
g62
(dp627
g89
g90
ssg71
g616
sg64
(lp628
S':'
asbag57
(g78
g59
NtRp629
(dp630
g62
(dp631
sg71
g616
sg64
(lp632
g57
(g58
g59
NtRp633
(dp634
g62
(dp635
g70
I4
ssg71
g629
sg64
(lp636
g57
(g66
g59
NtRp637
(dp638
g62
(dp639
g70
I3
ssg71
Nsg64
(lp640
g57
(g73
g59
NtRp641
(dp642
g62
(dp643
sg71
g637
sg64
(lp644
g57
(g78
g59
NtRp645
(dp646
g62
(dp647
g82
g83
ssg71
g641
sg64
(lp648
g271
asbag57
(g78
g59
NtRp649
(dp650
g62
(dp651
g89
g90
ssg71
g641
sg64
(lp652
S':'
asbag57
(g78
g59
NtRp653
(dp654
g62
(dp655
sg71
g641
sg64
(lp656
g57
(g58
g59
NtRp657
(dp658
g62
(dp659
g70
I3
ssg71
g653
sg64
(lp660
S''
asbasbasbag57
(g73
g59
NtRp661
(dp662
g62
(dp663
sg71
g637
sg64
(lp664
g57
(g78
g59
NtRp665
(dp666
g62
(dp667
g82
g83
ssg71
g661
sg64
(lp668
g292
asbag57
(g78
g59
NtRp669
(dp670
g62
(dp671
g89
g90
ssg71
g661
sg64
(lp672
S':'
asbag57
(g78
g59
NtRp673
(dp674
g62
(dp675
sg71
g661
sg64
(lp676
g57
(g58
g59
NtRp677
(dp678
g62
(dp679
g70
I3
ssg71
g673
sg64
(lp680
S''
asbasbasbag57
(g73
g59
NtRp681
(dp682
g62
(dp683
sg71
g637
sg64
(lp684
g57
(g78
g59
NtRp685
(dp686
g62
(dp687
g82
g83
ssg71
g681
sg64
(lp688
g313
asbag57
(g78
g59
NtRp689
(dp690
g62
(dp691
g89
g90
ssg71
g681
sg64
(lp692
S':'
asbag57
(g78
g59
NtRp693
(dp694
g62
(dp695
sg71
g681
sg64
(lp696
g57
(g58
g59
NtRp697
(dp698
g62
(dp699
g70
I3
ssg71
g693
sg64
(lp700
S''
asbasbasbag57
(g73
g59
NtRp701
(dp702
g62
(dp703
sg71
g637
sg64
(lp704
g57
(g78
g59
NtRp705
(dp706
g62
(dp707
g82
g83
ssg71
g701
sg64
(lp708
g334
asbag57
(g78
g59
NtRp709
(dp710
g62
(dp711
g89
g90
ssg71
g701
sg64
(lp712
S':'
asbag57
(g78
g59
NtRp713
(dp714
g62
(dp715
sg71
g701
sg64
(lp716
g57
(g58
g59
NtRp717
(dp718
g62
(dp719
g70
I3
ssg71
g713
sg64
(lp720
S''
asbasbasbag57
(g73
g59
NtRp721
(dp722
g62
(dp723
sg71
g637
sg64
(lp724
g57
(g78
g59
NtRp725
(dp726
g62
(dp727
g82
g83
ssg71
g721
sg64
(lp728
g355
asbag57
(g78
g59
NtRp729
(dp730
g62
(dp731
g89
g90
ssg71
g721
sg64
(lp732
S':'
asbag57
(g78
g59
NtRp733
(dp734
g62
(dp735
sg71
g721
sg64
(lp736
g57
(g58
g59
NtRp737
(dp738
g62
(dp739
g70
I3
ssg71
g733
sg64
(lp740
S''
asbasbasbag57
(g73
g59
NtRp741
(dp742
g62
(dp743
sg71
g637
sg64
(lp744
g57
(g78
g59
NtRp745
(dp746
g62
(dp747
g82
g83
ssg71
g741
sg64
(lp748
g376
asbag57
(g78
g59
NtRp749
(dp750
g62
(dp751
g89
g90
ssg71
g741
sg64
(lp752
S':'
asbag57
(g78
g59
NtRp753
(dp754
g62
(dp755
sg71
g741
sg64
(lp756
g57
(g58
g59
NtRp757
(dp758
g62
(dp759
g70
I3
ssg71
g753
sg64
(lp760
S''
asbasbasbag57
(g73
g59
NtRp761
(dp762
g62
(dp763
sg71
g637
sg64
(lp764
g57
(g78
g59
NtRp765
(dp766
g62
(dp767
g82
g83
ssg71
g761
sg64
(lp768
g397
asbag57
(g78
g59
NtRp769
(dp770
g62
(dp771
g89
g90
ssg71
g761
sg64
(lp772
S':'
asbag57
(g78
g59
NtRp773
(dp774
g62
(dp775
sg71
g761
sg64
(lp776
g57
(g58
g59
NtRp777
(dp778
g62
(dp779
g70
I3
ssg71
g773
sg64
(lp780
S''
asbasbasbag57
(g73
g59
NtRp781
(dp782
g62
(dp783
sg71
g637
sg64
(lp784
g57
(g78
g59
NtRp785
(dp786
g62
(dp787
g82
g83
ssg71
g781
sg64
(lp788
g418
asbag57
(g78
g59
NtRp789
(dp790
g62
(dp791
g89
g90
ssg71
g781
sg64
(lp792
S':'
asbag57
(g78
g59
NtRp793
(dp794
g62
(dp795
sg71
g781
sg64
(lp796
g57
(g58
g59
NtRp797
(dp798
g62
(dp799
g70
I3
ssg71
g793
sg64
(lp800
S''
asbasbasbasbasbasbasbasbasbasbasbag57
(g73
g59
NtRp801
(dp802
g62
(dp803
sg71
g67
sg64
(lp804
g57
(g78
g59
NtRp805
(dp806
g62
(dp807
g82
g83
ssg71
g801
sg64
(lp808
S'env'
p809
asbag57
(g78
g59
NtRp810
(dp811
g62
(dp812
g89
g90
ssg71
g801
sg64
(lp813
S':'
asbag57
(g78
g59
NtRp814
(dp815
g62
(dp816
sg71
g801
sg64
(lp817
g57
(g58
g59
NtRp818
(dp819
g62
(dp820
g70
I5
ssg71
g814
sg64
(lp821
g57
(g66
g59
NtRp822
(dp823
g62
(dp824
g70
I4
ssg71
Nsg64
(lp825
g57
(g73
g59
NtRp826
(dp827
g62
(dp828
sg71
g822
sg64
(lp829
g57
(g78
g59
NtRp830
(dp831
g62
(dp832
g82
g83
ssg71
g826
sg64
(lp833
S'app_folders'
p834
asbag57
(g78
g59
NtRp835
(dp836
g62
(dp837
g89
g90
ssg71
g826
sg64
(lp838
S':'
asbag57
(g78
g59
NtRp839
(dp840
g62
(dp841
sg71
g826
sg64
(lp842
g57
(g58
g59
NtRp843
(dp844
g62
(dp845
g70
I4
ssg71
g839
sg64
(lp846
S"set(['/home/mukul/web2py/applications/admin/', '/home/mukul/web2py/applications/blogpost/', '/home/mukul/web2py/applications/welcome/'])"
p847
asbasbasbag57
(g73
g59
NtRp848
(dp849
g62
(dp850
sg71
g822
sg64
(lp851
g57
(g78
g59
NtRp852
(dp853
g62
(dp854
g82
g83
ssg71
g848
sg64
(lp855
S'applications_parent'
p856
asbag57
(g78
g59
NtRp857
(dp858
g62
(dp859
g89
g90
ssg71
g848
sg64
(lp860
S':'
asbag57
(g78
g59
NtRp861
(dp862
g62
(dp863
sg71
g848
sg64
(lp864
g57
(g58
g59
NtRp865
(dp866
g62
(dp867
g70
I4
ssg71
g861
sg64
(lp868
S'/home/mukul/web2py'
p869
asbasbasbag57
(g73
g59
NtRp870
(dp871
g62
(dp872
sg71
g822
sg64
(lp873
g57
(g78
g59
NtRp874
(dp875
g62
(dp876
g82
g83
ssg71
g870
sg64
(lp877
S'cmd_args'
p878
asbag57
(g78
g59
NtRp879
(dp880
g62
(dp881
g89
g90
ssg71
g870
sg64
(lp882
S':'
asbag57
(g78
g59
NtRp883
(dp884
g62
(dp885
sg71
g870
sg64
(lp886
g57
(g58
g59
NtRp887
(dp888
g62
(dp889
g70
I4
ssg71
g883
sg64
(lp890
g57
(g66
g59
NtRp891
(dp892
g62
(dp893
g70
I3
ssg71
Nsg64
(lp894
sbasbasbasbag57
(g73
g59
NtRp895
(dp896
g62
(dp897
sg71
g822
sg64
(lp898
g57
(g78
g59
NtRp899
(dp900
g62
(dp901
g82
g83
ssg71
g895
sg64
(lp902
S'cmd_options'
p903
asbag57
(g78
g59
NtRp904
(dp905
g62
(dp906
g89
g90
ssg71
g895
sg64
(lp907
S':'
asbag57
(g78
g59
NtRp908
(dp909
g62
(dp910
sg71
g895
sg64
(lp911
g57
(g58
g59
NtRp912
(dp913
g62
(dp914
g70
I4
ssg71
g908
sg64
(lp915
S"<Values at 0xa3b678c: {'verbose': False, 'ip': '127.0.0.1', 'shutdown_timeout': 5, 'taskbar': False, 'port': 8000, 'maxthreads': None, 'softcron': False, 'server_name': 'mukul-INVALID', 'bpython': False, 'nogui': False, 'nocron': False, 'extcron': False, 'debuglevel': 30, 'test': None, 'folder': '/home/mukul/web2py', 'config': '', 'import_models': False, 'winservice': '', 'shell': None, 'run': '', 'log_filename': 'httpserver.log', 'args': [''], 'socket_timeout': 1, 'profiler_filename': None, 'ssl_private_key': '', 'password': '<ask>', 'request_queue_size': 5, 'ssl_certificate': '', 'cronjob': False, 'plain': False, 'quiet': False, 'interfaces': None, 'minthreads': None, 'timeout': 10, 'numthreads': None, 'nobanner': False, 'pid_filename': 'httpserver.pid'}>"
p916
asbasbasbag57
(g73
g59
NtRp917
(dp918
g62
(dp919
sg71
g822
sg64
(lp920
g57
(g78
g59
NtRp921
(dp922
g62
(dp923
g82
g83
ssg71
g917
sg64
(lp924
S'content_length'
p925
asbag57
(g78
g59
NtRp926
(dp927
g62
(dp928
g89
g90
ssg71
g917
sg64
(lp929
S':'
asbag57
(g78
g59
NtRp930
(dp931
g62
(dp932
sg71
g917
sg64
(lp933
g57
(g58
g59
NtRp934
(dp935
g62
(dp936
g70
I4
ssg71
g930
sg64
(lp937
S'53'
p938
asbasbasbag57
(g73
g59
NtRp939
(dp940
g62
(dp941
sg71
g822
sg64
(lp942
g57
(g78
g59
NtRp943
(dp944
g62
(dp945
g82
g83
ssg71
g939
sg64
(lp946
S'content_type'
p947
asbag57
(g78
g59
NtRp948
(dp949
g62
(dp950
g89
g90
ssg71
g939
sg64
(lp951
S':'
asbag57
(g78
g59
NtRp952
(dp953
g62
(dp954
sg71
g939
sg64
(lp955
g57
(g58
g59
NtRp956
(dp957
g62
(dp958
g70
I4
ssg71
g952
sg64
(lp959
S'application/x-www-form-urlencoded'
p960
asbasbasbag57
(g73
g59
NtRp961
(dp962
g62
(dp963
sg71
g822
sg64
(lp964
g57
(g78
g59
NtRp965
(dp966
g62
(dp967
g82
g83
ssg71
g961
sg64
(lp968
S'db_sessions'
p969
asbag57
(g78
g59
NtRp970
(dp971
g62
(dp972
g89
g90
ssg71
g961
sg64
(lp973
S':'
asbag57
(g78
g59
NtRp974
(dp975
g62
(dp976
sg71
g961
sg64
(lp977
g57
(g58
g59
NtRp978
(dp979
g62
(dp980
g70
I4
ssg71
g974
sg64
(lp981
S'set([])'
p982
asbasbasbag57
(g73
g59
NtRp983
(dp984
g62
(dp985
sg71
g822
sg64
(lp986
g57
(g78
g59
NtRp987
(dp988
g62
(dp989
g82
g83
ssg71
g983
sg64
(lp990
S'debugging'
p991
asbag57
(g78
g59
NtRp992
(dp993
g62
(dp994
g89
g90
ssg71
g983
sg64
(lp995
S':'
asbag57
(g78
g59
NtRp996
(dp997
g62
(dp998
sg71
g983
sg64
(lp999
g57
(g58
g59
NtRp1000
(dp1001
g62
(dp1002
g70
I4
ssg71
g996
sg64
(lp1003
g100
asbasbasbag57
(g73
g59
NtRp1004
(dp1005
g62
(dp1006
sg71
g822
sg64
(lp1007
g57
(g78
g59
NtRp1008
(dp1009
g62
(dp1010
g82
g83
ssg71
g1004
sg64
(lp1011
S'gluon_parent'
p1012
asbag57
(g78
g59
NtRp1013
(dp1014
g62
(dp1015
g89
g90
ssg71
g1004
sg64
(lp1016
S':'
asbag57
(g78
g59
NtRp1017
(dp1018
g62
(dp1019
sg71
g1004
sg64
(lp1020
g57
(g58
g59
NtRp1021
(dp1022
g62
(dp1023
g70
I4
ssg71
g1017
sg64
(lp1024
S'/usr/share/web2py'
p1025
asbasbasbag57
(g73
g59
NtRp1026
(dp1027
g62
(dp1028
sg71
g822
sg64
(lp1029
g57
(g78
g59
NtRp1030
(dp1031
g62
(dp1032
g82
g83
ssg71
g1026
sg64
(lp1033
S'http_accept'
p1034
asbag57
(g78
g59
NtRp1035
(dp1036
g62
(dp1037
g89
g90
ssg71
g1026
sg64
(lp1038
S':'
asbag57
(g78
g59
NtRp1039
(dp1040
g62
(dp1041
sg71
g1026
sg64
(lp1042
g57
(g58
g59
NtRp1043
(dp1044
g62
(dp1045
g70
I4
ssg71
g1039
sg64
(lp1046
S'text/html,application/xhtml+xml,application/xml;q=0.9,image/webp,*/*;q=0.8'
p1047
asbasbasbag57
(g73
g59
NtRp1048
(dp1049
g62
(dp1050
sg71
g822
sg64
(lp1051
g57
(g78
g59
NtRp1052
(dp1053
g62
(dp1054
g82
g83
ssg71
g1048
sg64
(lp1055
S'http_accept_encoding'
p1056
asbag57
(g78
g59
NtRp1057
(dp1058
g62
(dp1059
g89
g90
ssg71
g1048
sg64
(lp1060
S':'
asbag57
(g78
g59
NtRp1061
(dp1062
g62
(dp1063
sg71
g1048
sg64
(lp1064
g57
(g58
g59
NtRp1065
(dp1066
g62
(dp1067
g70
I4
ssg71
g1061
sg64
(lp1068
S'gzip, deflate'
p1069
asbasbasbag57
(g73
g59
NtRp1070
(dp1071
g62
(dp1072
sg71
g822
sg64
(lp1073
g57
(g78
g59
NtRp1074
(dp1075
g62
(dp1076
g82
g83
ssg71
g1070
sg64
(lp1077
S'http_accept_language'
p1078
asbag57
(g78
g59
NtRp1079
(dp1080
g62
(dp1081
g89
g90
ssg71
g1070
sg64
(lp1082
S':'
asbag57
(g78
g59
NtRp1083
(dp1084
g62
(dp1085
sg71
g1070
sg64
(lp1086
g57
(g58
g59
NtRp1087
(dp1088
g62
(dp1089
g70
I4
ssg71
g1083
sg64
(lp1090
S'en-US,en;q=0.8'
p1091
asbasbasbag57
(g73
g59
NtRp1092
(dp1093
g62
(dp1094
sg71
g822
sg64
(lp1095
g57
(g78
g59
NtRp1096
(dp1097
g62
(dp1098
g82
g83
ssg71
g1092
sg64
(lp1099
S'http_cache_control'
p1100
asbag57
(g78
g59
NtRp1101
(dp1102
g62
(dp1103
g89
g90
ssg71
g1092
sg64
(lp1104
S':'
asbag57
(g78
g59
NtRp1105
(dp1106
g62
(dp1107
sg71
g1092
sg64
(lp1108
g57
(g58
g59
NtRp1109
(dp1110
g62
(dp1111
g70
I4
ssg71
g1105
sg64
(lp1112
S'max-age=0'
p1113
asbasbasbag57
(g73
g59
NtRp1114
(dp1115
g62
(dp1116
sg71
g822
sg64
(lp1117
g57
(g78
g59
NtRp1118
(dp1119
g62
(dp1120
g82
g83
ssg71
g1114
sg64
(lp1121
S'http_connection'
p1122
asbag57
(g78
g59
NtRp1123
(dp1124
g62
(dp1125
g89
g90
ssg71
g1114
sg64
(lp1126
S':'
asbag57
(g78
g59
NtRp1127
(dp1128
g62
(dp1129
sg71
g1114
sg64
(lp1130
g57
(g58
g59
NtRp1131
(dp1132
g62
(dp1133
g70
I4
ssg71
g1127
sg64
(lp1134
S'keep-alive'
p1135
asbasbasbag57
(g73
g59
NtRp1136
(dp1137
g62
(dp1138
sg71
g822
sg64
(lp1139
g57
(g78
g59
NtRp1140
(dp1141
g62
(dp1142
g82
g83
ssg71
g1136
sg64
(lp1143
S'http_content_length'
p1144
asbag57
(g78
g59
NtRp1145
(dp1146
g62
(dp1147
g89
g90
ssg71
g1136
sg64
(lp1148
S':'
asbag57
(g78
g59
NtRp1149
(dp1150
g62
(dp1151
sg71
g1136
sg64
(lp1152
g57
(g58
g59
NtRp1153
(dp1154
g62
(dp1155
g70
I4
ssg71
g1149
sg64
(lp1156
g938
asbasbasbag57
(g73
g59
NtRp1157
(dp1158
g62
(dp1159
sg71
g822
sg64
(lp1160
g57
(g78
g59
NtRp1161
(dp1162
g62
(dp1163
g82
g83
ssg71
g1157
sg64
(lp1164
S'http_content_type'
p1165
asbag57
(g78
g59
NtRp1166
(dp1167
g62
(dp1168
g89
g90
ssg71
g1157
sg64
(lp1169
S':'
asbag57
(g78
g59
NtRp1170
(dp1171
g62
(dp1172
sg71
g1157
sg64
(lp1173
g57
(g58
g59
NtRp1174
(dp1175
g62
(dp1176
g70
I4
ssg71
g1170
sg64
(lp1177
g960
asbasbasbag57
(g73
g59
NtRp1178
(dp1179
g62
(dp1180
sg71
g822
sg64
(lp1181
g57
(g78
g59
NtRp1182
(dp1183
g62
(dp1184
g82
g83
ssg71
g1178
sg64
(lp1185
S'http_cookie'
p1186
asbag57
(g78
g59
NtRp1187
(dp1188
g62
(dp1189
g89
g90
ssg71
g1178
sg64
(lp1190
S':'
asbag57
(g78
g59
NtRp1191
(dp1192
g62
(dp1193
sg71
g1178
sg64
(lp1194
g57
(g58
g59
NtRp1195
(dp1196
g62
(dp1197
g70
I4
ssg71
g1191
sg64
(lp1198
S'_ga=GA1.1.1697046843.1457627657; session_id_welcome=127.0.0.1-676725f2-2e5a-49d5-aec2-76b767f355a8; session_id_blogpost=127.0.0.1-bcd64a48-cdf0-42c4-b6ce-38fdcd520e45; session_id_admin=127.0.0.1-e0a50ab9-35ba-48b7-b46b-eaa7cdf00edd'
p1199
asbasbasbag57
(g73
g59
NtRp1200
(dp1201
g62
(dp1202
sg71
g822
sg64
(lp1203
g57
(g78
g59
NtRp1204
(dp1205
g62
(dp1206
g82
g83
ssg71
g1200
sg64
(lp1207
S'http_host'
p1208
asbag57
(g78
g59
NtRp1209
(dp1210
g62
(dp1211
g89
g90
ssg71
g1200
sg64
(lp1212
S':'
asbag57
(g78
g59
NtRp1213
(dp1214
g62
(dp1215
sg71
g1200
sg64
(lp1216
g57
(g58
g59
NtRp1217
(dp1218
g62
(dp1219
g70
I4
ssg71
g1213
sg64
(lp1220
S'127.0.0.1:8000'
p1221
asbasbasbag57
(g73
g59
NtRp1222
(dp1223
g62
(dp1224
sg71
g822
sg64
(lp1225
g57
(g78
g59
NtRp1226
(dp1227
g62
(dp1228
g82
g83
ssg71
g1222
sg64
(lp1229
S'http_origin'
p1230
asbag57
(g78
g59
NtRp1231
(dp1232
g62
(dp1233
g89
g90
ssg71
g1222
sg64
(lp1234
S':'
asbag57
(g78
g59
NtRp1235
(dp1236
g62
(dp1237
sg71
g1222
sg64
(lp1238
g57
(g58
g59
NtRp1239
(dp1240
g62
(dp1241
g70
I4
ssg71
g1235
sg64
(lp1242
S'http://127.0.0.1:8000'
p1243
asbasbasbag57
(g73
g59
NtRp1244
(dp1245
g62
(dp1246
sg71
g822
sg64
(lp1247
g57
(g78
g59
NtRp1248
(dp1249
g62
(dp1250
g82
g83
ssg71
g1244
sg64
(lp1251
S'http_referer'
p1252
asbag57
(g78
g59
NtRp1253
(dp1254
g62
(dp1255
g89
g90
ssg71
g1244
sg64
(lp1256
S':'
asbag57
(g78
g59
NtRp1257
(dp1258
g62
(dp1259
sg71
g1244
sg64
(lp1260
g57
(g58
g59
NtRp1261
(dp1262
g62
(dp1263
g70
I4
ssg71
g1257
sg64
(lp1264
S'http://127.0.0.1:8000/blogpost/default/show'
p1265
asbasbasbag57
(g73
g59
NtRp1266
(dp1267
g62
(dp1268
sg71
g822
sg64
(lp1269
g57
(g78
g59
NtRp1270
(dp1271
g62
(dp1272
g82
g83
ssg71
g1266
sg64
(lp1273
S'http_upgrade_insecure_requests'
p1274
asbag57
(g78
g59
NtRp1275
(dp1276
g62
(dp1277
g89
g90
ssg71
g1266
sg64
(lp1278
S':'
asbag57
(g78
g59
NtRp1279
(dp1280
g62
(dp1281
sg71
g1266
sg64
(lp1282
g57
(g58
g59
NtRp1283
(dp1284
g62
(dp1285
g70
I4
ssg71
g1279
sg64
(lp1286
S'1'
asbasbasbag57
(g73
g59
NtRp1287
(dp1288
g62
(dp1289
sg71
g822
sg64
(lp1290
g57
(g78
g59
NtRp1291
(dp1292
g62
(dp1293
g82
g83
ssg71
g1287
sg64
(lp1294
S'http_user_agent'
p1295
asbag57
(g78
g59
NtRp1296
(dp1297
g62
(dp1298
g89
g90
ssg71
g1287
sg64
(lp1299
S':'
asbag57
(g78
g59
NtRp1300
(dp1301
g62
(dp1302
sg71
g1287
sg64
(lp1303
g57
(g58
g59
NtRp1304
(dp1305
g62
(dp1306
g70
I4
ssg71
g1300
sg64
(lp1307
S'Mozilla/5.0 (X11; Linux i686) AppleWebKit/537.36 (KHTML, like Gecko) Chrome/48.0.2564.116 Safari/537.36'
p1308
asbasbasbag57
(g73
g59
NtRp1309
(dp1310
g62
(dp1311
sg71
g822
sg64
(lp1312
g57
(g78
g59
NtRp1313
(dp1314
g62
(dp1315
g82
g83
ssg71
g1309
sg64
(lp1316
S'is_jython'
p1317
asbag57
(g78
g59
NtRp1318
(dp1319
g62
(dp1320
g89
g90
ssg71
g1309
sg64
(lp1321
S':'
asbag57
(g78
g59
NtRp1322
(dp1323
g62
(dp1324
sg71
g1309
sg64
(lp1325
g57
(g58
g59
NtRp1326
(dp1327
g62
(dp1328
g70
I4
ssg71
g1322
sg64
(lp1329
g100
asbasbasbag57
(g73
g59
NtRp1330
(dp1331
g62
(dp1332
sg71
g822
sg64
(lp1333
g57
(g78
g59
NtRp1334
(dp1335
g62
(dp1336
g82
g83
ssg71
g1330
sg64
(lp1337
S'is_pypy'
p1338
asbag57
(g78
g59
NtRp1339
(dp1340
g62
(dp1341
g89
g90
ssg71
g1330
sg64
(lp1342
S':'
asbag57
(g78
g59
NtRp1343
(dp1344
g62
(dp1345
sg71
g1330
sg64
(lp1346
g57
(g58
g59
NtRp1347
(dp1348
g62
(dp1349
g70
I4
ssg71
g1343
sg64
(lp1350
g100
asbasbasbag57
(g73
g59
NtRp1351
(dp1352
g62
(dp1353
sg71
g822
sg64
(lp1354
g57
(g78
g59
NtRp1355
(dp1356
g62
(dp1357
g82
g83
ssg71
g1351
sg64
(lp1358
S'path_info'
p1359
asbag57
(g78
g59
NtRp1360
(dp1361
g62
(dp1362
g89
g90
ssg71
g1351
sg64
(lp1363
S':'
asbag57
(g78
g59
NtRp1364
(dp1365
g62
(dp1366
sg71
g1351
sg64
(lp1367
g57
(g58
g59
NtRp1368
(dp1369
g62
(dp1370
g70
I4
ssg71
g1364
sg64
(lp1371
S'/blogpost/default/show'
p1372
asbasbasbag57
(g73
g59
NtRp1373
(dp1374
g62
(dp1375
sg71
g822
sg64
(lp1376
g57
(g78
g59
NtRp1377
(dp1378
g62
(dp1379
g82
g83
ssg71
g1373
sg64
(lp1380
S'query_string'
p1381
asbag57
(g78
g59
NtRp1382
(dp1383
g62
(dp1384
g89
g90
ssg71
g1373
sg64
(lp1385
S':'
asbag57
(g78
g59
NtRp1386
(dp1387
g62
(dp1388
sg71
g1373
sg64
(lp1389
g57
(g58
g59
NtRp1390
(dp1391
g62
(dp1392
g70
I4
ssg71
g1386
sg64
(lp1393
S''
asbasbasbag57
(g73
g59
NtRp1394
(dp1395
g62
(dp1396
sg71
g822
sg64
(lp1397
g57
(g78
g59
NtRp1398
(dp1399
g62
(dp1400
g82
g83
ssg71
g1394
sg64
(lp1401
S'remote_addr'
p1402
asbag57
(g78
g59
NtRp1403
(dp1404
g62
(dp1405
g89
g90
ssg71
g1394
sg64
(lp1406
S':'
asbag57
(g78
g59
NtRp1407
(dp1408
g62
(dp1409
sg71
g1394
sg64
(lp1410
g57
(g58
g59
NtRp1411
(dp1412
g62
(dp1413
g70
I4
ssg71
g1407
sg64
(lp1414
g190
asbasbasbag57
(g73
g59
NtRp1415
(dp1416
g62
(dp1417
sg71
g822
sg64
(lp1418
g57
(g78
g59
NtRp1419
(dp1420
g62
(dp1421
g82
g83
ssg71
g1415
sg64
(lp1422
S'remote_port'
p1423
asbag57
(g78
g59
NtRp1424
(dp1425
g62
(dp1426
g89
g90
ssg71
g1415
sg64
(lp1427
S':'
asbag57
(g78
g59
NtRp1428
(dp1429
g62
(dp1430
sg71
g1415
sg64
(lp1431
g57
(g58
g59
NtRp1432
(dp1433
g62
(dp1434
g70
I4
ssg71
g1428
sg64
(lp1435
S'45847'
p1436
asbasbasbag57
(g73
g59
NtRp1437
(dp1438
g62
(dp1439
sg71
g822
sg64
(lp1440
g57
(g78
g59
NtRp1441
(dp1442
g62
(dp1443
g82
g83
ssg71
g1437
sg64
(lp1444
S'request_method'
p1445
asbag57
(g78
g59
NtRp1446
(dp1447
g62
(dp1448
g89
g90
ssg71
g1437
sg64
(lp1449
S':'
asbag57
(g78
g59
NtRp1450
(dp1451
g62
(dp1452
sg71
g1437
sg64
(lp1453
g57
(g58
g59
NtRp1454
(dp1455
g62
(dp1456
g70
I4
ssg71
g1450
sg64
(lp1457
S'POST'
p1458
asbasbasbag57
(g73
g59
NtRp1459
(dp1460
g62
(dp1461
sg71
g822
sg64
(lp1462
g57
(g78
g59
NtRp1463
(dp1464
g62
(dp1465
g82
g83
ssg71
g1459
sg64
(lp1466
S'script_name'
p1467
asbag57
(g78
g59
NtRp1468
(dp1469
g62
(dp1470
g89
g90
ssg71
g1459
sg64
(lp1471
S':'
asbag57
(g78
g59
NtRp1472
(dp1473
g62
(dp1474
sg71
g1459
sg64
(lp1475
g57
(g58
g59
NtRp1476
(dp1477
g62
(dp1478
g70
I4
ssg71
g1472
sg64
(lp1479
S''
asbasbasbag57
(g73
g59
NtRp1480
(dp1481
g62
(dp1482
sg71
g822
sg64
(lp1483
g57
(g78
g59
NtRp1484
(dp1485
g62
(dp1486
g82
g83
ssg71
g1480
sg64
(lp1487
S'server_name'
p1488
asbag57
(g78
g59
NtRp1489
(dp1490
g62
(dp1491
g89
g90
ssg71
g1480
sg64
(lp1492
S':'
asbag57
(g78
g59
NtRp1493
(dp1494
g62
(dp1495
sg71
g1480
sg64
(lp1496
g57
(g58
g59
NtRp1497
(dp1498
g62
(dp1499
g70
I4
ssg71
g1493
sg64
(lp1500
S'mukul-INVALID'
p1501
asbasbasbag57
(g73
g59
NtRp1502
(dp1503
g62
(dp1504
sg71
g822
sg64
(lp1505
g57
(g78
g59
NtRp1506
(dp1507
g62
(dp1508
g82
g83
ssg71
g1502
sg64
(lp1509
S'server_port'
p1510
asbag57
(g78
g59
NtRp1511
(dp1512
g62
(dp1513
g89
g90
ssg71
g1502
sg64
(lp1514
S':'
asbag57
(g78
g59
NtRp1515
(dp1516
g62
(dp1517
sg71
g1502
sg64
(lp1518
g57
(g58
g59
NtRp1519
(dp1520
g62
(dp1521
g70
I4
ssg71
g1515
sg64
(lp1522
S'8000'
p1523
asbasbasbag57
(g73
g59
NtRp1524
(dp1525
g62
(dp1526
sg71
g822
sg64
(lp1527
g57
(g78
g59
NtRp1528
(dp1529
g62
(dp1530
g82
g83
ssg71
g1524
sg64
(lp1531
S'server_protocol'
p1532
asbag57
(g78
g59
NtRp1533
(dp1534
g62
(dp1535
g89
g90
ssg71
g1524
sg64
(lp1536
S':'
asbag57
(g78
g59
NtRp1537
(dp1538
g62
(dp1539
sg71
g1524
sg64
(lp1540
g57
(g58
g59
NtRp1541
(dp1542
g62
(dp1543
g70
I4
ssg71
g1537
sg64
(lp1544
S'HTTP/1.1'
p1545
asbasbasbag57
(g73
g59
NtRp1546
(dp1547
g62
(dp1548
sg71
g822
sg64
(lp1549
g57
(g78
g59
NtRp1550
(dp1551
g62
(dp1552
g82
g83
ssg71
g1546
sg64
(lp1553
S'server_software'
p1554
asbag57
(g78
g59
NtRp1555
(dp1556
g62
(dp1557
g89
g90
ssg71
g1546
sg64
(lp1558
S':'
asbag57
(g78
g59
NtRp1559
(dp1560
g62
(dp1561
sg71
g1546
sg64
(lp1562
g57
(g58
g59
NtRp1563
(dp1564
g62
(dp1565
g70
I4
ssg71
g1559
sg64
(lp1566
S'Rocket 1.2.4'
p1567
asbasbasbag57
(g73
g59
NtRp1568
(dp1569
g62
(dp1570
sg71
g822
sg64
(lp1571
g57
(g78
g59
NtRp1572
(dp1573
g62
(dp1574
g82
g83
ssg71
g1568
sg64
(lp1575
S'web2py_crontype'
p1576
asbag57
(g78
g59
NtRp1577
(dp1578
g62
(dp1579
g89
g90
ssg71
g1568
sg64
(lp1580
S':'
asbag57
(g78
g59
NtRp1581
(dp1582
g62
(dp1583
sg71
g1568
sg64
(lp1584
g57
(g58
g59
NtRp1585
(dp1586
g62
(dp1587
g70
I4
ssg71
g1581
sg64
(lp1588
S'hard'
p1589
asbasbasbag57
(g73
g59
NtRp1590
(dp1591
g62
(dp1592
sg71
g822
sg64
(lp1593
g57
(g78
g59
NtRp1594
(dp1595
g62
(dp1596
g82
g83
ssg71
g1590
sg64
(lp1597
S'web2py_path'
p1598
asbag57
(g78
g59
NtRp1599
(dp1600
g62
(dp1601
g89
g90
ssg71
g1590
sg64
(lp1602
S':'
asbag57
(g78
g59
NtRp1603
(dp1604
g62
(dp1605
sg71
g1590
sg64
(lp1606
g57
(g58
g59
NtRp1607
(dp1608
g62
(dp1609
g70
I4
ssg71
g1603
sg64
(lp1610
g869
asbasbasbag57
(g73
g59
NtRp1611
(dp1612
g62
(dp1613
sg71
g822
sg64
(lp1614
g57
(g78
g59
NtRp1615
(dp1616
g62
(dp1617
g82
g83
ssg71
g1611
sg64
(lp1618
S'web2py_version'
p1619
asbag57
(g78
g59
NtRp1620
(dp1621
g62
(dp1622
g89
g90
ssg71
g1611
sg64
(lp1623
S':'
asbag57
(g78
g59
NtRp1624
(dp1625
g62
(dp1626
sg71
g1611
sg64
(lp1627
g57
(g58
g59
NtRp1628
(dp1629
g62
(dp1630
g70
I4
ssg71
g1624
sg64
(lp1631
g57
(g66
g59
NtRp1632
(dp1633
g62
(dp1634
g70
I3
ssg71
Nsg64
(lp1635
g57
(g73
g59
NtRp1636
(dp1637
g62
(dp1638
sg71
g1632
sg64
(lp1639
g57
(g78
g59
NtRp1640
(dp1641
g62
(dp1642
sg71
g1636
sg64
(lp1643
g57
(g58
g59
NtRp1644
(dp1645
g62
(dp1646
g70
I3
ssg71
g1640
sg64
(lp1647
S'1'
asbasbasbag57
(g73
g59
NtRp1648
(dp1649
g62
(dp1650
sg71
g1632
sg64
(lp1651
g57
(g78
g59
NtRp1652
(dp1653
g62
(dp1654
sg71
g1648
sg64
(lp1655
g57
(g58
g59
NtRp1656
(dp1657
g62
(dp1658
g70
I3
ssg71
g1652
sg64
(lp1659
S'99'
p1660
asbasbasbag57
(g73
g59
NtRp1661
(dp1662
g62
(dp1663
sg71
g1632
sg64
(lp1664
g57
(g78
g59
NtRp1665
(dp1666
g62
(dp1667
sg71
g1661
sg64
(lp1668
g57
(g58
g59
NtRp1669
(dp1670
g62
(dp1671
g70
I3
ssg71
g1665
sg64
(lp1672
S'4'
asbasbasbag57
(g73
g59
NtRp1673
(dp1674
g62
(dp1675
sg71
g1632
sg64
(lp1676
g57
(g78
g59
NtRp1677
(dp1678
g62
(dp1679
sg71
g1673
sg64
(lp1680
g57
(g58
g59
NtRp1681
(dp1682
g62
(dp1683
g70
I3
ssg71
g1677
sg64
(lp1684
S'datetime.datetime(2011, 12, 14, 14, 46, 14)'
p1685
asbasbasbag57
(g73
g59
NtRp1686
(dp1687
g62
(dp1688
sg71
g1632
sg64
(lp1689
g57
(g78
g59
NtRp1690
(dp1691
g62
(dp1692
sg71
g1686
sg64
(lp1693
g57
(g58
g59
NtRp1694
(dp1695
g62
(dp1696
g70
I3
ssg71
g1690
sg64
(lp1697
S'stable'
p1698
asbasbasbasbasbasbasbag57
(g73
g59
NtRp1699
(dp1700
g62
(dp1701
sg71
g822
sg64
(lp1702
g57
(g78
g59
NtRp1703
(dp1704
g62
(dp1705
g82
g83
ssg71
g1699
sg64
(lp1706
S'wsgi_errors'
p1707
asbag57
(g78
g59
NtRp1708
(dp1709
g62
(dp1710
g89
g90
ssg71
g1699
sg64
(lp1711
S':'
asbag57
(g78
g59
NtRp1712
(dp1713
g62
(dp1714
sg71
g1699
sg64
(lp1715
g57
(g58
g59
NtRp1716
(dp1717
g62
(dp1718
g70
I4
ssg71
g1712
sg64
(lp1719
S"<open file '<stderr>', mode 'w' at 0xb727d0d0>"
p1720
asbasbasbag57
(g73
g59
NtRp1721
(dp1722
g62
(dp1723
sg71
g822
sg64
(lp1724
g57
(g78
g59
NtRp1725
(dp1726
g62
(dp1727
g82
g83
ssg71
g1721
sg64
(lp1728
S'wsgi_file_wrapper'
p1729
asbag57
(g78
g59
NtRp1730
(dp1731
g62
(dp1732
g89
g90
ssg71
g1721
sg64
(lp1733
S':'
asbag57
(g78
g59
NtRp1734
(dp1735
g62
(dp1736
sg71
g1721
sg64
(lp1737
g57
(g58
g59
NtRp1738
(dp1739
g62
(dp1740
g70
I4
ssg71
g1734
sg64
(lp1741
S'<class wsgiref.util.FileWrapper at 0xa1764dc>'
p1742
asbasbasbag57
(g73
g59
NtRp1743
(dp1744
g62
(dp1745
sg71
g822
sg64
(lp1746
g57
(g78
g59
NtRp1747
(dp1748
g62
(dp1749
g82
g83
ssg71
g1743
sg64
(lp1750
S'wsgi_input'
p1751
asbag57
(g78
g59
NtRp1752
(dp1753
g62
(dp1754
g89
g90
ssg71
g1743
sg64
(lp1755
S':'
asbag57
(g78
g59
NtRp1756
(dp1757
g62
(dp1758
sg71
g1743
sg64
(lp1759
g57
(g58
g59
NtRp1760
(dp1761
g62
(dp1762
g70
I4
ssg71
g1756
sg64
(lp1763
S'<socket._fileobject object at 0xa6a9aac>'
p1764
asbasbasbag57
(g73
g59
NtRp1765
(dp1766
g62
(dp1767
sg71
g822
sg64
(lp1768
g57
(g78
g59
NtRp1769
(dp1770
g62
(dp1771
g82
g83
ssg71
g1765
sg64
(lp1772
S'wsgi_multiprocess'
p1773
asbag57
(g78
g59
NtRp1774
(dp1775
g62
(dp1776
g89
g90
ssg71
g1765
sg64
(lp1777
S':'
asbag57
(g78
g59
NtRp1778
(dp1779
g62
(dp1780
sg71
g1765
sg64
(lp1781
g57
(g58
g59
NtRp1782
(dp1783
g62
(dp1784
g70
I4
ssg71
g1778
sg64
(lp1785
g100
asbasbasbag57
(g73
g59
NtRp1786
(dp1787
g62
(dp1788
sg71
g822
sg64
(lp1789
g57
(g78
g59
NtRp1790
(dp1791
g62
(dp1792
g82
g83
ssg71
g1786
sg64
(lp1793
S'wsgi_multithread'
p1794
asbag57
(g78
g59
NtRp1795
(dp1796
g62
(dp1797
g89
g90
ssg71
g1786
sg64
(lp1798
S':'
asbag57
(g78
g59
NtRp1799
(dp1800
g62
(dp1801
sg71
g1786
sg64
(lp1802
g57
(g58
g59
NtRp1803
(dp1804
g62
(dp1805
g70
I4
ssg71
g1799
sg64
(lp1806
S'True'
p1807
asbasbasbag57
(g73
g59
NtRp1808
(dp1809
g62
(dp1810
sg71
g822
sg64
(lp1811
g57
(g78
g59
NtRp1812
(dp1813
g62
(dp1814
g82
g83
ssg71
g1808
sg64
(lp1815
S'wsgi_run_once'
p1816
asbag57
(g78
g59
NtRp1817
(dp1818
g62
(dp1819
g89
g90
ssg71
g1808
sg64
(lp1820
S':'
asbag57
(g78
g59
NtRp1821
(dp1822
g62
(dp1823
sg71
g1808
sg64
(lp1824
g57
(g58
g59
NtRp1825
(dp1826
g62
(dp1827
g70
I4
ssg71
g1821
sg64
(lp1828
g100
asbasbasbag57
(g73
g59
NtRp1829
(dp1830
g62
(dp1831
sg71
g822
sg64
(lp1832
g57
(g78
g59
NtRp1833
(dp1834
g62
(dp1835
g82
g83
ssg71
g1829
sg64
(lp1836
S'wsgi_url_scheme'
p1837
asbag57
(g78
g59
NtRp1838
(dp1839
g62
(dp1840
g89
g90
ssg71
g1829
sg64
(lp1841
S':'
asbag57
(g78
g59
NtRp1842
(dp1843
g62
(dp1844
sg71
g1829
sg64
(lp1845
g57
(g58
g59
NtRp1846
(dp1847
g62
(dp1848
g70
I4
ssg71
g1842
sg64
(lp1849
S'http'
p1850
asbasbasbag57
(g73
g59
NtRp1851
(dp1852
g62
(dp1853
sg71
g822
sg64
(lp1854
g57
(g78
g59
NtRp1855
(dp1856
g62
(dp1857
g82
g83
ssg71
g1851
sg64
(lp1858
S'wsgi_version'
p1859
asbag57
(g78
g59
NtRp1860
(dp1861
g62
(dp1862
g89
g90
ssg71
g1851
sg64
(lp1863
S':'
asbag57
(g78
g59
NtRp1864
(dp1865
g62
(dp1866
sg71
g1851
sg64
(lp1867
g57
(g58
g59
NtRp1868
(dp1869
g62
(dp1870
g70
I4
ssg71
g1864
sg64
(lp1871
g57
(g66
g59
NtRp1872
(dp1873
g62
(dp1874
g70
I3
ssg71
Nsg64
(lp1875
g57
(g73
g59
NtRp1876
(dp1877
g62
(dp1878
sg71
g1872
sg64
(lp1879
g57
(g78
g59
NtRp1880
(dp1881
g62
(dp1882
sg71
g1876
sg64
(lp1883
g57
(g58
g59
NtRp1884
(dp1885
g62
(dp1886
g70
I3
ssg71
g1880
sg64
(lp1887
S'1'
asbasbasbag57
(g73
g59
NtRp1888
(dp1889
g62
(dp1890
sg71
g1872
sg64
(lp1891
g57
(g78
g59
NtRp1892
(dp1893
g62
(dp1894
sg71
g1888
sg64
(lp1895
g57
(g58
g59
NtRp1896
(dp1897
g62
(dp1898
g70
I3
ssg71
g1892
sg64
(lp1899
S'0'
asbasbasbasbasbasbasbasbasbasbasbag57
(g73
g59
NtRp1900
(dp1901
g62
(dp1902
sg71
g67
sg64
(lp1903
g57
(g78
g59
NtRp1904
(dp1905
g62
(dp1906
g82
g83
ssg71
g1900
sg64
(lp1907
S'extension'
p1908
asbag57
(g78
g59
NtRp1909
(dp1910
g62
(dp1911
g89
g90
ssg71
g1900
sg64
(lp1912
S':'
asbag57
(g78
g59
NtRp1913
(dp1914
g62
(dp1915
sg71
g1900
sg64
(lp1916
g57
(g58
g59
NtRp1917
(dp1918
g62
(dp1919
g70
I5
ssg71
g1913
sg64
(lp1920
S'html'
p1921
asbasbasbag57
(g73
g59
NtRp1922
(dp1923
g62
(dp1924
sg71
g67
sg64
(lp1925
g57
(g78
g59
NtRp1926
(dp1927
g62
(dp1928
g82
g83
ssg71
g1922
sg64
(lp1929
S'folder'
p1930
asbag57
(g78
g59
NtRp1931
(dp1932
g62
(dp1933
g89
g90
ssg71
g1922
sg64
(lp1934
S':'
asbag57
(g78
g59
NtRp1935
(dp1936
g62
(dp1937
sg71
g1922
sg64
(lp1938
g57
(g58
g59
NtRp1939
(dp1940
g62
(dp1941
g70
I5
ssg71
g1935
sg64
(lp1942
S'/home/mukul/web2py/applications/blogpost/'
p1943
asbasbasbag57
(g73
g59
NtRp1944
(dp1945
g62
(dp1946
sg71
g67
sg64
(lp1947
g57
(g78
g59
NtRp1948
(dp1949
g62
(dp1950
g82
g83
ssg71
g1944
sg64
(lp1951
S'function'
p1952
asbag57
(g78
g59
NtRp1953
(dp1954
g62
(dp1955
g89
g90
ssg71
g1944
sg64
(lp1956
S':'
asbag57
(g78
g59
NtRp1957
(dp1958
g62
(dp1959
sg71
g1944
sg64
(lp1960
g57
(g58
g59
NtRp1961
(dp1962
g62
(dp1963
g70
I5
ssg71
g1957
sg64
(lp1964
S'show'
p1965
asbasbasbag57
(g73
g59
NtRp1966
(dp1967
g62
(dp1968
sg71
g67
sg64
(lp1969
g57
(g78
g59
NtRp1970
(dp1971
g62
(dp1972
g82
g83
ssg71
g1966
sg64
(lp1973
S'get_vars'
p1974
asbag57
(g78
g59
NtRp1975
(dp1976
g62
(dp1977
g89
g90
ssg71
g1966
sg64
(lp1978
S':'
asbag57
(g78
g59
NtRp1979
(dp1980
g62
(dp1981
sg71
g1966
sg64
(lp1982
g57
(g58
g59
NtRp1983
(dp1984
g62
(dp1985
g70
I5
ssg71
g1979
sg64
(lp1986
g57
(g66
g59
NtRp1987
(dp1988
g62
(dp1989
g70
I4
ssg71
Nsg64
(lp1990
sbasbasbasbag57
(g73
g59
NtRp1991
(dp1992
g62
(dp1993
sg71
g67
sg64
(lp1994
g57
(g78
g59
NtRp1995
(dp1996
g62
(dp1997
g82
g83
ssg71
g1991
sg64
(lp1998
S'global_settings'
p1999
asbag57
(g78
g59
NtRp2000
(dp2001
g62
(dp2002
g89
g90
ssg71
g1991
sg64
(lp2003
S':'
asbag57
(g78
g59
NtRp2004
(dp2005
g62
(dp2006
sg71
g1991
sg64
(lp2007
g57
(g58
g59
NtRp2008
(dp2009
g62
(dp2010
g70
I5
ssg71
g2004
sg64
(lp2011
g57
(g66
g59
NtRp2012
(dp2013
g62
(dp2014
g70
I4
ssg71
Nsg64
(lp2015
g57
(g73
g59
NtRp2016
(dp2017
g62
(dp2018
sg71
g2012
sg64
(lp2019
g57
(g78
g59
NtRp2020
(dp2021
g62
(dp2022
g82
g83
ssg71
g2016
sg64
(lp2023
g834
asbag57
(g78
g59
NtRp2024
(dp2025
g62
(dp2026
g89
g90
ssg71
g2016
sg64
(lp2027
S':'
asbag57
(g78
g59
NtRp2028
(dp2029
g62
(dp2030
sg71
g2016
sg64
(lp2031
g57
(g58
g59
NtRp2032
(dp2033
g62
(dp2034
g70
I4
ssg71
g2028
sg64
(lp2035
S"set(['/home/mukul/web2py/applications/admin/', '/home/mukul/web2py/applications/blogpost/', '/home/mukul/web2py/applications/welcome/'])"
p2036
asbasbasbag57
(g73
g59
NtRp2037
(dp2038
g62
(dp2039
sg71
g2012
sg64
(lp2040
g57
(g78
g59
NtRp2041
(dp2042
g62
(dp2043
g82
g83
ssg71
g2037
sg64
(lp2044
g856
asbag57
(g78
g59
NtRp2045
(dp2046
g62
(dp2047
g89
g90
ssg71
g2037
sg64
(lp2048
S':'
asbag57
(g78
g59
NtRp2049
(dp2050
g62
(dp2051
sg71
g2037
sg64
(lp2052
g57
(g58
g59
NtRp2053
(dp2054
g62
(dp2055
g70
I4
ssg71
g2049
sg64
(lp2056
g869
asbasbasbag57
(g73
g59
NtRp2057
(dp2058
g62
(dp2059
sg71
g2012
sg64
(lp2060
g57
(g78
g59
NtRp2061
(dp2062
g62
(dp2063
g82
g83
ssg71
g2057
sg64
(lp2064
g878
asbag57
(g78
g59
NtRp2065
(dp2066
g62
(dp2067
g89
g90
ssg71
g2057
sg64
(lp2068
S':'
asbag57
(g78
g59
NtRp2069
(dp2070
g62
(dp2071
sg71
g2057
sg64
(lp2072
g57
(g58
g59
NtRp2073
(dp2074
g62
(dp2075
g70
I4
ssg71
g2069
sg64
(lp2076
g57
(g66
g59
NtRp2077
(dp2078
g62
(dp2079
g70
I3
ssg71
Nsg64
(lp2080
sbasbasbasbag57
(g73
g59
NtRp2081
(dp2082
g62
(dp2083
sg71
g2012
sg64
(lp2084
g57
(g78
g59
NtRp2085
(dp2086
g62
(dp2087
g82
g83
ssg71
g2081
sg64
(lp2088
g903
asbag57
(g78
g59
NtRp2089
(dp2090
g62
(dp2091
g89
g90
ssg71
g2081
sg64
(lp2092
S':'
asbag57
(g78
g59
NtRp2093
(dp2094
g62
(dp2095
sg71
g2081
sg64
(lp2096
g57
(g58
g59
NtRp2097
(dp2098
g62
(dp2099
g70
I4
ssg71
g2093
sg64
(lp2100
S"<Values at 0xa3b678c: {'verbose': False, 'ip': '127.0.0.1', 'shutdown_timeout': 5, 'taskbar': False, 'port': 8000, 'maxthreads': None, 'softcron': False, 'server_name': 'mukul-INVALID', 'bpython': False, 'nogui': False, 'nocron': False, 'extcron': False, 'debuglevel': 30, 'test': None, 'folder': '/home/mukul/web2py', 'config': '', 'import_models': False, 'winservice': '', 'shell': None, 'run': '', 'log_filename': 'httpserver.log', 'args': [''], 'socket_timeout': 1, 'profiler_filename': None, 'ssl_private_key': '', 'password': '<ask>', 'request_queue_size': 5, 'ssl_certificate': '', 'cronjob': False, 'plain': False, 'quiet': False, 'interfaces': None, 'minthreads': None, 'timeout': 10, 'numthreads': None, 'nobanner': False, 'pid_filename': 'httpserver.pid'}>"
p2101
asbasbasbag57
(g73
g59
NtRp2102
(dp2103
g62
(dp2104
sg71
g2012
sg64
(lp2105
g57
(g78
g59
NtRp2106
(dp2107
g62
(dp2108
g82
g83
ssg71
g2102
sg64
(lp2109
g969
asbag57
(g78
g59
NtRp2110
(dp2111
g62
(dp2112
g89
g90
ssg71
g2102
sg64
(lp2113
S':'
asbag57
(g78
g59
NtRp2114
(dp2115
g62
(dp2116
sg71
g2102
sg64
(lp2117
g57
(g58
g59
NtRp2118
(dp2119
g62
(dp2120
g70
I4
ssg71
g2114
sg64
(lp2121
S'set([])'
p2122
asbasbasbag57
(g73
g59
NtRp2123
(dp2124
g62
(dp2125
sg71
g2012
sg64
(lp2126
g57
(g78
g59
NtRp2127
(dp2128
g62
(dp2129
g82
g83
ssg71
g2123
sg64
(lp2130
g991
asbag57
(g78
g59
NtRp2131
(dp2132
g62
(dp2133
g89
g90
ssg71
g2123
sg64
(lp2134
S':'
asbag57
(g78
g59
NtRp2135
(dp2136
g62
(dp2137
sg71
g2123
sg64
(lp2138
g57
(g58
g59
NtRp2139
(dp2140
g62
(dp2141
g70
I4
ssg71
g2135
sg64
(lp2142
g100
asbasbasbag57
(g73
g59
NtRp2143
(dp2144
g62
(dp2145
sg71
g2012
sg64
(lp2146
g57
(g78
g59
NtRp2147
(dp2148
g62
(dp2149
g82
g83
ssg71
g2143
sg64
(lp2150
g1012
asbag57
(g78
g59
NtRp2151
(dp2152
g62
(dp2153
g89
g90
ssg71
g2143
sg64
(lp2154
S':'
asbag57
(g78
g59
NtRp2155
(dp2156
g62
(dp2157
sg71
g2143
sg64
(lp2158
g57
(g58
g59
NtRp2159
(dp2160
g62
(dp2161
g70
I4
ssg71
g2155
sg64
(lp2162
g1025
asbasbasbag57
(g73
g59
NtRp2163
(dp2164
g62
(dp2165
sg71
g2012
sg64
(lp2166
g57
(g78
g59
NtRp2167
(dp2168
g62
(dp2169
g82
g83
ssg71
g2163
sg64
(lp2170
g1317
asbag57
(g78
g59
NtRp2171
(dp2172
g62
(dp2173
g89
g90
ssg71
g2163
sg64
(lp2174
S':'
asbag57
(g78
g59
NtRp2175
(dp2176
g62
(dp2177
sg71
g2163
sg64
(lp2178
g57
(g58
g59
NtRp2179
(dp2180
g62
(dp2181
g70
I4
ssg71
g2175
sg64
(lp2182
g100
asbasbasbag57
(g73
g59
NtRp2183
(dp2184
g62
(dp2185
sg71
g2012
sg64
(lp2186
g57
(g78
g59
NtRp2187
(dp2188
g62
(dp2189
g82
g83
ssg71
g2183
sg64
(lp2190
g1338
asbag57
(g78
g59
NtRp2191
(dp2192
g62
(dp2193
g89
g90
ssg71
g2183
sg64
(lp2194
S':'
asbag57
(g78
g59
NtRp2195
(dp2196
g62
(dp2197
sg71
g2183
sg64
(lp2198
g57
(g58
g59
NtRp2199
(dp2200
g62
(dp2201
g70
I4
ssg71
g2195
sg64
(lp2202
g100
asbasbasbag57
(g73
g59
NtRp2203
(dp2204
g62
(dp2205
sg71
g2012
sg64
(lp2206
g57
(g78
g59
NtRp2207
(dp2208
g62
(dp2209
g82
g83
ssg71
g2203
sg64
(lp2210
g1576
asbag57
(g78
g59
NtRp2211
(dp2212
g62
(dp2213
g89
g90
ssg71
g2203
sg64
(lp2214
S':'
asbag57
(g78
g59
NtRp2215
(dp2216
g62
(dp2217
sg71
g2203
sg64
(lp2218
g57
(g58
g59
NtRp2219
(dp2220
g62
(dp2221
g70
I4
ssg71
g2215
sg64
(lp2222
g1589
asbasbasbag57
(g73
g59
NtRp2223
(dp2224
g62
(dp2225
sg71
g2012
sg64
(lp2226
g57
(g78
g59
NtRp2227
(dp2228
g62
(dp2229
g82
g83
ssg71
g2223
sg64
(lp2230
g1619
asbag57
(g78
g59
NtRp2231
(dp2232
g62
(dp2233
g89
g90
ssg71
g2223
sg64
(lp2234
S':'
asbag57
(g78
g59
NtRp2235
(dp2236
g62
(dp2237
sg71
g2223
sg64
(lp2238
g57
(g58
g59
NtRp2239
(dp2240
g62
(dp2241
g70
I4
ssg71
g2235
sg64
(lp2242
g57
(g66
g59
NtRp2243
(dp2244
g62
(dp2245
g70
I3
ssg71
Nsg64
(lp2246
g57
(g73
g59
NtRp2247
(dp2248
g62
(dp2249
sg71
g2243
sg64
(lp2250
g57
(g78
g59
NtRp2251
(dp2252
g62
(dp2253
sg71
g2247
sg64
(lp2254
g57
(g58
g59
NtRp2255
(dp2256
g62
(dp2257
g70
I3
ssg71
g2251
sg64
(lp2258
S'1'
asbasbasbag57
(g73
g59
NtRp2259
(dp2260
g62
(dp2261
sg71
g2243
sg64
(lp2262
g57
(g78
g59
NtRp2263
(dp2264
g62
(dp2265
sg71
g2259
sg64
(lp2266
g57
(g58
g59
NtRp2267
(dp2268
g62
(dp2269
g70
I3
ssg71
g2263
sg64
(lp2270
S'99'
p2271
asbasbasbag57
(g73
g59
NtRp2272
(dp2273
g62
(dp2274
sg71
g2243
sg64
(lp2275
g57
(g78
g59
NtRp2276
(dp2277
g62
(dp2278
sg71
g2272
sg64
(lp2279
g57
(g58
g59
NtRp2280
(dp2281
g62
(dp2282
g70
I3
ssg71
g2276
sg64
(lp2283
S'4'
asbasbasbag57
(g73
g59
NtRp2284
(dp2285
g62
(dp2286
sg71
g2243
sg64
(lp2287
g57
(g78
g59
NtRp2288
(dp2289
g62
(dp2290
sg71
g2284
sg64
(lp2291
g57
(g58
g59
NtRp2292
(dp2293
g62
(dp2294
g70
I3
ssg71
g2288
sg64
(lp2295
S'datetime.datetime(2011, 12, 14, 14, 46, 14)'
p2296
asbasbasbag57
(g73
g59
NtRp2297
(dp2298
g62
(dp2299
sg71
g2243
sg64
(lp2300
g57
(g78
g59
NtRp2301
(dp2302
g62
(dp2303
sg71
g2297
sg64
(lp2304
g57
(g58
g59
NtRp2305
(dp2306
g62
(dp2307
g70
I3
ssg71
g2301
sg64
(lp2308
g1698
asbasbasbasbasbasbasbasbasbasbasbag57
(g73
g59
NtRp2309
(dp2310
g62
(dp2311
sg71
g67
sg64
(lp2312
g57
(g78
g59
NtRp2313
(dp2314
g62
(dp2315
g82
g83
ssg71
g2309
sg64
(lp2316
S'is_https'
p2317
asbag57
(g78
g59
NtRp2318
(dp2319
g62
(dp2320
g89
g90
ssg71
g2309
sg64
(lp2321
S':'
asbag57
(g78
g59
NtRp2322
(dp2323
g62
(dp2324
sg71
g2309
sg64
(lp2325
g57
(g58
g59
NtRp2326
(dp2327
g62
(dp2328
g70
I5
ssg71
g2322
sg64
(lp2329
g100
asbasbasbag57
(g73
g59
NtRp2330
(dp2331
g62
(dp2332
sg71
g67
sg64
(lp2333
g57
(g78
g59
NtRp2334
(dp2335
g62
(dp2336
g82
g83
ssg71
g2330
sg64
(lp2337
S'is_local'
p2338
asbag57
(g78
g59
NtRp2339
(dp2340
g62
(dp2341
g89
g90
ssg71
g2330
sg64
(lp2342
S':'
asbag57
(g78
g59
NtRp2343
(dp2344
g62
(dp2345
sg71
g2330
sg64
(lp2346
g57
(g58
g59
NtRp2347
(dp2348
g62
(dp2349
g70
I5
ssg71
g2343
sg64
(lp2350
g1807
asbasbasbag57
(g73
g59
NtRp2351
(dp2352
g62
(dp2353
sg71
g67
sg64
(lp2354
g57
(g78
g59
NtRp2355
(dp2356
g62
(dp2357
g82
g83
ssg71
g2351
sg64
(lp2358
S'is_restful'
p2359
asbag57
(g78
g59
NtRp2360
(dp2361
g62
(dp2362
g89
g90
ssg71
g2351
sg64
(lp2363
S':'
asbag57
(g78
g59
NtRp2364
(dp2365
g62
(dp2366
sg71
g2351
sg64
(lp2367
g57
(g58
g59
NtRp2368
(dp2369
g62
(dp2370
g70
I5
ssg71
g2364
sg64
(lp2371
g100
asbasbasbag57
(g73
g59
NtRp2372
(dp2373
g62
(dp2374
sg71
g67
sg64
(lp2375
g57
(g78
g59
NtRp2376
(dp2377
g62
(dp2378
g82
g83
ssg71
g2372
sg64
(lp2379
S'now'
p2380
asbag57
(g78
g59
NtRp2381
(dp2382
g62
(dp2383
g89
g90
ssg71
g2372
sg64
(lp2384
S':'
asbag57
(g78
g59
NtRp2385
(dp2386
g62
(dp2387
sg71
g2372
sg64
(lp2388
g57
(g58
g59
NtRp2389
(dp2390
g62
(dp2391
g70
I5
ssg71
g2385
sg64
(lp2392
S'datetime.datetime(2016, 5, 15, 12, 44, 15, 105890)'
p2393
asbasbasbag57
(g73
g59
NtRp2394
(dp2395
g62
(dp2396
sg71
g67
sg64
(lp2397
g57
(g78
g59
NtRp2398
(dp2399
g62
(dp2400
g82
g83
ssg71
g2394
sg64
(lp2401
S'post_vars'
p2402
asbag57
(g78
g59
NtRp2403
(dp2404
g62
(dp2405
g89
g90
ssg71
g2394
sg64
(lp2406
S':'
asbag57
(g78
g59
NtRp2407
(dp2408
g62
(dp2409
sg71
g2394
sg64
(lp2410
g57
(g58
g59
NtRp2411
(dp2412
g62
(dp2413
g70
I5
ssg71
g2407
sg64
(lp2414
g57
(g66
g59
NtRp2415
(dp2416
g62
(dp2417
g70
I4
ssg71
Nsg64
(lp2418
g57
(g73
g59
NtRp2419
(dp2420
g62
(dp2421
sg71
g2415
sg64
(lp2422
g57
(g78
g59
NtRp2423
(dp2424
g62
(dp2425
g82
g83
ssg71
g2419
sg64
(lp2426
S'comment_data'
p2427
asbag57
(g78
g59
NtRp2428
(dp2429
g62
(dp2430
g89
g90
ssg71
g2419
sg64
(lp2431
S':'
asbag57
(g78
g59
NtRp2432
(dp2433
g62
(dp2434
sg71
g2419
sg64
(lp2435
g57
(g58
g59
NtRp2436
(dp2437
g62
(dp2438
g70
I4
ssg71
g2432
sg64
(lp2439
S'hjjjj\r\nkkkkk\r\nllll'
p2440
asbasbasbag57
(g73
g59
NtRp2441
(dp2442
g62
(dp2443
sg71
g2415
sg64
(lp2444
g57
(g78
g59
NtRp2445
(dp2446
g62
(dp2447
g82
g83
ssg71
g2441
sg64
(lp2448
S'submit'
p2449
asbag57
(g78
g59
NtRp2450
(dp2451
g62
(dp2452
g89
g90
ssg71
g2441
sg64
(lp2453
S':'
asbag57
(g78
g59
NtRp2454
(dp2455
g62
(dp2456
sg71
g2441
sg64
(lp2457
g57
(g58
g59
NtRp2458
(dp2459
g62
(dp2460
g70
I4
ssg71
g2454
sg64
(lp2461
S'Submit'
p2462
asbasbasbasbasbasbasbag57
(g73
g59
NtRp2463
(dp2464
g62
(dp2465
sg71
g67
sg64
(lp2466
g57
(g78
g59
NtRp2467
(dp2468
g62
(dp2469
g82
g83
ssg71
g2463
sg64
(lp2470
S'url'
p2471
asbag57
(g78
g59
NtRp2472
(dp2473
g62
(dp2474
g89
g90
ssg71
g2463
sg64
(lp2475
S':'
asbag57
(g78
g59
NtRp2476
(dp2477
g62
(dp2478
sg71
g2463
sg64
(lp2479
g57
(g58
g59
NtRp2480
(dp2481
g62
(dp2482
g70
I5
ssg71
g2476
sg64
(lp2483
S'/blogpost/default/show'
p2484
asbasbasbag57
(g73
g59
NtRp2485
(dp2486
g62
(dp2487
sg71
g67
sg64
(lp2488
g57
(g78
g59
NtRp2489
(dp2490
g62
(dp2491
g82
g83
ssg71
g2485
sg64
(lp2492
S'utcnow'
p2493
asbag57
(g78
g59
NtRp2494
(dp2495
g62
(dp2496
g89
g90
ssg71
g2485
sg64
(lp2497
S':'
asbag57
(g78
g59
NtRp2498
(dp2499
g62
(dp2500
sg71
g2485
sg64
(lp2501
g57
(g58
g59
NtRp2502
(dp2503
g62
(dp2504
g70
I5
ssg71
g2498
sg64
(lp2505
S'datetime.datetime(2016, 5, 15, 7, 14, 15, 105927)'
p2506
asbasbasbag57
(g73
g59
NtRp2507
(dp2508
g62
(dp2509
sg71
g67
sg64
(lp2510
g57
(g78
g59
NtRp2511
(dp2512
g62
(dp2513
g82
g83
ssg71
g2507
sg64
(lp2514
S'uuid'
p2515
asbag57
(g78
g59
NtRp2516
(dp2517
g62
(dp2518
g89
g90
ssg71
g2507
sg64
(lp2519
S':'
asbag57
(g78
g59
NtRp2520
(dp2521
g62
(dp2522
sg71
g2507
sg64
(lp2523
g57
(g58
g59
NtRp2524
(dp2525
g62
(dp2526
g70
I5
ssg71
g2520
sg64
(lp2527
S'blogpost/127.0.0.1.2016-05-15.12-44-15.f5366054-9145-4f67-a86e-8c80c7d127da'
p2528
asbasbasbag57
(g73
g59
NtRp2529
(dp2530
g62
(dp2531
sg71
g67
sg64
(lp2532
g57
(g78
g59
NtRp2533
(dp2534
g62
(dp2535
g82
g83
ssg71
g2529
sg64
(lp2536
S'vars'
p2537
asbag57
(g78
g59
NtRp2538
(dp2539
g62
(dp2540
g89
g90
ssg71
g2529
sg64
(lp2541
S':'
asbag57
(g78
g59
NtRp2542
(dp2543
g62
(dp2544
sg71
g2529
sg64
(lp2545
g57
(g58
g59
NtRp2546
(dp2547
g62
(dp2548
g70
I5
ssg71
g2542
sg64
(lp2549
g57
(g66
g59
NtRp2550
(dp2551
g62
(dp2552
g70
I4
ssg71
Nsg64
(lp2553
g57
(g73
g59
NtRp2554
(dp2555
g62
(dp2556
sg71
g2550
sg64
(lp2557
g57
(g78
g59
NtRp2558
(dp2559
g62
(dp2560
g82
g83
ssg71
g2554
sg64
(lp2561
g2427
asbag57
(g78
g59
NtRp2562
(dp2563
g62
(dp2564
g89
g90
ssg71
g2554
sg64
(lp2565
S':'
asbag57
(g78
g59
NtRp2566
(dp2567
g62
(dp2568
sg71
g2554
sg64
(lp2569
g57
(g58
g59
NtRp2570
(dp2571
g62
(dp2572
g70
I4
ssg71
g2566
sg64
(lp2573
g2440
asbasbasbag57
(g73
g59
NtRp2574
(dp2575
g62
(dp2576
sg71
g2550
sg64
(lp2577
g57
(g78
g59
NtRp2578
(dp2579
g62
(dp2580
g82
g83
ssg71
g2574
sg64
(lp2581
g2449
asbag57
(g78
g59
NtRp2582
(dp2583
g62
(dp2584
g89
g90
ssg71
g2574
sg64
(lp2585
S':'
asbag57
(g78
g59
NtRp2586
(dp2587
g62
(dp2588
sg71
g2574
sg64
(lp2589
g57
(g58
g59
NtRp2590
(dp2591
g62
(dp2592
g70
I4
ssg71
g2586
sg64
(lp2593
g2462
asbasbasbasbasbasbasbag57
(g73
g59
NtRp2594
(dp2595
g62
(dp2596
sg71
g67
sg64
(lp2597
g57
(g78
g59
NtRp2598
(dp2599
g62
(dp2600
g82
g83
ssg71
g2594
sg64
(lp2601
S'wsgi'
p2602
asbag57
(g78
g59
NtRp2603
(dp2604
g62
(dp2605
g89
g90
ssg71
g2594
sg64
(lp2606
S':'
asbag57
(g78
g59
NtRp2607
(dp2608
g62
(dp2609
sg71
g2594
sg64
(lp2610
g57
(g58
g59
NtRp2611
(dp2612
g62
(dp2613
g70
I5
ssg71
g2607
sg64
(lp2614
g57
(g66
g59
NtRp2615
(dp2616
g62
(dp2617
g70
I4
ssg71
Nsg64
(lp2618
g57
(g73
g59
NtRp2619
(dp2620
g62
(dp2621
sg71
g2615
sg64
(lp2622
g57
(g78
g59
NtRp2623
(dp2624
g62
(dp2625
g82
g83
ssg71
g2619
sg64
(lp2626
S'environ'
p2627
asbag57
(g78
g59
NtRp2628
(dp2629
g62
(dp2630
g89
g90
ssg71
g2619
sg64
(lp2631
S':'
asbag57
(g78
g59
NtRp2632
(dp2633
g62
(dp2634
sg71
g2619
sg64
(lp2635
g57
(g58
g59
NtRp2636
(dp2637
g62
(dp2638
g70
I4
ssg71
g2632
sg64
(lp2639
g57
(g66
g59
NtRp2640
(dp2641
g62
(dp2642
g70
I3
ssg71
Nsg64
(lp2643
g57
(g73
g59
NtRp2644
(dp2645
g62
(dp2646
sg71
g2640
sg64
(lp2647
g57
(g78
g59
NtRp2648
(dp2649
g62
(dp2650
g82
g83
ssg71
g2644
sg64
(lp2651
S'CONTENT_LENGTH'
p2652
asbag57
(g78
g59
NtRp2653
(dp2654
g62
(dp2655
g89
g90
ssg71
g2644
sg64
(lp2656
S':'
asbag57
(g78
g59
NtRp2657
(dp2658
g62
(dp2659
sg71
g2644
sg64
(lp2660
g57
(g58
g59
NtRp2661
(dp2662
g62
(dp2663
g70
I3
ssg71
g2657
sg64
(lp2664
g938
asbasbasbag57
(g73
g59
NtRp2665
(dp2666
g62
(dp2667
sg71
g2640
sg64
(lp2668
g57
(g78
g59
NtRp2669
(dp2670
g62
(dp2671
g82
g83
ssg71
g2665
sg64
(lp2672
S'CONTENT_TYPE'
p2673
asbag57
(g78
g59
NtRp2674
(dp2675
g62
(dp2676
g89
g90
ssg71
g2665
sg64
(lp2677
S':'
asbag57
(g78
g59
NtRp2678
(dp2679
g62
(dp2680
sg71
g2665
sg64
(lp2681
g57
(g58
g59
NtRp2682
(dp2683
g62
(dp2684
g70
I3
ssg71
g2678
sg64
(lp2685
g960
asbasbasbag57
(g73
g59
NtRp2686
(dp2687
g62
(dp2688
sg71
g2640
sg64
(lp2689
g57
(g78
g59
NtRp2690
(dp2691
g62
(dp2692
g82
g83
ssg71
g2686
sg64
(lp2693
S'HTTP_ACCEPT'
p2694
asbag57
(g78
g59
NtRp2695
(dp2696
g62
(dp2697
g89
g90
ssg71
g2686
sg64
(lp2698
S':'
asbag57
(g78
g59
NtRp2699
(dp2700
g62
(dp2701
sg71
g2686
sg64
(lp2702
g57
(g58
g59
NtRp2703
(dp2704
g62
(dp2705
g70
I3
ssg71
g2699
sg64
(lp2706
g1047
asbasbasbag57
(g73
g59
NtRp2707
(dp2708
g62
(dp2709
sg71
g2640
sg64
(lp2710
g57
(g78
g59
NtRp2711
(dp2712
g62
(dp2713
g82
g83
ssg71
g2707
sg64
(lp2714
S'HTTP_ACCEPT_ENCODING'
p2715
asbag57
(g78
g59
NtRp2716
(dp2717
g62
(dp2718
g89
g90
ssg71
g2707
sg64
(lp2719
S':'
asbag57
(g78
g59
NtRp2720
(dp2721
g62
(dp2722
sg71
g2707
sg64
(lp2723
g57
(g58
g59
NtRp2724
(dp2725
g62
(dp2726
g70
I3
ssg71
g2720
sg64
(lp2727
g1069
asbasbasbag57
(g73
g59
NtRp2728
(dp2729
g62
(dp2730
sg71
g2640
sg64
(lp2731
g57
(g78
g59
NtRp2732
(dp2733
g62
(dp2734
g82
g83
ssg71
g2728
sg64
(lp2735
S'HTTP_ACCEPT_LANGUAGE'
p2736
asbag57
(g78
g59
NtRp2737
(dp2738
g62
(dp2739
g89
g90
ssg71
g2728
sg64
(lp2740
S':'
asbag57
(g78
g59
NtRp2741
(dp2742
g62
(dp2743
sg71
g2728
sg64
(lp2744
g57
(g58
g59
NtRp2745
(dp2746
g62
(dp2747
g70
I3
ssg71
g2741
sg64
(lp2748
g1091
asbasbasbag57
(g73
g59
NtRp2749
(dp2750
g62
(dp2751
sg71
g2640
sg64
(lp2752
g57
(g78
g59
NtRp2753
(dp2754
g62
(dp2755
g82
g83
ssg71
g2749
sg64
(lp2756
S'HTTP_CACHE_CONTROL'
p2757
asbag57
(g78
g59
NtRp2758
(dp2759
g62
(dp2760
g89
g90
ssg71
g2749
sg64
(lp2761
S':'
asbag57
(g78
g59
NtRp2762
(dp2763
g62
(dp2764
sg71
g2749
sg64
(lp2765
g57
(g58
g59
NtRp2766
(dp2767
g62
(dp2768
g70
I3
ssg71
g2762
sg64
(lp2769
g1113
asbasbasbag57
(g73
g59
NtRp2770
(dp2771
g62
(dp2772
sg71
g2640
sg64
(lp2773
g57
(g78
g59
NtRp2774
(dp2775
g62
(dp2776
g82
g83
ssg71
g2770
sg64
(lp2777
S'HTTP_CONNECTION'
p2778
asbag57
(g78
g59
NtRp2779
(dp2780
g62
(dp2781
g89
g90
ssg71
g2770
sg64
(lp2782
S':'
asbag57
(g78
g59
NtRp2783
(dp2784
g62
(dp2785
sg71
g2770
sg64
(lp2786
g57
(g58
g59
NtRp2787
(dp2788
g62
(dp2789
g70
I3
ssg71
g2783
sg64
(lp2790
g1135
asbasbasbag57
(g73
g59
NtRp2791
(dp2792
g62
(dp2793
sg71
g2640
sg64
(lp2794
g57
(g78
g59
NtRp2795
(dp2796
g62
(dp2797
g82
g83
ssg71
g2791
sg64
(lp2798
S'HTTP_CONTENT_LENGTH'
p2799
asbag57
(g78
g59
NtRp2800
(dp2801
g62
(dp2802
g89
g90
ssg71
g2791
sg64
(lp2803
S':'
asbag57
(g78
g59
NtRp2804
(dp2805
g62
(dp2806
sg71
g2791
sg64
(lp2807
g57
(g58
g59
NtRp2808
(dp2809
g62
(dp2810
g70
I3
ssg71
g2804
sg64
(lp2811
g938
asbasbasbag57
(g73
g59
NtRp2812
(dp2813
g62
(dp2814
sg71
g2640
sg64
(lp2815
g57
(g78
g59
NtRp2816
(dp2817
g62
(dp2818
g82
g83
ssg71
g2812
sg64
(lp2819
S'HTTP_CONTENT_TYPE'
p2820
asbag57
(g78
g59
NtRp2821
(dp2822
g62
(dp2823
g89
g90
ssg71
g2812
sg64
(lp2824
S':'
asbag57
(g78
g59
NtRp2825
(dp2826
g62
(dp2827
sg71
g2812
sg64
(lp2828
g57
(g58
g59
NtRp2829
(dp2830
g62
(dp2831
g70
I3
ssg71
g2825
sg64
(lp2832
g960
asbasbasbag57
(g73
g59
NtRp2833
(dp2834
g62
(dp2835
sg71
g2640
sg64
(lp2836
g57
(g78
g59
NtRp2837
(dp2838
g62
(dp2839
g82
g83
ssg71
g2833
sg64
(lp2840
S'HTTP_COOKIE'
p2841
asbag57
(g78
g59
NtRp2842
(dp2843
g62
(dp2844
g89
g90
ssg71
g2833
sg64
(lp2845
S':'
asbag57
(g78
g59
NtRp2846
(dp2847
g62
(dp2848
sg71
g2833
sg64
(lp2849
g57
(g58
g59
NtRp2850
(dp2851
g62
(dp2852
g70
I3
ssg71
g2846
sg64
(lp2853
g1199
asbasbasbag57
(g73
g59
NtRp2854
(dp2855
g62
(dp2856
sg71
g2640
sg64
(lp2857
g57
(g78
g59
NtRp2858
(dp2859
g62
(dp2860
g82
g83
ssg71
g2854
sg64
(lp2861
S'HTTP_HOST'
p2862
asbag57
(g78
g59
NtRp2863
(dp2864
g62
(dp2865
g89
g90
ssg71
g2854
sg64
(lp2866
S':'
asbag57
(g78
g59
NtRp2867
(dp2868
g62
(dp2869
sg71
g2854
sg64
(lp2870
g57
(g58
g59
NtRp2871
(dp2872
g62
(dp2873
g70
I3
ssg71
g2867
sg64
(lp2874
g1221
asbasbasbag57
(g73
g59
NtRp2875
(dp2876
g62
(dp2877
sg71
g2640
sg64
(lp2878
g57
(g78
g59
NtRp2879
(dp2880
g62
(dp2881
g82
g83
ssg71
g2875
sg64
(lp2882
S'HTTP_ORIGIN'
p2883
asbag57
(g78
g59
NtRp2884
(dp2885
g62
(dp2886
g89
g90
ssg71
g2875
sg64
(lp2887
S':'
asbag57
(g78
g59
NtRp2888
(dp2889
g62
(dp2890
sg71
g2875
sg64
(lp2891
g57
(g58
g59
NtRp2892
(dp2893
g62
(dp2894
g70
I3
ssg71
g2888
sg64
(lp2895
g1243
asbasbasbag57
(g73
g59
NtRp2896
(dp2897
g62
(dp2898
sg71
g2640
sg64
(lp2899
g57
(g78
g59
NtRp2900
(dp2901
g62
(dp2902
g82
g83
ssg71
g2896
sg64
(lp2903
S'HTTP_REFERER'
p2904
asbag57
(g78
g59
NtRp2905
(dp2906
g62
(dp2907
g89
g90
ssg71
g2896
sg64
(lp2908
S':'
asbag57
(g78
g59
NtRp2909
(dp2910
g62
(dp2911
sg71
g2896
sg64
(lp2912
g57
(g58
g59
NtRp2913
(dp2914
g62
(dp2915
g70
I3
ssg71
g2909
sg64
(lp2916
g1265
asbasbasbag57
(g73
g59
NtRp2917
(dp2918
g62
(dp2919
sg71
g2640
sg64
(lp2920
g57
(g78
g59
NtRp2921
(dp2922
g62
(dp2923
g82
g83
ssg71
g2917
sg64
(lp2924
S'HTTP_UPGRADE_INSECURE_REQUESTS'
p2925
asbag57
(g78
g59
NtRp2926
(dp2927
g62
(dp2928
g89
g90
ssg71
g2917
sg64
(lp2929
S':'
asbag57
(g78
g59
NtRp2930
(dp2931
g62
(dp2932
sg71
g2917
sg64
(lp2933
g57
(g58
g59
NtRp2934
(dp2935
g62
(dp2936
g70
I3
ssg71
g2930
sg64
(lp2937
S'1'
asbasbasbag57
(g73
g59
NtRp2938
(dp2939
g62
(dp2940
sg71
g2640
sg64
(lp2941
g57
(g78
g59
NtRp2942
(dp2943
g62
(dp2944
g82
g83
ssg71
g2938
sg64
(lp2945
S'HTTP_USER_AGENT'
p2946
asbag57
(g78
g59
NtRp2947
(dp2948
g62
(dp2949
g89
g90
ssg71
g2938
sg64
(lp2950
S':'
asbag57
(g78
g59
NtRp2951
(dp2952
g62
(dp2953
sg71
g2938
sg64
(lp2954
g57
(g58
g59
NtRp2955
(dp2956
g62
(dp2957
g70
I3
ssg71
g2951
sg64
(lp2958
g1308
asbasbasbag57
(g73
g59
NtRp2959
(dp2960
g62
(dp2961
sg71
g2640
sg64
(lp2962
g57
(g78
g59
NtRp2963
(dp2964
g62
(dp2965
g82
g83
ssg71
g2959
sg64
(lp2966
S'PATH_INFO'
p2967
asbag57
(g78
g59
NtRp2968
(dp2969
g62
(dp2970
g89
g90
ssg71
g2959
sg64
(lp2971
S':'
asbag57
(g78
g59
NtRp2972
(dp2973
g62
(dp2974
sg71
g2959
sg64
(lp2975
g57
(g58
g59
NtRp2976
(dp2977
g62
(dp2978
g70
I3
ssg71
g2972
sg64
(lp2979
g1372
asbasbasbag57
(g73
g59
NtRp2980
(dp2981
g62
(dp2982
sg71
g2640
sg64
(lp2983
g57
(g78
g59
NtRp2984
(dp2985
g62
(dp2986
g82
g83
ssg71
g2980
sg64
(lp2987
S'QUERY_STRING'
p2988
asbag57
(g78
g59
NtRp2989
(dp2990
g62
(dp2991
g89
g90
ssg71
g2980
sg64
(lp2992
S':'
asbag57
(g78
g59
NtRp2993
(dp2994
g62
(dp2995
sg71
g2980
sg64
(lp2996
g57
(g58
g59
NtRp2997
(dp2998
g62
(dp2999
g70
I3
ssg71
g2993
sg64
(lp3000
S''
asbasbasbag57
(g73
g59
NtRp3001
(dp3002
g62
(dp3003
sg71
g2640
sg64
(lp3004
g57
(g78
g59
NtRp3005
(dp3006
g62
(dp3007
g82
g83
ssg71
g3001
sg64
(lp3008
S'REMOTE_ADDR'
p3009
asbag57
(g78
g59
NtRp3010
(dp3011
g62
(dp3012
g89
g90
ssg71
g3001
sg64
(lp3013
S':'
asbag57
(g78
g59
NtRp3014
(dp3015
g62
(dp3016
sg71
g3001
sg64
(lp3017
g57
(g58
g59
NtRp3018
(dp3019
g62
(dp3020
g70
I3
ssg71
g3014
sg64
(lp3021
g190
asbasbasbag57
(g73
g59
NtRp3022
(dp3023
g62
(dp3024
sg71
g2640
sg64
(lp3025
g57
(g78
g59
NtRp3026
(dp3027
g62
(dp3028
g82
g83
ssg71
g3022
sg64
(lp3029
S'REMOTE_PORT'
p3030
asbag57
(g78
g59
NtRp3031
(dp3032
g62
(dp3033
g89
g90
ssg71
g3022
sg64
(lp3034
S':'
asbag57
(g78
g59
NtRp3035
(dp3036
g62
(dp3037
sg71
g3022
sg64
(lp3038
g57
(g58
g59
NtRp3039
(dp3040
g62
(dp3041
g70
I3
ssg71
g3035
sg64
(lp3042
g1436
asbasbasbag57
(g73
g59
NtRp3043
(dp3044
g62
(dp3045
sg71
g2640
sg64
(lp3046
g57
(g78
g59
NtRp3047
(dp3048
g62
(dp3049
g82
g83
ssg71
g3043
sg64
(lp3050
S'REQUEST_METHOD'
p3051
asbag57
(g78
g59
NtRp3052
(dp3053
g62
(dp3054
g89
g90
ssg71
g3043
sg64
(lp3055
S':'
asbag57
(g78
g59
NtRp3056
(dp3057
g62
(dp3058
sg71
g3043
sg64
(lp3059
g57
(g58
g59
NtRp3060
(dp3061
g62
(dp3062
g70
I3
ssg71
g3056
sg64
(lp3063
g1458
asbasbasbag57
(g73
g59
NtRp3064
(dp3065
g62
(dp3066
sg71
g2640
sg64
(lp3067
g57
(g78
g59
NtRp3068
(dp3069
g62
(dp3070
g82
g83
ssg71
g3064
sg64
(lp3071
S'SCRIPT_NAME'
p3072
asbag57
(g78
g59
NtRp3073
(dp3074
g62
(dp3075
g89
g90
ssg71
g3064
sg64
(lp3076
S':'
asbag57
(g78
g59
NtRp3077
(dp3078
g62
(dp3079
sg71
g3064
sg64
(lp3080
g57
(g58
g59
NtRp3081
(dp3082
g62
(dp3083
g70
I3
ssg71
g3077
sg64
(lp3084
S''
asbasbasbag57
(g73
g59
NtRp3085
(dp3086
g62
(dp3087
sg71
g2640
sg64
(lp3088
g57
(g78
g59
NtRp3089
(dp3090
g62
(dp3091
g82
g83
ssg71
g3085
sg64
(lp3092
S'SERVER_NAME'
p3093
asbag57
(g78
g59
NtRp3094
(dp3095
g62
(dp3096
g89
g90
ssg71
g3085
sg64
(lp3097
S':'
asbag57
(g78
g59
NtRp3098
(dp3099
g62
(dp3100
sg71
g3085
sg64
(lp3101
g57
(g58
g59
NtRp3102
(dp3103
g62
(dp3104
g70
I3
ssg71
g3098
sg64
(lp3105
g1501
asbasbasbag57
(g73
g59
NtRp3106
(dp3107
g62
(dp3108
sg71
g2640
sg64
(lp3109
g57
(g78
g59
NtRp3110
(dp3111
g62
(dp3112
g82
g83
ssg71
g3106
sg64
(lp3113
S'SERVER_PORT'
p3114
asbag57
(g78
g59
NtRp3115
(dp3116
g62
(dp3117
g89
g90
ssg71
g3106
sg64
(lp3118
S':'
asbag57
(g78
g59
NtRp3119
(dp3120
g62
(dp3121
sg71
g3106
sg64
(lp3122
g57
(g58
g59
NtRp3123
(dp3124
g62
(dp3125
g70
I3
ssg71
g3119
sg64
(lp3126
g1523
asbasbasbag57
(g73
g59
NtRp3127
(dp3128
g62
(dp3129
sg71
g2640
sg64
(lp3130
g57
(g78
g59
NtRp3131
(dp3132
g62
(dp3133
g82
g83
ssg71
g3127
sg64
(lp3134
S'SERVER_PROTOCOL'
p3135
asbag57
(g78
g59
NtRp3136
(dp3137
g62
(dp3138
g89
g90
ssg71
g3127
sg64
(lp3139
S':'
asbag57
(g78
g59
NtRp3140
(dp3141
g62
(dp3142
sg71
g3127
sg64
(lp3143
g57
(g58
g59
NtRp3144
(dp3145
g62
(dp3146
g70
I3
ssg71
g3140
sg64
(lp3147
g1545
asbasbasbag57
(g73
g59
NtRp3148
(dp3149
g62
(dp3150
sg71
g2640
sg64
(lp3151
g57
(g78
g59
NtRp3152
(dp3153
g62
(dp3154
g82
g83
ssg71
g3148
sg64
(lp3155
S'SERVER_SOFTWARE'
p3156
asbag57
(g78
g59
NtRp3157
(dp3158
g62
(dp3159
g89
g90
ssg71
g3148
sg64
(lp3160
S':'
asbag57
(g78
g59
NtRp3161
(dp3162
g62
(dp3163
sg71
g3148
sg64
(lp3164
g57
(g58
g59
NtRp3165
(dp3166
g62
(dp3167
g70
I3
ssg71
g3161
sg64
(lp3168
g1567
asbasbasbag57
(g73
g59
NtRp3169
(dp3170
g62
(dp3171
sg71
g2640
sg64
(lp3172
g57
(g78
g59
NtRp3173
(dp3174
g62
(dp3175
g82
g83
ssg71
g3169
sg64
(lp3176
S'wsgi.errors'
p3177
asbag57
(g78
g59
NtRp3178
(dp3179
g62
(dp3180
g89
g90
ssg71
g3169
sg64
(lp3181
S':'
asbag57
(g78
g59
NtRp3182
(dp3183
g62
(dp3184
sg71
g3169
sg64
(lp3185
g57
(g58
g59
NtRp3186
(dp3187
g62
(dp3188
g70
I3
ssg71
g3182
sg64
(lp3189
S"<open file '<stderr>', mode 'w' at 0xb727d0d0>"
p3190
asbasbasbag57
(g73
g59
NtRp3191
(dp3192
g62
(dp3193
sg71
g2640
sg64
(lp3194
g57
(g78
g59
NtRp3195
(dp3196
g62
(dp3197
g82
g83
ssg71
g3191
sg64
(lp3198
S'wsgi.file_wrapper'
p3199
asbag57
(g78
g59
NtRp3200
(dp3201
g62
(dp3202
g89
g90
ssg71
g3191
sg64
(lp3203
S':'
asbag57
(g78
g59
NtRp3204
(dp3205
g62
(dp3206
sg71
g3191
sg64
(lp3207
g57
(g58
g59
NtRp3208
(dp3209
g62
(dp3210
g70
I3
ssg71
g3204
sg64
(lp3211
S'<class wsgiref.util.FileWrapper at 0xa1764dc>'
p3212
asbasbasbag57
(g73
g59
NtRp3213
(dp3214
g62
(dp3215
sg71
g2640
sg64
(lp3216
g57
(g78
g59
NtRp3217
(dp3218
g62
(dp3219
g82
g83
ssg71
g3213
sg64
(lp3220
S'wsgi.input'
p3221
asbag57
(g78
g59
NtRp3222
(dp3223
g62
(dp3224
g89
g90
ssg71
g3213
sg64
(lp3225
S':'
asbag57
(g78
g59
NtRp3226
(dp3227
g62
(dp3228
sg71
g3213
sg64
(lp3229
g57
(g58
g59
NtRp3230
(dp3231
g62
(dp3232
g70
I3
ssg71
g3226
sg64
(lp3233
S"<open file '<fdopen>', mode 'w+b' at 0xaa31c5a0>"
p3234
asbasbasbag57
(g73
g59
NtRp3235
(dp3236
g62
(dp3237
sg71
g2640
sg64
(lp3238
g57
(g78
g59
NtRp3239
(dp3240
g62
(dp3241
g82
g83
ssg71
g3235
sg64
(lp3242
S'wsgi.multiprocess'
p3243
asbag57
(g78
g59
NtRp3244
(dp3245
g62
(dp3246
g89
g90
ssg71
g3235
sg64
(lp3247
S':'
asbag57
(g78
g59
NtRp3248
(dp3249
g62
(dp3250
sg71
g3235
sg64
(lp3251
g57
(g58
g59
NtRp3252
(dp3253
g62
(dp3254
g70
I3
ssg71
g3248
sg64
(lp3255
g100
asbasbasbag57
(g73
g59
NtRp3256
(dp3257
g62
(dp3258
sg71
g2640
sg64
(lp3259
g57
(g78
g59
NtRp3260
(dp3261
g62
(dp3262
g82
g83
ssg71
g3256
sg64
(lp3263
S'wsgi.multithread'
p3264
asbag57
(g78
g59
NtRp3265
(dp3266
g62
(dp3267
g89
g90
ssg71
g3256
sg64
(lp3268
S':'
asbag57
(g78
g59
NtRp3269
(dp3270
g62
(dp3271
sg71
g3256
sg64
(lp3272
g57
(g58
g59
NtRp3273
(dp3274
g62
(dp3275
g70
I3
ssg71
g3269
sg64
(lp3276
g1807
asbasbasbag57
(g73
g59
NtRp3277
(dp3278
g62
(dp3279
sg71
g2640
sg64
(lp3280
g57
(g78
g59
NtRp3281
(dp3282
g62
(dp3283
g82
g83
ssg71
g3277
sg64
(lp3284
S'wsgi.run_once'
p3285
asbag57
(g78
g59
NtRp3286
(dp3287
g62
(dp3288
g89
g90
ssg71
g3277
sg64
(lp3289
S':'
asbag57
(g78
g59
NtRp3290
(dp3291
g62
(dp3292
sg71
g3277
sg64
(lp3293
g57
(g58
g59
NtRp3294
(dp3295
g62
(dp3296
g70
I3
ssg71
g3290
sg64
(lp3297
g100
asbasbasbag57
(g73
g59
NtRp3298
(dp3299
g62
(dp3300
sg71
g2640
sg64
(lp3301
g57
(g78
g59
NtRp3302
(dp3303
g62
(dp3304
g82
g83
ssg71
g3298
sg64
(lp3305
S'wsgi.url_scheme'
p3306
asbag57
(g78
g59
NtRp3307
(dp3308
g62
(dp3309
g89
g90
ssg71
g3298
sg64
(lp3310
S':'
asbag57
(g78
g59
NtRp3311
(dp3312
g62
(dp3313
sg71
g3298
sg64
(lp3314
g57
(g58
g59
NtRp3315
(dp3316
g62
(dp3317
g70
I3
ssg71
g3311
sg64
(lp3318
g1850
asbasbasbag57
(g73
g59
NtRp3319
(dp3320
g62
(dp3321
sg71
g2640
sg64
(lp3322
g57
(g78
g59
NtRp3323
(dp3324
g62
(dp3325
g82
g83
ssg71
g3319
sg64
(lp3326
S'wsgi.version'
p3327
asbag57
(g78
g59
NtRp3328
(dp3329
g62
(dp3330
g89
g90
ssg71
g3319
sg64
(lp3331
S':'
asbag57
(g78
g59
NtRp3332
(dp3333
g62
(dp3334
sg71
g3319
sg64
(lp3335
g57
(g58
g59
NtRp3336
(dp3337
g62
(dp3338
g70
I3
ssg71
g3332
sg64
(lp3339
S'1'
asbasbasbasbasbasbasbasbasbasbasbasbasbsS'frames'
p3340
(lp3341
(dp3342
S'file'
p3343
S'/usr/lib/pymodules/python2.7/gluon/restricted.py'
p3344
sS'dump'
p3345
(dp3346
S'environment'
p3347
S"{'A': <class 'gluon.html.A'>, 'Auth': <class 'gluon.tools.Auth'>, 'B': <class 'gluon.html.B'>, 'BEAUTIFY': <class 'gluon.html.BEAUTIFY'>, 'BODY': <class 'gluon.html.BODY'>, 'BR': <class 'gluon.html.BR'>, 'BUTTON': <class 'gluon.html.BUTTON'>, 'CAT': <class 'gluon.html.CAT'>, 'CENTER': <class 'gluon.html.CENTER'>, 'CLEANUP': <class 'gluon.validators.CLEANUP'>, ...}"
p3348
sS'ccode'
p3349
S'<code object <module> at 0xb29e9a40, file "/home...ations/blogpost/controllers/default.py", line 11>'
p3350
ssS'lnum'
p3351
I204
sS'lines'
p3352
(dp3353
I199
S'    try:'
p3354
sI200
S'        if type(code) == types.CodeType:'
p3355
sI201
S'            ccode = code'
p3356
sI202
S'        else:'
p3357
sI203
S'            ccode = compile2(code,layer)'
p3358
sI204
S'        exec ccode in environment'
p3359
sI205
S'    except HTTP:'
p3360
sI206
S'        raise'
p3361
sI207
S'    except RestrictedError:'
p3362
sI208
S'        # do not encapsulate (obfuscate) the original RestrictedError'
p3363
ssS'call'
p3364
S"(code='# -*- coding: utf-8 -*-\\n# this file is released ...ommented)\\n\\nresponse._vars=response._caller(show)\\n', environment={'A': <class 'gluon.html.A'>, 'Auth': <class 'gluon.tools.Auth'>, 'B': <class 'gluon.html.B'>, 'BEAUTIFY': <class 'gluon.html.BEAUTIFY'>, 'BODY': <class 'gluon.html.BODY'>, 'BR': <class 'gluon.html.BR'>, 'BUTTON': <class 'gluon.html.BUTTON'>, 'CAT': <class 'gluon.html.CAT'>, 'CENTER': <class 'gluon.html.CENTER'>, 'CLEANUP': <class 'gluon.validators.CLEANUP'>, ...}, layer='/home/mukul/web2py/applications/blogpost/controllers/default.py')"
p3365
sS'func'
p3366
S'restricted'
p3367
sa(dp3368
g3343
S'/home/mukul/web2py/applications/blogpost/controllers/default.py'
p3369
sg3345
(dp3370
sg3351
I49
sg3352
(dp3371
I38
S'@auth.requires_login()'
p3372
sI39
S'def show():'
p3373
sI40
S'       imag=db().select(db.content.ALL,orderby=db.content.id)'
p3374
sI41
S"       if request.post_vars['comment_data']!=None:"
p3375
sI42
S"           comments=request.post_vars['comment_data']"
p3376
sI43
S'           db.comment.insert(data=comments)'
p3377
sI44
S''
sI45
S'       else:'
p3378
sI46
S'           commented=db(db.comment.blog_id==db.content.id).select(db.comment.ALL)'
p3379
sI47
S'       return dict(imag=imag ,x=commented)'
p3380
ssg3364
S'()'
p3381
sg3366
S'<module>'
p3382
sa(dp3383
g3343
S'/usr/lib/pymodules/python2.7/gluon/globals.py'
p3384
sg3345
(dp3385
S'self'
p3386
S'undefined'
p3387
sS'f'
S'<function show>'
p3388
ssg3351
I172
sg3352
(dp3389
I167
S'        self.meta = Storage()      # used by web2py_ajax.html'
p3390
sI168
S'        self.menu = []             # used by the default view layout'
p3391
sI169
S'        self.files = []            # used by web2py_ajax.html'
p3392
sI170
S'        self.generic_patterns = [] # patterns to allow generic views'
p3393
sI171
S'        self._vars = None'
p3394
sI172
S'        self._caller = lambda f: f()'
p3395
sI173
S'        self._view_environment = None'
p3396
sI174
S'        self._custom_commit = None'
p3397
sI175
S'        self._custom_rollback = None'
p3398
sI176
S''
ssg3364
S'(f=<function show>)'
p3399
sg3366
S'<lambda>'
p3400
sa(dp3401
g3343
S'/usr/lib/pymodules/python2.7/gluon/tools.py'
p3402
sg3345
(dp3403
S'action'
p3404
S'<function show>'
p3405
sS'a'
S'()'
p3406
sS'b'
g45
ssg3351
I2533
sg3352
(dp3407
I2528
S'                # otherwise case 3 would be ok.'
p3408
sI2529
S'                if not (callable(condition) and condition() == True) and not condition == True:'
p3409
sI2530
S'                    current.session.flash = self.messages.access_denied'
p3410
sI2531
S'                    return call_or_redirect('
p3411
sI2532
S'                        self.settings.on_failed_authorization)'
p3412
sI2533
S'                return action(*a, **b)'
p3413
sI2534
S'            f.__doc__ = action.__doc__'
p3414
sI2535
S'            f.__name__ = action.__name__'
p3415
sI2536
S'            f.__dict__.update(action.__dict__)'
p3416
sI2537
S'            return f'
p3417
ssg3364
S'(*a=(), **b={})'
p3418
sg3366
S'f'
sa(dp3419
g3343
S'/home/mukul/web2py/applications/blogpost/controllers/default.py'
p3420
sg3345
(dp3421
S'x'
g3387
sS'imag'
p3422
S'<gluon.dal.Rows object>'
p3423
sS'commented'
p3424
g3387
sS'builtindict'
p3425
S"<type 'dict'>"
p3426
ssg3351
I47
sg3352
(dp3427
I38
S'@auth.requires_login()'
p3428
sI39
S'def show():'
p3429
sI40
S'       imag=db().select(db.content.ALL,orderby=db.content.id)'
p3430
sI41
S"       if request.post_vars['comment_data']!=None:"
p3431
sI42
S"           comments=request.post_vars['comment_data']"
p3432
sI43
S'           db.comment.insert(data=comments)'
p3433
sI44
S''
sI45
S'       else:'
p3434
sI46
S'           commented=db(db.comment.blog_id==db.content.id).select(db.comment.ALL)'
p3435
sI47
S'       return dict(imag=imag ,x=commented)'
p3436
ssg3364
S'()'
p3437
sg3366
S'show'
p3438
sasS'pyver'
p3439
S'Python 2.7.3: /usr/bin/python'
p3440
sS'session'
p3441
g57
(g58
g59
NtRp3442
(dp3443
g62
(dp3444
sg64
(lp3445
g57
(g66
g59
NtRp3446
(dp3447
g62
(dp3448
g70
I5
ssg71
Nsg64
(lp3449
g57
(g73
g59
NtRp3450
(dp3451
g62
(dp3452
sg71
g3446
sg64
(lp3453
g57
(g78
g59
NtRp3454
(dp3455
g62
(dp3456
g82
g83
ssg71
g3450
sg64
(lp3457
S'auth'
p3458
asbag57
(g78
g59
NtRp3459
(dp3460
g62
(dp3461
g89
g90
ssg71
g3450
sg64
(lp3462
S':'
asbag57
(g78
g59
NtRp3463
(dp3464
g62
(dp3465
sg71
g3450
sg64
(lp3466
g57
(g58
g59
NtRp3467
(dp3468
g62
(dp3469
g70
I5
ssg71
g3463
sg64
(lp3470
g57
(g66
g59
NtRp3471
(dp3472
g62
(dp3473
g70
I4
ssg71
Nsg64
(lp3474
g57
(g73
g59
NtRp3475
(dp3476
g62
(dp3477
sg71
g3471
sg64
(lp3478
g57
(g78
g59
NtRp3479
(dp3480
g62
(dp3481
g82
g83
ssg71
g3475
sg64
(lp3482
S'expiration'
p3483
asbag57
(g78
g59
NtRp3484
(dp3485
g62
(dp3486
g89
g90
ssg71
g3475
sg64
(lp3487
S':'
asbag57
(g78
g59
NtRp3488
(dp3489
g62
(dp3490
sg71
g3475
sg64
(lp3491
g57
(g58
g59
NtRp3492
(dp3493
g62
(dp3494
g70
I4
ssg71
g3488
sg64
(lp3495
S'2592000'
p3496
asbasbasbag57
(g73
g59
NtRp3497
(dp3498
g62
(dp3499
sg71
g3471
sg64
(lp3500
g57
(g78
g59
NtRp3501
(dp3502
g62
(dp3503
g82
g83
ssg71
g3497
sg64
(lp3504
S'hmac_key'
p3505
asbag57
(g78
g59
NtRp3506
(dp3507
g62
(dp3508
g89
g90
ssg71
g3497
sg64
(lp3509
S':'
asbag57
(g78
g59
NtRp3510
(dp3511
g62
(dp3512
sg71
g3497
sg64
(lp3513
g57
(g58
g59
NtRp3514
(dp3515
g62
(dp3516
g70
I4
ssg71
g3510
sg64
(lp3517
S'130c25d1-2de4-4e1f-91a4-e3f8ae2a53c6'
p3518
asbasbasbag57
(g73
g59
NtRp3519
(dp3520
g62
(dp3521
sg71
g3471
sg64
(lp3522
g57
(g78
g59
NtRp3523
(dp3524
g62
(dp3525
g82
g83
ssg71
g3519
sg64
(lp3526
S'last_visit'
p3527
asbag57
(g78
g59
NtRp3528
(dp3529
g62
(dp3530
g89
g90
ssg71
g3519
sg64
(lp3531
S':'
asbag57
(g78
g59
NtRp3532
(dp3533
g62
(dp3534
sg71
g3519
sg64
(lp3535
g57
(g58
g59
NtRp3536
(dp3537
g62
(dp3538
g70
I4
ssg71
g3532
sg64
(lp3539
S'datetime.datetime(2016, 5, 15, 1, 25, 57, 434025)'
p3540
asbasbasbag57
(g73
g59
NtRp3541
(dp3542
g62
(dp3543
sg71
g3471
sg64
(lp3544
g57
(g78
g59
NtRp3545
(dp3546
g62
(dp3547
g82
g83
ssg71
g3541
sg64
(lp3548
S'remember'
p3549
asbag57
(g78
g59
NtRp3550
(dp3551
g62
(dp3552
g89
g90
ssg71
g3541
sg64
(lp3553
S':'
asbag57
(g78
g59
NtRp3554
(dp3555
g62
(dp3556
sg71
g3541
sg64
(lp3557
g57
(g58
g59
NtRp3558
(dp3559
g62
(dp3560
g70
I4
ssg71
g3554
sg64
(lp3561
g100
asbasbasbag57
(g73
g59
NtRp3562
(dp3563
g62
(dp3564
sg71
g3471
sg64
(lp3565
g57
(g78
g59
NtRp3566
(dp3567
g62
(dp3568
g82
g83
ssg71
g3562
sg64
(lp3569
S'user'
p3570
asbag57
(g78
g59
NtRp3571
(dp3572
g62
(dp3573
g89
g90
ssg71
g3562
sg64
(lp3574
S':'
asbag57
(g78
g59
NtRp3575
(dp3576
g62
(dp3577
sg71
g3562
sg64
(lp3578
g57
(g58
g59
NtRp3579
(dp3580
g62
(dp3581
g70
I4
ssg71
g3575
sg64
(lp3582
g57
(g66
g59
NtRp3583
(dp3584
g62
(dp3585
g70
I3
ssg71
Nsg64
(lp3586
g57
(g73
g59
NtRp3587
(dp3588
g62
(dp3589
sg71
g3583
sg64
(lp3590
g57
(g78
g59
NtRp3591
(dp3592
g62
(dp3593
g82
g83
ssg71
g3587
sg64
(lp3594
S'email'
p3595
asbag57
(g78
g59
NtRp3596
(dp3597
g62
(dp3598
g89
g90
ssg71
g3587
sg64
(lp3599
S':'
asbag57
(g78
g59
NtRp3600
(dp3601
g62
(dp3602
sg71
g3587
sg64
(lp3603
g57
(g58
g59
NtRp3604
(dp3605
g62
(dp3606
g70
I3
ssg71
g3600
sg64
(lp3607
S'mukulkathpalia@gmail.com'
p3608
asbasbasbag57
(g73
g59
NtRp3609
(dp3610
g62
(dp3611
sg71
g3583
sg64
(lp3612
g57
(g78
g59
NtRp3613
(dp3614
g62
(dp3615
g82
g83
ssg71
g3609
sg64
(lp3616
S'first_name'
p3617
asbag57
(g78
g59
NtRp3618
(dp3619
g62
(dp3620
g89
g90
ssg71
g3609
sg64
(lp3621
S':'
asbag57
(g78
g59
NtRp3622
(dp3623
g62
(dp3624
sg71
g3609
sg64
(lp3625
g57
(g58
g59
NtRp3626
(dp3627
g62
(dp3628
g70
I3
ssg71
g3622
sg64
(lp3629
S'mukul'
p3630
asbasbasbag57
(g73
g59
NtRp3631
(dp3632
g62
(dp3633
sg71
g3583
sg64
(lp3634
g57
(g78
g59
NtRp3635
(dp3636
g62
(dp3637
g82
g83
ssg71
g3631
sg64
(lp3638
S'id'
p3639
asbag57
(g78
g59
NtRp3640
(dp3641
g62
(dp3642
g89
g90
ssg71
g3631
sg64
(lp3643
S':'
asbag57
(g78
g59
NtRp3644
(dp3645
g62
(dp3646
sg71
g3631
sg64
(lp3647
g57
(g58
g59
NtRp3648
(dp3649
g62
(dp3650
g70
I3
ssg71
g3644
sg64
(lp3651
S'1'
asbasbasbag57
(g73
g59
NtRp3652
(dp3653
g62
(dp3654
sg71
g3583
sg64
(lp3655
g57
(g78
g59
NtRp3656
(dp3657
g62
(dp3658
g82
g83
ssg71
g3652
sg64
(lp3659
S'last_name'
p3660
asbag57
(g78
g59
NtRp3661
(dp3662
g62
(dp3663
g89
g90
ssg71
g3652
sg64
(lp3664
S':'
asbag57
(g78
g59
NtRp3665
(dp3666
g62
(dp3667
sg71
g3652
sg64
(lp3668
g57
(g58
g59
NtRp3669
(dp3670
g62
(dp3671
g70
I3
ssg71
g3665
sg64
(lp3672
S'kathpalia'
p3673
asbasbasbag57
(g73
g59
NtRp3674
(dp3675
g62
(dp3676
sg71
g3583
sg64
(lp3677
g57
(g78
g59
NtRp3678
(dp3679
g62
(dp3680
g82
g83
ssg71
g3674
sg64
(lp3681
S'password'
p3682
asbag57
(g78
g59
NtRp3683
(dp3684
g62
(dp3685
g89
g90
ssg71
g3674
sg64
(lp3686
S':'
asbag57
(g78
g59
NtRp3687
(dp3688
g62
(dp3689
sg71
g3674
sg64
(lp3690
g57
(g58
g59
NtRp3691
(dp3692
g62
(dp3693
g70
I3
ssg71
g3687
sg64
(lp3694
S'80aeb2ab48c122c2c0b4eeef2ef83fb4'
p3695
asbasbasbag57
(g73
g59
NtRp3696
(dp3697
g62
(dp3698
sg71
g3583
sg64
(lp3699
g57
(g78
g59
NtRp3700
(dp3701
g62
(dp3702
g82
g83
ssg71
g3696
sg64
(lp3703
S'registration_id'
p3704
asbag57
(g78
g59
NtRp3705
(dp3706
g62
(dp3707
g89
g90
ssg71
g3696
sg64
(lp3708
S':'
asbag57
(g78
g59
NtRp3709
(dp3710
g62
(dp3711
sg71
g3696
sg64
(lp3712
g57
(g58
g59
NtRp3713
(dp3714
g62
(dp3715
g70
I3
ssg71
g3709
sg64
(lp3716
S''
asbasbasbag57
(g73
g59
NtRp3717
(dp3718
g62
(dp3719
sg71
g3583
sg64
(lp3720
g57
(g78
g59
NtRp3721
(dp3722
g62
(dp3723
g82
g83
ssg71
g3717
sg64
(lp3724
S'registration_key'
p3725
asbag57
(g78
g59
NtRp3726
(dp3727
g62
(dp3728
g89
g90
ssg71
g3717
sg64
(lp3729
S':'
asbag57
(g78
g59
NtRp3730
(dp3731
g62
(dp3732
sg71
g3717
sg64
(lp3733
g57
(g58
g59
NtRp3734
(dp3735
g62
(dp3736
g70
I3
ssg71
g3730
sg64
(lp3737
S''
asbasbasbag57
(g73
g59
NtRp3738
(dp3739
g62
(dp3740
sg71
g3583
sg64
(lp3741
g57
(g78
g59
NtRp3742
(dp3743
g62
(dp3744
g82
g83
ssg71
g3738
sg64
(lp3745
S'reset_password_key'
p3746
asbag57
(g78
g59
NtRp3747
(dp3748
g62
(dp3749
g89
g90
ssg71
g3738
sg64
(lp3750
S':'
asbag57
(g78
g59
NtRp3751
(dp3752
g62
(dp3753
sg71
g3738
sg64
(lp3754
g57
(g58
g59
NtRp3755
(dp3756
g62
(dp3757
g70
I3
ssg71
g3751
sg64
(lp3758
S''
asbasbasbasbasbasbasbasbasbasbasbag57
(g73
g59
NtRp3759
(dp3760
g62
(dp3761
sg71
g3446
sg64
(lp3762
g57
(g78
g59
NtRp3763
(dp3764
g62
(dp3765
g82
g83
ssg71
g3759
sg64
(lp3766
S'last_query'
p3767
asbag57
(g78
g59
NtRp3768
(dp3769
g62
(dp3770
g89
g90
ssg71
g3759
sg64
(lp3771
S':'
asbag57
(g78
g59
NtRp3772
(dp3773
g62
(dp3774
sg71
g3759
sg64
(lp3775
g57
(g58
g59
NtRp3776
(dp3777
g62
(dp3778
g70
I5
ssg71
g3772
sg64
(lp3779
S'db.content.id>0'
p3780
asbasbasbasbasbsS'etype'
p3781
S"<type 'exceptions.UnboundLocalError'>"
p3782
sS'date'
p3783
S'Sun May 15 12:44:15 2016'
p3784
sS'response'
p3785
g57
(g58
g59
NtRp3786
(dp3787
g62
(dp3788
sg64
(lp3789
g57
(g66
g59
NtRp3790
(dp3791
g62
(dp3792
g70
I5
ssg71
Nsg64
(lp3793
g57
(g73
g59
NtRp3794
(dp3795
g62
(dp3796
sg71
g3790
sg64
(lp3797
g57
(g78
g59
NtRp3798
(dp3799
g62
(dp3800
g82
g83
ssg71
g3794
sg64
(lp3801
g155
asbag57
(g78
g59
NtRp3802
(dp3803
g62
(dp3804
g89
g90
ssg71
g3794
sg64
(lp3805
S':'
asbag57
(g78
g59
NtRp3806
(dp3807
g62
(dp3808
sg71
g3794
sg64
(lp3809
g57
(g58
g59
NtRp3810
(dp3811
g62
(dp3812
g70
I5
ssg71
g3806
sg64
(lp3813
S'<cStringIO.StringO object at 0xaab247e0>'
p3814
asbasbasbag57
(g73
g59
NtRp3815
(dp3816
g62
(dp3817
sg71
g3790
sg64
(lp3818
g57
(g78
g59
NtRp3819
(dp3820
g62
(dp3821
g82
g83
ssg71
g3815
sg64
(lp3822
g221
asbag57
(g78
g59
NtRp3823
(dp3824
g62
(dp3825
g89
g90
ssg71
g3815
sg64
(lp3826
S':'
asbag57
(g78
g59
NtRp3827
(dp3828
g62
(dp3829
sg71
g3815
sg64
(lp3830
g57
(g58
g59
NtRp3831
(dp3832
g62
(dp3833
g70
I5
ssg71
g3827
sg64
(lp3834
g57
(g66
g59
NtRp3835
(dp3836
g62
(dp3837
g70
I4
ssg71
Nsg64
(lp3838
g57
(g73
g59
NtRp3839
(dp3840
g62
(dp3841
sg71
g3835
sg64
(lp3842
g57
(g78
g59
NtRp3843
(dp3844
g62
(dp3845
g82
g83
ssg71
g3839
sg64
(lp3846
S'session_id_blogpost'
p3847
asbag57
(g78
g59
NtRp3848
(dp3849
g62
(dp3850
g89
g90
ssg71
g3839
sg64
(lp3851
S':'
asbag57
(g78
g59
NtRp3852
(dp3853
g62
(dp3854
sg71
g3839
sg64
(lp3855
g57
(g58
g59
NtRp3856
(dp3857
g62
(dp3858
g70
I4
ssg71
g3852
sg64
(lp3859
g57
(g66
g59
NtRp3860
(dp3861
g62
(dp3862
g70
I3
ssg71
Nsg64
(lp3863
g57
(g73
g59
NtRp3864
(dp3865
g62
(dp3866
sg71
g3860
sg64
(lp3867
g57
(g78
g59
NtRp3868
(dp3869
g62
(dp3870
g82
g83
ssg71
g3864
sg64
(lp3871
g271
asbag57
(g78
g59
NtRp3872
(dp3873
g62
(dp3874
g89
g90
ssg71
g3864
sg64
(lp3875
S':'
asbag57
(g78
g59
NtRp3876
(dp3877
g62
(dp3878
sg71
g3864
sg64
(lp3879
g57
(g58
g59
NtRp3880
(dp3881
g62
(dp3882
g70
I3
ssg71
g3876
sg64
(lp3883
S''
asbasbasbag57
(g73
g59
NtRp3884
(dp3885
g62
(dp3886
sg71
g3860
sg64
(lp3887
g57
(g78
g59
NtRp3888
(dp3889
g62
(dp3890
g82
g83
ssg71
g3884
sg64
(lp3891
g292
asbag57
(g78
g59
NtRp3892
(dp3893
g62
(dp3894
g89
g90
ssg71
g3884
sg64
(lp3895
S':'
asbag57
(g78
g59
NtRp3896
(dp3897
g62
(dp3898
sg71
g3884
sg64
(lp3899
g57
(g58
g59
NtRp3900
(dp3901
g62
(dp3902
g70
I3
ssg71
g3896
sg64
(lp3903
S''
asbasbasbag57
(g73
g59
NtRp3904
(dp3905
g62
(dp3906
sg71
g3860
sg64
(lp3907
g57
(g78
g59
NtRp3908
(dp3909
g62
(dp3910
g82
g83
ssg71
g3904
sg64
(lp3911
g313
asbag57
(g78
g59
NtRp3912
(dp3913
g62
(dp3914
g89
g90
ssg71
g3904
sg64
(lp3915
S':'
asbag57
(g78
g59
NtRp3916
(dp3917
g62
(dp3918
sg71
g3904
sg64
(lp3919
g57
(g58
g59
NtRp3920
(dp3921
g62
(dp3922
g70
I3
ssg71
g3916
sg64
(lp3923
S''
asbasbasbag57
(g73
g59
NtRp3924
(dp3925
g62
(dp3926
sg71
g3860
sg64
(lp3927
g57
(g78
g59
NtRp3928
(dp3929
g62
(dp3930
g82
g83
ssg71
g3924
sg64
(lp3931
g334
asbag57
(g78
g59
NtRp3932
(dp3933
g62
(dp3934
g89
g90
ssg71
g3924
sg64
(lp3935
S':'
asbag57
(g78
g59
NtRp3936
(dp3937
g62
(dp3938
sg71
g3924
sg64
(lp3939
g57
(g58
g59
NtRp3940
(dp3941
g62
(dp3942
g70
I3
ssg71
g3936
sg64
(lp3943
S''
asbasbasbag57
(g73
g59
NtRp3944
(dp3945
g62
(dp3946
sg71
g3860
sg64
(lp3947
g57
(g78
g59
NtRp3948
(dp3949
g62
(dp3950
g82
g83
ssg71
g3944
sg64
(lp3951
g355
asbag57
(g78
g59
NtRp3952
(dp3953
g62
(dp3954
g89
g90
ssg71
g3944
sg64
(lp3955
S':'
asbag57
(g78
g59
NtRp3956
(dp3957
g62
(dp3958
sg71
g3944
sg64
(lp3959
g57
(g58
g59
NtRp3960
(dp3961
g62
(dp3962
g70
I3
ssg71
g3956
sg64
(lp3963
S''
asbasbasbag57
(g73
g59
NtRp3964
(dp3965
g62
(dp3966
sg71
g3860
sg64
(lp3967
g57
(g78
g59
NtRp3968
(dp3969
g62
(dp3970
g82
g83
ssg71
g3964
sg64
(lp3971
g376
asbag57
(g78
g59
NtRp3972
(dp3973
g62
(dp3974
g89
g90
ssg71
g3964
sg64
(lp3975
S':'
asbag57
(g78
g59
NtRp3976
(dp3977
g62
(dp3978
sg71
g3964
sg64
(lp3979
g57
(g58
g59
NtRp3980
(dp3981
g62
(dp3982
g70
I3
ssg71
g3976
sg64
(lp3983
S'/'
asbasbasbag57
(g73
g59
NtRp3984
(dp3985
g62
(dp3986
sg71
g3860
sg64
(lp3987
g57
(g78
g59
NtRp3988
(dp3989
g62
(dp3990
g82
g83
ssg71
g3984
sg64
(lp3991
g397
asbag57
(g78
g59
NtRp3992
(dp3993
g62
(dp3994
g89
g90
ssg71
g3984
sg64
(lp3995
S':'
asbag57
(g78
g59
NtRp3996
(dp3997
g62
(dp3998
sg71
g3984
sg64
(lp3999
g57
(g58
g59
NtRp4000
(dp4001
g62
(dp4002
g70
I3
ssg71
g3996
sg64
(lp4003
S''
asbasbasbag57
(g73
g59
NtRp4004
(dp4005
g62
(dp4006
sg71
g3860
sg64
(lp4007
g57
(g78
g59
NtRp4008
(dp4009
g62
(dp4010
g82
g83
ssg71
g4004
sg64
(lp4011
g418
asbag57
(g78
g59
NtRp4012
(dp4013
g62
(dp4014
g89
g90
ssg71
g4004
sg64
(lp4015
S':'
asbag57
(g78
g59
NtRp4016
(dp4017
g62
(dp4018
sg71
g4004
sg64
(lp4019
g57
(g58
g59
NtRp4020
(dp4021
g62
(dp4022
g70
I3
ssg71
g4016
sg64
(lp4023
S''
asbasbasbasbasbasbasbasbasbasbasbag57
(g73
g59
NtRp4024
(dp4025
g62
(dp4026
sg71
g3790
sg64
(lp4027
g57
(g78
g59
NtRp4028
(dp4029
g62
(dp4030
g82
g83
ssg71
g4024
sg64
(lp4031
S'files'
p4032
asbag57
(g78
g59
NtRp4033
(dp4034
g62
(dp4035
g89
g90
ssg71
g4024
sg64
(lp4036
S':'
asbag57
(g78
g59
NtRp4037
(dp4038
g62
(dp4039
sg71
g4024
sg64
(lp4040
g57
(g58
g59
NtRp4041
(dp4042
g62
(dp4043
g70
I5
ssg71
g4037
sg64
(lp4044
g57
(g66
g59
NtRp4045
(dp4046
g62
(dp4047
g70
I4
ssg71
Nsg64
(lp4048
sbasbasbasbag57
(g73
g59
NtRp4049
(dp4050
g62
(dp4051
sg71
g3790
sg64
(lp4052
g57
(g78
g59
NtRp4053
(dp4054
g62
(dp4055
g82
g83
ssg71
g4049
sg64
(lp4056
S'flash'
p4057
asbag57
(g78
g59
NtRp4058
(dp4059
g62
(dp4060
g89
g90
ssg71
g4049
sg64
(lp4061
S':'
asbag57
(g78
g59
NtRp4062
(dp4063
g62
(dp4064
sg71
g4049
sg64
(lp4065
g57
(g58
g59
NtRp4066
(dp4067
g62
(dp4068
g70
I5
ssg71
g4062
sg64
(lp4069
S''
asbasbasbag57
(g73
g59
NtRp4070
(dp4071
g62
(dp4072
sg71
g3790
sg64
(lp4073
g57
(g78
g59
NtRp4074
(dp4075
g62
(dp4076
g82
g83
ssg71
g4070
sg64
(lp4077
S'generic_patterns'
p4078
asbag57
(g78
g59
NtRp4079
(dp4080
g62
(dp4081
g89
g90
ssg71
g4070
sg64
(lp4082
S':'
asbag57
(g78
g59
NtRp4083
(dp4084
g62
(dp4085
sg71
g4070
sg64
(lp4086
g57
(g58
g59
NtRp4087
(dp4088
g62
(dp4089
g70
I5
ssg71
g4083
sg64
(lp4090
g57
(g66
g59
NtRp4091
(dp4092
g62
(dp4093
g70
I4
ssg71
Nsg64
(lp4094
g57
(g73
g59
NtRp4095
(dp4096
g62
(dp4097
sg71
g4091
sg64
(lp4098
g57
(g78
g59
NtRp4099
(dp4100
g62
(dp4101
sg71
g4095
sg64
(lp4102
g57
(g58
g59
NtRp4103
(dp4104
g62
(dp4105
g70
I4
ssg71
g4099
sg64
(lp4106
S'*'
asbasbasbasbasbasbasbag57
(g73
g59
NtRp4107
(dp4108
g62
(dp4109
sg71
g3790
sg64
(lp4110
g57
(g78
g59
NtRp4111
(dp4112
g62
(dp4113
g82
g83
ssg71
g4107
sg64
(lp4114
S'headers'
p4115
asbag57
(g78
g59
NtRp4116
(dp4117
g62
(dp4118
g89
g90
ssg71
g4107
sg64
(lp4119
S':'
asbag57
(g78
g59
NtRp4120
(dp4121
g62
(dp4122
sg71
g4107
sg64
(lp4123
g57
(g58
g59
NtRp4124
(dp4125
g62
(dp4126
g70
I5
ssg71
g4120
sg64
(lp4127
g57
(g66
g59
NtRp4128
(dp4129
g62
(dp4130
g70
I4
ssg71
Nsg64
(lp4131
g57
(g73
g59
NtRp4132
(dp4133
g62
(dp4134
sg71
g4128
sg64
(lp4135
g57
(g78
g59
NtRp4136
(dp4137
g62
(dp4138
g82
g83
ssg71
g4132
sg64
(lp4139
S'Cache-Control'
p4140
asbag57
(g78
g59
NtRp4141
(dp4142
g62
(dp4143
g89
g90
ssg71
g4132
sg64
(lp4144
S':'
asbag57
(g78
g59
NtRp4145
(dp4146
g62
(dp4147
sg71
g4132
sg64
(lp4148
g57
(g58
g59
NtRp4149
(dp4150
g62
(dp4151
g70
I4
ssg71
g4145
sg64
(lp4152
S'no-store, no-cache, must-revalidate, post-check=0, pre-check=0'
p4153
asbasbasbag57
(g73
g59
NtRp4154
(dp4155
g62
(dp4156
sg71
g4128
sg64
(lp4157
g57
(g78
g59
NtRp4158
(dp4159
g62
(dp4160
g82
g83
ssg71
g4154
sg64
(lp4161
S'Content-Type'
p4162
asbag57
(g78
g59
NtRp4163
(dp4164
g62
(dp4165
g89
g90
ssg71
g4154
sg64
(lp4166
S':'
asbag57
(g78
g59
NtRp4167
(dp4168
g62
(dp4169
sg71
g4154
sg64
(lp4170
g57
(g58
g59
NtRp4171
(dp4172
g62
(dp4173
g70
I4
ssg71
g4167
sg64
(lp4174
S'text/html; charset=utf-8'
p4175
asbasbasbag57
(g73
g59
NtRp4176
(dp4177
g62
(dp4178
sg71
g4128
sg64
(lp4179
g57
(g78
g59
NtRp4180
(dp4181
g62
(dp4182
g82
g83
ssg71
g4176
sg64
(lp4183
S'Expires'
p4184
asbag57
(g78
g59
NtRp4185
(dp4186
g62
(dp4187
g89
g90
ssg71
g4176
sg64
(lp4188
S':'
asbag57
(g78
g59
NtRp4189
(dp4190
g62
(dp4191
sg71
g4176
sg64
(lp4192
g57
(g58
g59
NtRp4193
(dp4194
g62
(dp4195
g70
I4
ssg71
g4189
sg64
(lp4196
S'Sun, 15 May 2016 07:14:15 GMT'
p4197
asbasbasbag57
(g73
g59
NtRp4198
(dp4199
g62
(dp4200
sg71
g4128
sg64
(lp4201
g57
(g78
g59
NtRp4202
(dp4203
g62
(dp4204
g82
g83
ssg71
g4198
sg64
(lp4205
S'Pragma'
p4206
asbag57
(g78
g59
NtRp4207
(dp4208
g62
(dp4209
g89
g90
ssg71
g4198
sg64
(lp4210
S':'
asbag57
(g78
g59
NtRp4211
(dp4212
g62
(dp4213
sg71
g4198
sg64
(lp4214
g57
(g58
g59
NtRp4215
(dp4216
g62
(dp4217
g70
I4
ssg71
g4211
sg64
(lp4218
S'no-cache'
p4219
asbasbasbag57
(g73
g59
NtRp4220
(dp4221
g62
(dp4222
sg71
g4128
sg64
(lp4223
g57
(g78
g59
NtRp4224
(dp4225
g62
(dp4226
g82
g83
ssg71
g4220
sg64
(lp4227
S'X-Powered-By'
p4228
asbag57
(g78
g59
NtRp4229
(dp4230
g62
(dp4231
g89
g90
ssg71
g4220
sg64
(lp4232
S':'
asbag57
(g78
g59
NtRp4233
(dp4234
g62
(dp4235
sg71
g4220
sg64
(lp4236
g57
(g58
g59
NtRp4237
(dp4238
g62
(dp4239
g70
I4
ssg71
g4233
sg64
(lp4240
S'web2py'
p4241
asbasbasbasbasbasbasbag57
(g73
g59
NtRp4242
(dp4243
g62
(dp4244
sg71
g3790
sg64
(lp4245
g57
(g78
g59
NtRp4246
(dp4247
g62
(dp4248
g82
g83
ssg71
g4242
sg64
(lp4249
S'menu'
p4250
asbag57
(g78
g59
NtRp4251
(dp4252
g62
(dp4253
g89
g90
ssg71
g4242
sg64
(lp4254
S':'
asbag57
(g78
g59
NtRp4255
(dp4256
g62
(dp4257
sg71
g4242
sg64
(lp4258
g57
(g58
g59
NtRp4259
(dp4260
g62
(dp4261
g70
I5
ssg71
g4255
sg64
(lp4262
g57
(g66
g59
NtRp4263
(dp4264
g62
(dp4265
g70
I4
ssg71
Nsg64
(lp4266
g57
(g73
g59
NtRp4267
(dp4268
g62
(dp4269
sg71
g4263
sg64
(lp4270
g57
(g78
g59
NtRp4271
(dp4272
g62
(dp4273
sg71
g4267
sg64
(lp4274
g57
(g58
g59
NtRp4275
(dp4276
g62
(dp4277
g70
I4
ssg71
g4271
sg64
(lp4278
g57
(g66
g59
NtRp4279
(dp4280
g62
(dp4281
g70
I3
ssg71
Nsg64
(lp4282
g57
(g73
g59
NtRp4283
(dp4284
g62
(dp4285
sg71
g4279
sg64
(lp4286
g57
(g78
g59
NtRp4287
(dp4288
g62
(dp4289
sg71
g4283
sg64
(lp4290
g57
(g58
g59
NtRp4291
(dp4292
g62
(dp4293
g70
I3
ssg71
g4287
sg64
(lp4294
cgluon.languages
lazyT_unpickle
p4295
(S't\x04\x00\x00\x00Home'
tRp4296
asbasbasbag57
(g73
g59
NtRp4297
(dp4298
g62
(dp4299
sg71
g4279
sg64
(lp4300
g57
(g78
g59
NtRp4301
(dp4302
g62
(dp4303
sg71
g4297
sg64
(lp4304
g57
(g58
g59
NtRp4305
(dp4306
g62
(dp4307
g70
I3
ssg71
g4301
sg64
(lp4308
g100
asbasbasbag57
(g73
g59
NtRp4309
(dp4310
g62
(dp4311
sg71
g4279
sg64
(lp4312
g57
(g78
g59
NtRp4313
(dp4314
g62
(dp4315
sg71
g4309
sg64
(lp4316
g57
(g58
g59
NtRp4317
(dp4318
g62
(dp4319
g70
I3
ssg71
g4313
sg64
(lp4320
S'/blogpost/default/index'
p4321
asbasbasbag57
(g73
g59
NtRp4322
(dp4323
g62
(dp4324
sg71
g4279
sg64
(lp4325
g57
(g78
g59
NtRp4326
(dp4327
g62
(dp4328
sg71
g4322
sg64
(lp4329
g57
(g58
g59
NtRp4330
(dp4331
g62
(dp4332
g70
I3
ssg71
g4326
sg64
(lp4333
g57
(g66
g59
NtRp4334
(dp4335
g62
(dp4336
g70
I2
ssg71
Nsg64
(lp4337
sbasbasbasbasbasbasbasbag57
(g73
g59
NtRp4338
(dp4339
g62
(dp4340
sg71
g4263
sg64
(lp4341
g57
(g78
g59
NtRp4342
(dp4343
g62
(dp4344
sg71
g4338
sg64
(lp4345
g57
(g58
g59
NtRp4346
(dp4347
g62
(dp4348
g70
I4
ssg71
g4342
sg64
(lp4349
g57
(g66
g59
NtRp4350
(dp4351
g62
(dp4352
g70
I3
ssg71
Nsg64
(lp4353
g57
(g73
g59
NtRp4354
(dp4355
g62
(dp4356
sg71
g4350
sg64
(lp4357
g57
(g78
g59
NtRp4358
(dp4359
g62
(dp4360
sg71
g4354
sg64
(lp4361
g57
(g58
g59
NtRp4362
(dp4363
g62
(dp4364
g70
I3
ssg71
g4358
sg64
(lp4365
g57
(cgluon.html
SPAN
p4366
g59
NtRp4367
(dp4368
g62
(dp4369
g82
S'color:yellow'
p4370
ssg71
Nsg64
(lp4371
g4241
asbasbasbasbag57
(g73
g59
NtRp4372
(dp4373
g62
(dp4374
sg71
g4350
sg64
(lp4375
g57
(g78
g59
NtRp4376
(dp4377
g62
(dp4378
sg71
g4372
sg64
(lp4379
g57
(g58
g59
NtRp4380
(dp4381
g62
(dp4382
g70
I3
ssg71
g4376
sg64
(lp4383
g100
asbasbasbag57
(g73
g59
NtRp4384
(dp4385
g62
(dp4386
sg71
g4350
sg64
(lp4387
g57
(g78
g59
NtRp4388
(dp4389
g62
(dp4390
sg71
g4384
sg64
(lp4391
g57
(g58
g59
NtRp4392
(dp4393
g62
(dp4394
g70
I3
ssg71
g4388
sg64
(lp4395
S'None'
p4396
asbasbasbag57
(g73
g59
NtRp4397
(dp4398
g62
(dp4399
sg71
g4350
sg64
(lp4400
g57
(g78
g59
NtRp4401
(dp4402
g62
(dp4403
sg71
g4397
sg64
(lp4404
g57
(g58
g59
NtRp4405
(dp4406
g62
(dp4407
g70
I3
ssg71
g4401
sg64
(lp4408
g57
(g66
g59
NtRp4409
(dp4410
g62
(dp4411
g70
I2
ssg71
Nsg64
(lp4412
g57
(g73
g59
NtRp4413
(dp4414
g62
(dp4415
sg71
g4409
sg64
(lp4416
g57
(g78
g59
NtRp4417
(dp4418
g62
(dp4419
sg71
g4413
sg64
(lp4420
g57
(g58
g59
NtRp4421
(dp4422
g62
(dp4423
g70
I2
ssg71
g4417
sg64
(lp4424
g57
(g66
g59
NtRp4425
(dp4426
g62
(dp4427
g70
I1
ssg71
Nsg64
(lp4428
g57
(g73
g59
NtRp4429
(dp4430
g62
(dp4431
sg71
g4425
sg64
(lp4432
g57
(g78
g59
NtRp4433
(dp4434
g62
(dp4435
sg71
g4429
sg64
(lp4436
g57
(g58
g59
NtRp4437
(dp4438
g62
(dp4439
g70
I1
ssg71
g4433
sg64
(lp4440
g4295
(S's\x08\x00\x00\x00My Sites'
tRp4441
asbasbasbag57
(g73
g59
NtRp4442
(dp4443
g62
(dp4444
sg71
g4425
sg64
(lp4445
g57
(g78
g59
NtRp4446
(dp4447
g62
(dp4448
sg71
g4442
sg64
(lp4449
g57
(g58
g59
NtRp4450
(dp4451
g62
(dp4452
g70
I1
ssg71
g4446
sg64
(lp4453
I00
asbasbasbag57
(g73
g59
NtRp4454
(dp4455
g62
(dp4456
sg71
g4425
sg64
(lp4457
g57
(g78
g59
NtRp4458
(dp4459
g62
(dp4460
sg71
g4454
sg64
(lp4461
g57
(g58
g59
NtRp4462
(dp4463
g62
(dp4464
g70
I1
ssg71
g4458
sg64
(lp4465
S'/admin/default/site'
p4466
asbasbasbasbasbasbasbag57
(g73
g59
NtRp4467
(dp4468
g62
(dp4469
sg71
g4409
sg64
(lp4470
g57
(g78
g59
NtRp4471
(dp4472
g62
(dp4473
sg71
g4467
sg64
(lp4474
g57
(g58
g59
NtRp4475
(dp4476
g62
(dp4477
g70
I2
ssg71
g4471
sg64
(lp4478
g57
(g66
g59
NtRp4479
(dp4480
g62
(dp4481
g70
I1
ssg71
Nsg64
(lp4482
g57
(g73
g59
NtRp4483
(dp4484
g62
(dp4485
sg71
g4479
sg64
(lp4486
g57
(g78
g59
NtRp4487
(dp4488
g62
(dp4489
sg71
g4483
sg64
(lp4490
g57
(g58
g59
NtRp4491
(dp4492
g62
(dp4493
g70
I1
ssg71
g4487
sg64
(lp4494
g4295
(S's\x08\x00\x00\x00This App'
tRp4495
asbasbasbag57
(g73
g59
NtRp4496
(dp4497
g62
(dp4498
sg71
g4479
sg64
(lp4499
g57
(g78
g59
NtRp4500
(dp4501
g62
(dp4502
sg71
g4496
sg64
(lp4503
g57
(g58
g59
NtRp4504
(dp4505
g62
(dp4506
g70
I1
ssg71
g4500
sg64
(lp4507
I00
asbasbasbag57
(g73
g59
NtRp4508
(dp4509
g62
(dp4510
sg71
g4479
sg64
(lp4511
g57
(g78
g59
NtRp4512
(dp4513
g62
(dp4514
sg71
g4508
sg64
(lp4515
g57
(g58
g59
NtRp4516
(dp4517
g62
(dp4518
g70
I1
ssg71
g4512
sg64
(lp4519
S'/admin/default/design/blogpost'
p4520
asbasbasbag57
(g73
g59
NtRp4521
(dp4522
g62
(dp4523
sg71
g4479
sg64
(lp4524
g57
(g78
g59
NtRp4525
(dp4526
g62
(dp4527
sg71
g4521
sg64
(lp4528
g57
(g58
g59
NtRp4529
(dp4530
g62
(dp4531
g70
I1
ssg71
g4525
sg64
(lp4532
(lp4533
(g4295
(S't\n\x00\x00\x00Controller'
tRp4534
I00
S'/admin/default/edit/blogpost/controllers/default.py'
tp4535
a(g4295
(S't\x04\x00\x00\x00View'
tRp4536
I00
S'/admin/default/edit/blogpost/views/default/show.html'
tp4537
a(g4295
(S't\x06\x00\x00\x00Layout'
tRp4538
I00
S'/admin/default/edit/blogpost/views/layout.html'
tp4539
a(g4295
(S't\n\x00\x00\x00Stylesheet'
tRp4540
I00
S'/admin/default/edit/blogpost/static/css/web2py.css'
tp4541
a(g4295
(S's\x08\x00\x00\x00DB Model'
tRp4542
I00
S'/admin/default/edit/blogpost/models/db.py'
tp4543
a(g4295
(S's\n\x00\x00\x00Menu Model'
tRp4544
I00
S'/admin/default/edit/blogpost/models/menu.py'
tp4545
a(g4295
(S't\x08\x00\x00\x00Database'
tRp4546
I00
S'/blogpost/appadmin/index'
tp4547
a(g4295
(S't\x06\x00\x00\x00Errors'
tRp4548
I00
S'/admin/default/errors/blogpost'
tp4549
a(g4295
(S't\x05\x00\x00\x00About'
tRp4550
I00
S'/admin/default/about/blogpost'
tp4551
aasbasbasbasbasbasbasbag57
(g73
g59
NtRp4552
(dp4553
g62
(dp4554
sg71
g4409
sg64
(lp4555
g57
(g78
g59
NtRp4556
(dp4557
g62
(dp4558
sg71
g4552
sg64
(lp4559
g57
(g58
g59
NtRp4560
(dp4561
g62
(dp4562
g70
I2
ssg71
g4556
sg64
(lp4563
g57
(g66
g59
NtRp4564
(dp4565
g62
(dp4566
g70
I1
ssg71
Nsg64
(lp4567
g57
(g73
g59
NtRp4568
(dp4569
g62
(dp4570
sg71
g4564
sg64
(lp4571
g57
(g78
g59
NtRp4572
(dp4573
g62
(dp4574
sg71
g4568
sg64
(lp4575
g57
(g58
g59
NtRp4576
(dp4577
g62
(dp4578
g70
I1
ssg71
g4572
sg64
(lp4579
S'web2py.com'
p4580
asbasbasbag57
(g73
g59
NtRp4581
(dp4582
g62
(dp4583
sg71
g4564
sg64
(lp4584
g57
(g78
g59
NtRp4585
(dp4586
g62
(dp4587
sg71
g4581
sg64
(lp4588
g57
(g58
g59
NtRp4589
(dp4590
g62
(dp4591
g70
I1
ssg71
g4585
sg64
(lp4592
I00
asbasbasbag57
(g73
g59
NtRp4593
(dp4594
g62
(dp4595
sg71
g4564
sg64
(lp4596
g57
(g78
g59
NtRp4597
(dp4598
g62
(dp4599
sg71
g4593
sg64
(lp4600
g57
(g58
g59
NtRp4601
(dp4602
g62
(dp4603
g70
I1
ssg71
g4597
sg64
(lp4604
S'http://www.web2py.com'
p4605
asbasbasbag57
(g73
g59
NtRp4606
(dp4607
g62
(dp4608
sg71
g4564
sg64
(lp4609
g57
(g78
g59
NtRp4610
(dp4611
g62
(dp4612
sg71
g4606
sg64
(lp4613
g57
(g58
g59
NtRp4614
(dp4615
g62
(dp4616
g70
I1
ssg71
g4610
sg64
(lp4617
(lp4618
(g4295
(S't\x08\x00\x00\x00Download'
tRp4619
I00
S'http://www.web2py.com/examples/default/download'
p4620
tp4621
a(g4295
(S't\x07\x00\x00\x00Support'
tRp4622
I00
S'http://www.web2py.com/examples/default/support'
p4623
tp4624
a(g4295
(S't\x04\x00\x00\x00Demo'
tRp4625
I00
S'http://web2py.com/demo_admin'
p4626
tp4627
a(g4295
(S's\x0e\x00\x00\x00Quick Examples'
tRp4628
I00
S'http://web2py.com/examples/default/examples'
p4629
tp4630
a(g4295
(S't\x03\x00\x00\x00FAQ'
tRp4631
I00
S'http://web2py.com/AlterEgo'
p4632
tp4633
a(g4295
(S't\x06\x00\x00\x00Videos'
tRp4634
I00
S'http://www.web2py.com/examples/default/videos/'
p4635
tp4636
a(g4295
(S's\x11\x00\x00\x00Free Applications'
tRp4637
I00
S'http://web2py.com/appliances'
p4638
tp4639
a(g4295
(S't\x07\x00\x00\x00Plugins'
tRp4640
I00
S'http://web2py.com/plugins'
p4641
tp4642
a(g4295
(S't\x07\x00\x00\x00Layouts'
tRp4643
I00
S'http://web2py.com/layouts'
p4644
tp4645
a(g4295
(S't\x07\x00\x00\x00Recipes'
tRp4646
I00
S'http://web2pyslices.com/'
p4647
tp4648
a(g4295
(S't\x08\x00\x00\x00Semantic'
tRp4649
I00
S'http://web2py.com/semantic'
p4650
tp4651
aasbasbasbasbasbasbasbag57
(g73
g59
NtRp4652
(dp4653
g62
(dp4654
sg71
g4409
sg64
(lp4655
g57
(g78
g59
NtRp4656
(dp4657
g62
(dp4658
sg71
g4652
sg64
(lp4659
g57
(g58
g59
NtRp4660
(dp4661
g62
(dp4662
g70
I2
ssg71
g4656
sg64
(lp4663
g57
(g66
g59
NtRp4664
(dp4665
g62
(dp4666
g70
I1
ssg71
Nsg64
(lp4667
g57
(g73
g59
NtRp4668
(dp4669
g62
(dp4670
sg71
g4664
sg64
(lp4671
g57
(g78
g59
NtRp4672
(dp4673
g62
(dp4674
sg71
g4668
sg64
(lp4675
g57
(g58
g59
NtRp4676
(dp4677
g62
(dp4678
g70
I1
ssg71
g4672
sg64
(lp4679
g4295
(S't\r\x00\x00\x00Documentation'
tRp4680
asbasbasbag57
(g73
g59
NtRp4681
(dp4682
g62
(dp4683
sg71
g4664
sg64
(lp4684
g57
(g78
g59
NtRp4685
(dp4686
g62
(dp4687
sg71
g4681
sg64
(lp4688
g57
(g58
g59
NtRp4689
(dp4690
g62
(dp4691
g70
I1
ssg71
g4685
sg64
(lp4692
I00
asbasbasbag57
(g73
g59
NtRp4693
(dp4694
g62
(dp4695
sg71
g4664
sg64
(lp4696
g57
(g78
g59
NtRp4697
(dp4698
g62
(dp4699
sg71
g4693
sg64
(lp4700
g57
(g58
g59
NtRp4701
(dp4702
g62
(dp4703
g70
I1
ssg71
g4697
sg64
(lp4704
S'http://www.web2py.com/book'
p4705
asbasbasbag57
(g73
g59
NtRp4706
(dp4707
g62
(dp4708
sg71
g4664
sg64
(lp4709
g57
(g78
g59
NtRp4710
(dp4711
g62
(dp4712
sg71
g4706
sg64
(lp4713
g57
(g58
g59
NtRp4714
(dp4715
g62
(dp4716
g70
I1
ssg71
g4710
sg64
(lp4717
(lp4718
(g4295
(S't\x07\x00\x00\x00Preface'
tRp4719
I00
S'http://www.web2py.com/book/default/chapter/00'
p4720
tp4721
a(g4295
(S't\x0c\x00\x00\x00Introduction'
tRp4722
I00
S'http://www.web2py.com/book/default/chapter/01'
p4723
tp4724
a(g4295
(S't\x06\x00\x00\x00Python'
tRp4725
I00
S'http://www.web2py.com/book/default/chapter/02'
p4726
tp4727
a(g4295
(S't\x08\x00\x00\x00Overview'
tRp4728
I00
S'http://www.web2py.com/book/default/chapter/03'
p4729
tp4730
a(g4295
(S's\x08\x00\x00\x00The Core'
tRp4731
I00
S'http://www.web2py.com/book/default/chapter/04'
p4732
tp4733
a(g4295
(S's\t\x00\x00\x00The Views'
tRp4734
I00
S'http://www.web2py.com/book/default/chapter/05'
p4735
tp4736
a(g4295
(S't\x08\x00\x00\x00Database'
tRp4737
I00
S'http://www.web2py.com/book/default/chapter/06'
p4738
tp4739
a(g4295
(S's\x14\x00\x00\x00Forms and Validators'
tRp4740
I00
S'http://www.web2py.com/book/default/chapter/07'
p4741
tp4742
a(g4295
(S's\r\x00\x00\x00Email and SMS'
tRp4743
I00
S'http://www.web2py.com/book/default/chapter/08'
p4744
tp4745
a(g4295
(S's\x0e\x00\x00\x00Access Control'
tRp4746
I00
S'http://www.web2py.com/book/default/chapter/09'
p4747
tp4748
a(g4295
(S't\x08\x00\x00\x00Services'
tRp4749
I00
S'http://www.web2py.com/book/default/chapter/10'
p4750
tp4751
a(g4295
(S's\x0c\x00\x00\x00Ajax Recipes'
tRp4752
I00
S'http://www.web2py.com/book/default/chapter/11'
p4753
tp4754
a(g4295
(S's\x16\x00\x00\x00Components and Plugins'
tRp4755
I00
S'http://www.web2py.com/book/default/chapter/12'
p4756
tp4757
a(g4295
(S's\x12\x00\x00\x00Deployment Recipes'
tRp4758
I00
S'http://www.web2py.com/book/default/chapter/13'
p4759
tp4760
a(g4295
(S's\r\x00\x00\x00Other Recipes'
tRp4761
I00
S'http://www.web2py.com/book/default/chapter/14'
p4762
tp4763
a(g4295
(S's\r\x00\x00\x00Buy this book'
tRp4764
I00
S'http://stores.lulu.com/web2py'
p4765
tp4766
aasbasbasbasbasbasbasbag57
(g73
g59
NtRp4767
(dp4768
g62
(dp4769
sg71
g4409
sg64
(lp4770
g57
(g78
g59
NtRp4771
(dp4772
g62
(dp4773
sg71
g4767
sg64
(lp4774
g57
(g58
g59
NtRp4775
(dp4776
g62
(dp4777
g70
I2
ssg71
g4771
sg64
(lp4778
g57
(g66
g59
NtRp4779
(dp4780
g62
(dp4781
g70
I1
ssg71
Nsg64
(lp4782
g57
(g73
g59
NtRp4783
(dp4784
g62
(dp4785
sg71
g4779
sg64
(lp4786
g57
(g78
g59
NtRp4787
(dp4788
g62
(dp4789
sg71
g4783
sg64
(lp4790
g57
(g58
g59
NtRp4791
(dp4792
g62
(dp4793
g70
I1
ssg71
g4787
sg64
(lp4794
g4295
(S't\t\x00\x00\x00Community'
tRp4795
asbasbasbag57
(g73
g59
NtRp4796
(dp4797
g62
(dp4798
sg71
g4779
sg64
(lp4799
g57
(g78
g59
NtRp4800
(dp4801
g62
(dp4802
sg71
g4796
sg64
(lp4803
g57
(g58
g59
NtRp4804
(dp4805
g62
(dp4806
g70
I1
ssg71
g4800
sg64
(lp4807
I00
asbasbasbag57
(g73
g59
NtRp4808
(dp4809
g62
(dp4810
sg71
g4779
sg64
(lp4811
g57
(g78
g59
NtRp4812
(dp4813
g62
(dp4814
sg71
g4808
sg64
(lp4815
g57
(g58
g59
NtRp4816
(dp4817
g62
(dp4818
g70
I1
ssg71
g4812
sg64
(lp4819
Nasbasbasbag57
(g73
g59
NtRp4820
(dp4821
g62
(dp4822
sg71
g4779
sg64
(lp4823
g57
(g78
g59
NtRp4824
(dp4825
g62
(dp4826
sg71
g4820
sg64
(lp4827
g57
(g58
g59
NtRp4828
(dp4829
g62
(dp4830
g70
I1
ssg71
g4824
sg64
(lp4831
(lp4832
(g4295
(S't\x06\x00\x00\x00Groups'
tRp4833
I00
S'http://www.web2py.com/examples/default/usergroups'
p4834
tp4835
a(g4295
(S't\x07\x00\x00\x00Twitter'
tRp4836
I00
S'http://twitter.com/web2py'
p4837
tp4838
a(g4295
(S's\t\x00\x00\x00Live Chat'
tRp4839
I00
S'http://webchat.freenode.net/?channels=web2py'
p4840
tp4841
aasbasbasbasbasbasbasbag57
(g73
g59
NtRp4842
(dp4843
g62
(dp4844
sg71
g4409
sg64
(lp4845
g57
(g78
g59
NtRp4846
(dp4847
g62
(dp4848
sg71
g4842
sg64
(lp4849
g57
(g58
g59
NtRp4850
(dp4851
g62
(dp4852
g70
I2
ssg71
g4846
sg64
(lp4853
g57
(g66
g59
NtRp4854
(dp4855
g62
(dp4856
g70
I1
ssg71
Nsg64
(lp4857
g57
(g73
g59
NtRp4858
(dp4859
g62
(dp4860
sg71
g4854
sg64
(lp4861
g57
(g78
g59
NtRp4862
(dp4863
g62
(dp4864
sg71
g4858
sg64
(lp4865
g57
(g58
g59
NtRp4866
(dp4867
g62
(dp4868
g70
I1
ssg71
g4862
sg64
(lp4869
g4295
(S't\x07\x00\x00\x00Plugins'
tRp4870
asbasbasbag57
(g73
g59
NtRp4871
(dp4872
g62
(dp4873
sg71
g4854
sg64
(lp4874
g57
(g78
g59
NtRp4875
(dp4876
g62
(dp4877
sg71
g4871
sg64
(lp4878
g57
(g58
g59
NtRp4879
(dp4880
g62
(dp4881
g70
I1
ssg71
g4875
sg64
(lp4882
I00
asbasbasbag57
(g73
g59
NtRp4883
(dp4884
g62
(dp4885
sg71
g4854
sg64
(lp4886
g57
(g78
g59
NtRp4887
(dp4888
g62
(dp4889
sg71
g4883
sg64
(lp4890
g57
(g58
g59
NtRp4891
(dp4892
g62
(dp4893
g70
I1
ssg71
g4887
sg64
(lp4894
Nasbasbasbag57
(g73
g59
NtRp4895
(dp4896
g62
(dp4897
sg71
g4854
sg64
(lp4898
g57
(g78
g59
NtRp4899
(dp4900
g62
(dp4901
sg71
g4895
sg64
(lp4902
g57
(g58
g59
NtRp4903
(dp4904
g62
(dp4905
g70
I1
ssg71
g4899
sg64
(lp4906
(lp4907
(S'plugin_wiki'
p4908
I00
S'http://web2py.com/examples/default/download'
p4909
tp4910
a(g4295
(S's\r\x00\x00\x00Other Plugins'
tRp4911
I00
g4641
tp4912
a(g4295
(S's\x0e\x00\x00\x00Layout Plugins'
tRp4913
I00
g4644
tp4914
aasbasbasbasbasbasbasbasbasbasbasbasbasbasbasbasbasbasbasbag57
(g73
g59
NtRp4915
(dp4916
g62
(dp4917
sg71
g3790
sg64
(lp4918
g57
(g78
g59
NtRp4919
(dp4920
g62
(dp4921
g82
g83
ssg71
g4915
sg64
(lp4922
S'meta'
p4923
asbag57
(g78
g59
NtRp4924
(dp4925
g62
(dp4926
g89
g90
ssg71
g4915
sg64
(lp4927
S':'
asbag57
(g78
g59
NtRp4928
(dp4929
g62
(dp4930
sg71
g4915
sg64
(lp4931
g57
(g58
g59
NtRp4932
(dp4933
g62
(dp4934
g70
I5
ssg71
g4928
sg64
(lp4935
g57
(g66
g59
NtRp4936
(dp4937
g62
(dp4938
g70
I4
ssg71
Nsg64
(lp4939
g57
(g73
g59
NtRp4940
(dp4941
g62
(dp4942
sg71
g4936
sg64
(lp4943
g57
(g78
g59
NtRp4944
(dp4945
g62
(dp4946
g82
g83
ssg71
g4940
sg64
(lp4947
S'author'
p4948
asbag57
(g78
g59
NtRp4949
(dp4950
g62
(dp4951
g89
g90
ssg71
g4940
sg64
(lp4952
S':'
asbag57
(g78
g59
NtRp4953
(dp4954
g62
(dp4955
sg71
g4940
sg64
(lp4956
g57
(g58
g59
NtRp4957
(dp4958
g62
(dp4959
g70
I4
ssg71
g4953
sg64
(lp4960
S'Your Name <you@example.com>'
p4961
asbasbasbag57
(g73
g59
NtRp4962
(dp4963
g62
(dp4964
sg71
g4936
sg64
(lp4965
g57
(g78
g59
NtRp4966
(dp4967
g62
(dp4968
g82
g83
ssg71
g4962
sg64
(lp4969
S'copyright'
p4970
asbag57
(g78
g59
NtRp4971
(dp4972
g62
(dp4973
g89
g90
ssg71
g4962
sg64
(lp4974
S':'
asbag57
(g78
g59
NtRp4975
(dp4976
g62
(dp4977
sg71
g4962
sg64
(lp4978
g57
(g58
g59
NtRp4979
(dp4980
g62
(dp4981
g70
I4
ssg71
g4975
sg64
(lp4982
S'Copyright 2011'
p4983
asbasbasbag57
(g73
g59
NtRp4984
(dp4985
g62
(dp4986
sg71
g4936
sg64
(lp4987
g57
(g78
g59
NtRp4988
(dp4989
g62
(dp4990
g82
g83
ssg71
g4984
sg64
(lp4991
S'description'
p4992
asbag57
(g78
g59
NtRp4993
(dp4994
g62
(dp4995
g89
g90
ssg71
g4984
sg64
(lp4996
S':'
asbag57
(g78
g59
NtRp4997
(dp4998
g62
(dp4999
sg71
g4984
sg64
(lp5000
g57
(g58
g59
NtRp5001
(dp5002
g62
(dp5003
g70
I4
ssg71
g4997
sg64
(lp5004
S'a cool new app'
p5005
asbasbasbag57
(g73
g59
NtRp5006
(dp5007
g62
(dp5008
sg71
g4936
sg64
(lp5009
g57
(g78
g59
NtRp5010
(dp5011
g62
(dp5012
g82
g83
ssg71
g5006
sg64
(lp5013
S'generator'
p5014
asbag57
(g78
g59
NtRp5015
(dp5016
g62
(dp5017
g89
g90
ssg71
g5006
sg64
(lp5018
S':'
asbag57
(g78
g59
NtRp5019
(dp5020
g62
(dp5021
sg71
g5006
sg64
(lp5022
g57
(g58
g59
NtRp5023
(dp5024
g62
(dp5025
g70
I4
ssg71
g5019
sg64
(lp5026
S'Web2py Web Framework'
p5027
asbasbasbag57
(g73
g59
NtRp5028
(dp5029
g62
(dp5030
sg71
g4936
sg64
(lp5031
g57
(g78
g59
NtRp5032
(dp5033
g62
(dp5034
g82
g83
ssg71
g5028
sg64
(lp5035
S'keywords'
p5036
asbag57
(g78
g59
NtRp5037
(dp5038
g62
(dp5039
g89
g90
ssg71
g5028
sg64
(lp5040
S':'
asbag57
(g78
g59
NtRp5041
(dp5042
g62
(dp5043
sg71
g5028
sg64
(lp5044
g57
(g58
g59
NtRp5045
(dp5046
g62
(dp5047
g70
I4
ssg71
g5041
sg64
(lp5048
S'web2py, python, framework'
p5049
asbasbasbasbasbasbasbag57
(g73
g59
NtRp5050
(dp5051
g62
(dp5052
sg71
g3790
sg64
(lp5053
g57
(g78
g59
NtRp5054
(dp5055
g62
(dp5056
g82
g83
ssg71
g5050
sg64
(lp5057
S'postprocessing'
p5058
asbag57
(g78
g59
NtRp5059
(dp5060
g62
(dp5061
g89
g90
ssg71
g5050
sg64
(lp5062
S':'
asbag57
(g78
g59
NtRp5063
(dp5064
g62
(dp5065
sg71
g5050
sg64
(lp5066
g57
(g58
g59
NtRp5067
(dp5068
g62
(dp5069
g70
I5
ssg71
g5063
sg64
(lp5070
g57
(g66
g59
NtRp5071
(dp5072
g62
(dp5073
g70
I4
ssg71
Nsg64
(lp5074
sbasbasbasbag57
(g73
g59
NtRp5075
(dp5076
g62
(dp5077
sg71
g3790
sg64
(lp5078
g57
(g78
g59
NtRp5079
(dp5080
g62
(dp5081
g82
g83
ssg71
g5075
sg64
(lp5082
S'session_file'
p5083
asbag57
(g78
g59
NtRp5084
(dp5085
g62
(dp5086
g89
g90
ssg71
g5075
sg64
(lp5087
S':'
asbag57
(g78
g59
NtRp5088
(dp5089
g62
(dp5090
sg71
g5075
sg64
(lp5091
g57
(g58
g59
NtRp5092
(dp5093
g62
(dp5094
g70
I5
ssg71
g5088
sg64
(lp5095
S"<open file '/home/mukul/web2py/applications/blogpost/sessions/127.0.0.1-bcd64a48-cdf0-42c4-b6ce-38fdcd520e45', mode 'rb+' at 0xaa31c758>"
p5096
asbasbasbag57
(g73
g59
NtRp5097
(dp5098
g62
(dp5099
sg71
g3790
sg64
(lp5100
g57
(g78
g59
NtRp5101
(dp5102
g62
(dp5103
g82
g83
ssg71
g5097
sg64
(lp5104
S'session_filename'
p5105
asbag57
(g78
g59
NtRp5106
(dp5107
g62
(dp5108
g89
g90
ssg71
g5097
sg64
(lp5109
S':'
asbag57
(g78
g59
NtRp5110
(dp5111
g62
(dp5112
sg71
g5097
sg64
(lp5113
g57
(g58
g59
NtRp5114
(dp5115
g62
(dp5116
g70
I5
ssg71
g5110
sg64
(lp5117
S'/home/mukul/web2py/applications/blogpost/sessions/127.0.0.1-bcd64a48-cdf0-42c4-b6ce-38fdcd520e45'
p5118
asbasbasbag57
(g73
g59
NtRp5119
(dp5120
g62
(dp5121
sg71
g3790
sg64
(lp5122
g57
(g78
g59
NtRp5123
(dp5124
g62
(dp5125
g82
g83
ssg71
g5119
sg64
(lp5126
S'session_id'
p5127
asbag57
(g78
g59
NtRp5128
(dp5129
g62
(dp5130
g89
g90
ssg71
g5119
sg64
(lp5131
S':'
asbag57
(g78
g59
NtRp5132
(dp5133
g62
(dp5134
sg71
g5119
sg64
(lp5135
g57
(g58
g59
NtRp5136
(dp5137
g62
(dp5138
g70
I5
ssg71
g5132
sg64
(lp5139
S'127.0.0.1-bcd64a48-cdf0-42c4-b6ce-38fdcd520e45'
p5140
asbasbasbag57
(g73
g59
NtRp5141
(dp5142
g62
(dp5143
sg71
g3790
sg64
(lp5144
g57
(g78
g59
NtRp5145
(dp5146
g62
(dp5147
g82
g83
ssg71
g5141
sg64
(lp5148
S'session_id_name'
p5149
asbag57
(g78
g59
NtRp5150
(dp5151
g62
(dp5152
g89
g90
ssg71
g5141
sg64
(lp5153
S':'
asbag57
(g78
g59
NtRp5154
(dp5155
g62
(dp5156
sg71
g5141
sg64
(lp5157
g57
(g58
g59
NtRp5158
(dp5159
g62
(dp5160
g70
I5
ssg71
g5154
sg64
(lp5161
g3847
asbasbasbag57
(g73
g59
NtRp5162
(dp5163
g62
(dp5164
sg71
g3790
sg64
(lp5165
g57
(g78
g59
NtRp5166
(dp5167
g62
(dp5168
g82
g83
ssg71
g5162
sg64
(lp5169
S'session_locked'
p5170
asbag57
(g78
g59
NtRp5171
(dp5172
g62
(dp5173
g89
g90
ssg71
g5162
sg64
(lp5174
S':'
asbag57
(g78
g59
NtRp5175
(dp5176
g62
(dp5177
sg71
g5162
sg64
(lp5178
g57
(g58
g59
NtRp5179
(dp5180
g62
(dp5181
g70
I5
ssg71
g5175
sg64
(lp5182
g1807
asbasbasbag57
(g73
g59
NtRp5183
(dp5184
g62
(dp5185
sg71
g3790
sg64
(lp5186
g57
(g78
g59
NtRp5187
(dp5188
g62
(dp5189
g82
g83
ssg71
g5183
sg64
(lp5190
S'session_new'
p5191
asbag57
(g78
g59
NtRp5192
(dp5193
g62
(dp5194
g89
g90
ssg71
g5183
sg64
(lp5195
S':'
asbag57
(g78
g59
NtRp5196
(dp5197
g62
(dp5198
sg71
g5183
sg64
(lp5199
g57
(g58
g59
NtRp5200
(dp5201
g62
(dp5202
g70
I5
ssg71
g5196
sg64
(lp5203
g100
asbasbasbag57
(g73
g59
NtRp5204
(dp5205
g62
(dp5206
sg71
g3790
sg64
(lp5207
g57
(g78
g59
NtRp5208
(dp5209
g62
(dp5210
g82
g83
ssg71
g5204
sg64
(lp5211
S'status'
p5212
asbag57
(g78
g59
NtRp5213
(dp5214
g62
(dp5215
g89
g90
ssg71
g5204
sg64
(lp5216
S':'
asbag57
(g78
g59
NtRp5217
(dp5218
g62
(dp5219
sg71
g5204
sg64
(lp5220
g57
(g58
g59
NtRp5221
(dp5222
g62
(dp5223
g70
I5
ssg71
g5217
sg64
(lp5224
S'200'
p5225
asbasbasbag57
(g73
g59
NtRp5226
(dp5227
g62
(dp5228
sg71
g3790
sg64
(lp5229
g57
(g78
g59
NtRp5230
(dp5231
g62
(dp5232
g82
g83
ssg71
g5226
sg64
(lp5233
S'subtitle'
p5234
asbag57
(g78
g59
NtRp5235
(dp5236
g62
(dp5237
g89
g90
ssg71
g5226
sg64
(lp5238
S':'
asbag57
(g78
g59
NtRp5239
(dp5240
g62
(dp5241
sg71
g5226
sg64
(lp5242
g57
(g58
g59
NtRp5243
(dp5244
g62
(dp5245
g70
I5
ssg71
g5239
sg64
(lp5246
g4295
(S's\r\x00\x00\x00customize me!'
tRp5247
asbasbasbag57
(g73
g59
NtRp5248
(dp5249
g62
(dp5250
sg71
g3790
sg64
(lp5251
g57
(g78
g59
NtRp5252
(dp5253
g62
(dp5254
g82
g83
ssg71
g5248
sg64
(lp5255
S'title'
p5256
asbag57
(g78
g59
NtRp5257
(dp5258
g62
(dp5259
g89
g90
ssg71
g5248
sg64
(lp5260
S':'
asbag57
(g78
g59
NtRp5261
(dp5262
g62
(dp5263
sg71
g5248
sg64
(lp5264
g57
(g58
g59
NtRp5265
(dp5266
g62
(dp5267
g70
I5
ssg71
g5261
sg64
(lp5268
S'Blogpost'
p5269
asbasbasbag57
(g73
g59
NtRp5270
(dp5271
g62
(dp5272
sg71
g3790
sg64
(lp5273
g57
(g78
g59
NtRp5274
(dp5275
g62
(dp5276
g82
g83
ssg71
g5270
sg64
(lp5277
g2515
asbag57
(g78
g59
NtRp5278
(dp5279
g62
(dp5280
g89
g90
ssg71
g5270
sg64
(lp5281
S':'
asbag57
(g78
g59
NtRp5282
(dp5283
g62
(dp5284
sg71
g5270
sg64
(lp5285
g57
(g58
g59
NtRp5286
(dp5287
g62
(dp5288
g70
I5
ssg71
g5282
sg64
(lp5289
g2528
asbasbasbag57
(g73
g59
NtRp5290
(dp5291
g62
(dp5292
sg71
g3790
sg64
(lp5293
g57
(g78
g59
NtRp5294
(dp5295
g62
(dp5296
g82
g83
ssg71
g5290
sg64
(lp5297
S'view'
p5298
asbag57
(g78
g59
NtRp5299
(dp5300
g62
(dp5301
g89
g90
ssg71
g5290
sg64
(lp5302
S':'
asbag57
(g78
g59
NtRp5303
(dp5304
g62
(dp5305
sg71
g5290
sg64
(lp5306
g57
(g58
g59
NtRp5307
(dp5308
g62
(dp5309
g70
I5
ssg71
g5303
sg64
(lp5310
S'default/show.html'
p5311
asbasbasbasbasbsS'locals'
p5312
(dp5313
S'imag'
p5314
S'<gluon.dal.Rows object>'
p5315
sS'comments'
p5316
S"'hjjjj\\r\\nkkkkk\\r\\nllll'"
p5317
sssS'traceback'
p5318
S'Traceback (most recent call last):\n  File "/usr/lib/pymodules/python2.7/gluon/restricted.py", line 204, in restricted\n    exec ccode in environment\n  File "/home/mukul/web2py/applications/blogpost/controllers/default.py", line 49, in <module>\n  File "/usr/lib/pymodules/python2.7/gluon/globals.py", line 172, in <lambda>\n    self._caller = lambda f: f()\n  File "/usr/lib/pymodules/python2.7/gluon/tools.py", line 2533, in f\n    return action(*a, **b)\n  File "/home/mukul/web2py/applications/blogpost/controllers/default.py", line 47, in show\n    return dict(imag=imag ,x=commented)\nUnboundLocalError: local variable \'commented\' referenced before assignment\n'
p5319
s.