(dp1
S'output'
p2
S"<type 'exceptions.SyntaxError'> invalid syntax (show.html, line 76)"
p3
sS'layer'
p4
S'/home/mukul/web2py/applications/blogpost/views/default/show.html'
p5
sS'code'
p6
S'response.write(\'<!DOCTYPE html>\\n<!-- paulirish.com/2008/conditional-stylesheets-vs-css-hacks-answer-neither/ -->\\n<!--[if lt IE 7]><html class="ie ie6 ie-lte9 ie-lte8 ie-lte7 no-js" lang="\', escape=False)\nresponse.write(T.accepted_language or \'en\')\nresponse.write(\'"> <![endif]-->\\n<!--[if IE 7]><html class="ie ie7 ie-lte9 ie-lte8 ie-lte7 no-js" lang="\', escape=False)\nresponse.write(T.accepted_language or \'en\')\nresponse.write(\'"> <![endif]-->\\n<!--[if IE 8]><html class="ie ie8 ie-lte9 ie-lte8 no-js" lang="\', escape=False)\nresponse.write(T.accepted_language or \'en\')\nresponse.write(\'"> <![endif]-->\\n<!--[if IE 9]><html class="ie9 ie-lte9 no-js" lang="\', escape=False)\nresponse.write(T.accepted_language or \'en\')\nresponse.write(\'"> <![endif]-->\\n<!--[if (gt IE 9)|!(IE)]><!--> <html class="no-js" lang="\', escape=False)\nresponse.write(T.accepted_language or \'en\')\nresponse.write(\'"> <!--<![endif]-->\\n<head>\\n  <meta charset="utf-8" />\\n  <!-- www.phpied.com/conditional-comments-block-downloads/ -->\\n  <!-- Always force latest IE rendering engine\\n\\t   (even in intranet) & Chrome Frame\\n\\t   Remove this if you use the .htaccess -->\\n  <!--[if IE]>\\n    <meta http-equiv="X-UA-Compatible" content="IE=edge\', escape=False)\nresponse.write(not request.is_local and \',chrome=1\' or \'\')\nresponse.write(\'">\\n  <![endif]-->\\n  \\n  <title>\', escape=False)\nresponse.write(response.title or request.application)\nresponse.write(\'</title>\\n  \\n  <!-- http://dev.w3.org/html5/markup/meta.name.html -->\\n  <meta name="application-name" content="\', escape=False)\nresponse.write(request.application)\nresponse.write(\'" />\\n  \\n  <!-- Speaking of Google, don\\\'t forget to set your site up:\\n\\t   http://google.com/webmasters -->\\n  <meta name="google-site-verification" content="" />\\n\\n  <!--  Mobile Viewport Fix\\n\\t  j.mp/mobileviewport & davidbcalhoun.com/2010/viewport-metatag\\n\\t  device-width: Occupy full width of the screen in its current orientation\\n\\t  initial-scale = 1.0 retains dimensions instead of zooming out if page height > device height\\n\\t  user-scalable = yes allows the user to zoom in -->\\n  <meta name="viewport" content="width=device-width, initial-scale=1.0, user-scalable=yes">\\n  \\n  <!-- Place favicon.ico and apple-touch-icon.png in the root of your domain and delete these references -->\\n  <link rel="shortcut icon" href="\', escape=False)\nresponse.write(URL(\'static\',\'favicon.ico\'))\nresponse.write(\'" type="image/x-icon">\\n  <link rel="apple-touch-icon" href="\', escape=False)\nresponse.write(URL(\'static\',\'favicon.png\'))\nresponse.write(\'">\\n\\n  <!-- All JavaScript at the bottom, except for Modernizr which enables \\n\\t   HTML5 elements & feature detects -->\\n  <script src="\', escape=False)\nresponse.write(URL(\'static\',\'js/modernizr.custom.js\'))\nresponse.write(\'"></script>  \\n\\n  <!-- include stylesheets -->\\n  \', escape=False)\nresponse.files.append(URL(\'static\',\'css/skeleton.css\'))\nresponse.files.append(URL(\'static\',\'css/web2py.css\'))\nresponse.files.append(URL(\'static\',\'css/superfish.css\'))\nresponse.files.append(URL(\'static\',\'js/superfish.js\'))\nresponse.write(\'\\n\\n  \', escape=False)\nresponse.write(\'<script type="text/javascript"><!--\\n    // These variables are used by the web2py_ajax_init function in web2py_ajax.js (which is loaded below).\\n    var w2p_ajax_confirm_message = "\', escape=False)\nresponse.write(T(\'Are you sure you want to delete this object?\'))\nresponse.write(\'";\\n    var w2p_ajax_date_format = "\', escape=False)\nresponse.write(T(\'%Y-%m-%d\'))\nresponse.write(\'";\\n    var w2p_ajax_datetime_format = "\', escape=False)\nresponse.write(T(\'%Y-%m-%d %H:%M:%S\'))\nresponse.write(\'";\\n    //--></script>\\n\', escape=False)\nresponse.files.insert(0,URL(\'static\',\'js/jquery.js\'))\nresponse.files.insert(1,URL(\'static\',\'css/calendar.css\'))\nresponse.files.insert(2,URL(\'static\',\'js/calendar.js\'))\nresponse.files.insert(3,URL(\'static\',\'js/web2py.js\'))\nresponse.include_meta()\nresponse.include_files()\nresponse.write(\'\\n\', escape=False)\nresponse.write(\'\\n\\n  <script type="text/javascript">\\n    jQuery(function(){ jQuery(\\\'ul.sf-menu\\\').supersubs({minWidth:12,maxWidth:30,extraWidth:3}).superfish(); });\\n  </script>\\n\\n  \', escape=False)\n# using sidebars need to know what sidebar you want to use\nleft_sidebar_enabled = globals().get(\'left_sidebar_enabled\',False)\nright_sidebar_enabled = globals().get(\'right_sidebar_enabled\',False)\nmiddle_columns = {0:\'sixteen\',1:\'twelve\',2:\'eight\'}[\n(left_sidebar_enabled and 1 or 0)+(right_sidebar_enabled and 1 or 0)]\nresponse.write(\'\\n\\n  <!-- uncomment here to load jquery-ui\\n  <link rel="stylesheet" href="http://ajax.googleapis.com/ajax/libs/jqueryui/1.8.16/themes/base/jquery-ui.css" type="text/css" media="all" />\\n  <script src="http://ajax.googleapis.com/ajax/libs/jqueryui/1.8.16/jquery-ui.min.js" type="text/javascript"></script>\\n  uncomment to load jquery-ui //-->\\n</head>\\n<body>\\n  <div class="wrapper"><!-- for sticky footer -->\\n  \\n    <div class="topbar">\\n      <div class="container">    \\n        <div class="sixteen columns">\\n          <div id="navbar">\', escape=False)\nresponse.write(\'auth\' in globals() and auth.navbar(separators=(\' \',\' | \',\'\')))\nresponse.write(\'</div>\\n          \', escape=False)\nis_mobile=request.user_agent().is_mobile\nresponse.write(\'\\n          <div id="menu">\', escape=False)\nresponse.write(MENU(response.menu, _class=\'mobile-menu\' if is_mobile else \'sf-menu\',mobile=is_mobile))\nresponse.write(\'\\n          </div>\\n        </div>\\n      </div>\\n    </div><!-- topbar -->\\n    \\n    <div class="flash">\', escape=False)\nresponse.write(response.flash or \'\')\nresponse.write(\'</div>\\n    \\n    <div class="header">\\n      <div class="container">         \\n        <div class="sixteen columns">\\n          <h1 class="remove-bottom" style="margin-top: .5em;">\\n          \', escape=False)\nresponse.write(response.title or request.application)\nresponse.write(\'\\n          </h1>\\n          <h5>\', escape=False)\nresponse.write(response.subtitle or \'\')\nresponse.write(\'</h5>\\n        </div>\\n        <div class="sixteen columns">\\n          <div class="statusbar clearfix">\\n            \', escape=False)\nresponse.write(\'\\n            <div class="breadcrumbs">\', escape=False)\nresponse.write(request.function.replace(\'_\', \' \').title())\nresponse.write(\'</div>\\n            \', escape=False)\nresponse.write(\'\\n            <!-- AddToAny BEGIN -->\\n            <div style="float:right; padding-top: .25em;" class="a2a_kit a2a_default_style">\\n            <a class="a2a_dd" href="http://www.addtoany.com/share_save">Share</a></div>\\n            <script type="text/javascript" src="http://static.addtoany.com/menu/page.js"></script>\\n            <!-- AddToAny END -->\\n          </div>\\n        </div>\\n      </div>\\n    </div>\\n\\n    <div class="main">\\n      <div class="container">                 \\n        \', escape=False)\nif left_sidebar_enabled:\n    response.write(\'\\n        <div class="four columns left-sidebar">\\n          \', escape=False)\n    response.write(\'\\n          <h3>Left Sidebar</h3>\\n          <p></p>\\n          \', escape=False)\n    response.write(\'\\n        </div>\\n        \', escape=False)\n    pass\nresponse.write(\'\\n        \\n        <div class="\', escape=False)\nresponse.write(middle_columns)\nresponse.write(\' columns center">\\n          \', escape=False)\nresponse.write(\'\\n          \', escape=False)\nresponse.write(\'\\n<h1>All Blogs</h1>\\n\', escape=False)\nfor row in imag\nresponse.write(\'\\n<ul>\\n<li> \', escape=False)\nrow.title\nresponse.write(\'</li>\\n<li> \', escape=False)\nrow.image\nresponse.write(\'</li>\\n<li> \', escape=False)\nrow.data\nresponse.write(\'</li>\\n<li> \', escape=False)\nrow.date_time\nresponse.write(\'</li>\\n\\n\\n\', escape=False)\npass\nresponse.write(\'\\n\', escape=False)\nresponse.write(BEAUTIFY(response._vars))\nresponse.write(\'\\n\', escape=False)\nresponse.write(\'\\n          \', escape=False)\nresponse.write(\'\\n        </div>\\n        \\n        \', escape=False)\nif right_sidebar_enabled:\n    response.write(\'\\n        <div class="four columns">\\n          \', escape=False)\n    response.write(\'\\n          <h3>Right Sidebar</h3>\\n          <p></p>\\n          \', escape=False)\n    response.write(\'\\n        </div>    \\n        \', escape=False)\n    pass\nresponse.write(\'\\n        \\n      </div><!-- container -->\\n    </div><!-- main -->\\n    \\n    <div class="push"></div>\\n  </div><!-- wrapper -->\\n\\n  <div class="footer">\\n    <div class="container">    \\n      <div class="sixteen columns">\\n        \', escape=False)\nresponse.write(\' <!-- this is default footer -->\\n        <div class="footer-content clearfix">\\n          <div class="copyright">\', escape=False)\nresponse.write(T(\'Copyright\'))\nresponse.write(\' &#169; 2011</div>\\n          <div style="float: right;">\\n            <a href="http://www.web2py.com/">\\n            <img style="padding-bottom: 0;" src="\', escape=False)\nresponse.write(URL(\'static\',\'images/poweredby.png\'))\nresponse.write(\'"/>\\n            </a>\\n          </div>\\n        </div>\\n        \', escape=False)\nresponse.write(\'\\t\\n      </div>\\n    </div><!-- container -->\\n  </div><!-- footer -->\\n  \\n  <!--[if lt IE 7 ]>\\n\\t<script src="\', escape=False)\nresponse.write(URL(\'static\',\'js/dd_belatedpng.js\'))\nresponse.write(\'"></script>\\n\\t<script> DD_belatedPNG.fix(\\\'img, .png_bg\\\'); //fix any <img> or .png_bg background-images </script>\\n\\t<![endif]-->\\n  \', escape=False)\nif response.google_analytics_id:\n    response.write(\'<script type="text/javascript"> var _gaq = _gaq || []; _gaq.push([\\\'_setAccount\\\', \\\'\', escape=False)\n    response.write(response.google_analytics_id)\n    response.write("\']); _gaq.push([\'_trackPageview\']); (function() { var ga = document.createElement(\'script\'); ga.type = \'text/javascript\'; ga.async = true; ga.src = (\'https:\' == document.location.protocol ? \'https://ssl\' : \'http://www\') + \'.google-analytics.com/ga.js\'; var s = document.getElementsByTagName(\'script\')[0]; s.parentNode.insertBefore(ga, s); })(); </script> ", escape=False)\n    pass\nresponse.write(\'\\n</body>\\n</html>\\n\', escape=False)'
p7
sS'snapshot'
p8
(dp9
S'exception'
p10
(dp11
S'__getslice__'
p12
S"<method-wrapper '__getslice__' of exceptions.SyntaxError object>"
p13
sS'text'
p14
S"'for row in imag\\n'"
p15
sS'__str__'
p16
S"<method-wrapper '__str__' of exceptions.SyntaxError object>"
p17
sS'__reduce__'
p18
S'<built-in method __reduce__ of exceptions.SyntaxError object>'
p19
sS'__dict__'
p20
S'{}'
p21
sS'__sizeof__'
p22
S'<built-in method __sizeof__ of exceptions.SyntaxError object>'
p23
sS'__init__'
p24
S"<method-wrapper '__init__' of exceptions.SyntaxError object>"
p25
sS'__setattr__'
p26
S"<method-wrapper '__setattr__' of exceptions.SyntaxError object>"
p27
sS'__reduce_ex__'
p28
S'<built-in method __reduce_ex__ of exceptions.SyntaxError object>'
p29
sS'__new__'
p30
S'<built-in method __new__ of type object>'
p31
sS'__format__'
p32
S'<built-in method __format__ of exceptions.SyntaxError object>'
p33
sS'__class__'
p34
S"<type 'exceptions.SyntaxError'>"
p35
sS'filename'
p36
S"'/home/mukul/web2py/applications/blogpost/views/default/show.html'"
p37
sS'lineno'
p38
S'76'
p39
sS'msg'
p40
S"'invalid syntax'"
p41
sS'__doc__'
p42
S"'Invalid syntax.'"
p43
sS'__getitem__'
p44
S"<method-wrapper '__getitem__' of exceptions.SyntaxError object>"
p45
sS'__setstate__'
p46
S'<built-in method __setstate__ of exceptions.SyntaxError object>'
p47
sS'__getattribute__'
p48
S"<method-wrapper '__getattribute__' of exceptions.SyntaxError object>"
p49
sS'print_file_and_line'
p50
S'None'
p51
sS'args'
p52
S"('invalid syntax', ('/home/mukul/web2py/applications/blogpost/views/default/show.html', 76, 16, 'for row in imag\\n'))"
p53
sS'__subclasshook__'
p54
S'<built-in method __subclasshook__ of type object>'
p55
sS'offset'
p56
S'16'
p57
sS'__unicode__'
p58
S'<built-in method __unicode__ of exceptions.SyntaxError object>'
p59
sS'__delattr__'
p60
S"<method-wrapper '__delattr__' of exceptions.SyntaxError object>"
p61
sS'__repr__'
p62
S"<method-wrapper '__repr__' of exceptions.SyntaxError object>"
p63
sS'__hash__'
p64
S"<method-wrapper '__hash__' of exceptions.SyntaxError object>"
p65
ssS'evalue'
p66
S'invalid syntax (show.html, line 76)'
p67
sS'request'
p68
ccopy_reg
_reconstructor
p69
(cgluon.html
BEAUTIFY
p70
c__builtin__
object
p71
NtRp72
(dp73
S'attributes'
p74
(dp75
sS'components'
p76
(lp77
g69
(cgluon.html
TABLE
p78
g71
NtRp79
(dp80
g74
(dp81
S'level'
p82
I5
ssS'parent'
p83
Nsg76
(lp84
g69
(cgluon.html
TR
p85
g71
NtRp86
(dp87
g74
(dp88
sg83
g79
sg76
(lp89
g69
(cgluon.html
TD
p90
g71
NtRp91
(dp92
g74
(dp93
S'_style'
p94
S'font-weight:bold;vertical-align:top'
p95
ssg83
g86
sg76
(lp96
S'ajax'
p97
asbag69
(g90
g71
NtRp98
(dp99
g74
(dp100
S'_valign'
p101
S'top'
p102
ssg83
g86
sg76
(lp103
S':'
asbag69
(g90
g71
NtRp104
(dp105
g74
(dp106
sg83
g86
sg76
(lp107
g69
(g70
g71
NtRp108
(dp109
g74
(dp110
g82
I5
ssg83
g104
sg76
(lp111
S'False'
p112
asbasbasbag69
(g85
g71
NtRp113
(dp114
g74
(dp115
sg83
g79
sg76
(lp116
g69
(g90
g71
NtRp117
(dp118
g74
(dp119
g94
g95
ssg83
g113
sg76
(lp120
S'application'
p121
asbag69
(g90
g71
NtRp122
(dp123
g74
(dp124
g101
g102
ssg83
g113
sg76
(lp125
S':'
asbag69
(g90
g71
NtRp126
(dp127
g74
(dp128
sg83
g113
sg76
(lp129
g69
(g70
g71
NtRp130
(dp131
g74
(dp132
g82
I5
ssg83
g126
sg76
(lp133
S'blogpost'
p134
asbasbasbag69
(g85
g71
NtRp135
(dp136
g74
(dp137
sg83
g79
sg76
(lp138
g69
(g90
g71
NtRp139
(dp140
g74
(dp141
g94
g95
ssg83
g135
sg76
(lp142
g52
asbag69
(g90
g71
NtRp143
(dp144
g74
(dp145
g101
g102
ssg83
g135
sg76
(lp146
S':'
asbag69
(g90
g71
NtRp147
(dp148
g74
(dp149
sg83
g135
sg76
(lp150
g69
(g70
g71
NtRp151
(dp152
g74
(dp153
g82
I5
ssg83
g147
sg76
(lp154
g69
(g78
g71
NtRp155
(dp156
g74
(dp157
g82
I4
ssg83
Nsg76
(lp158
sbasbasbasbag69
(g85
g71
NtRp159
(dp160
g74
(dp161
sg83
g79
sg76
(lp162
g69
(g90
g71
NtRp163
(dp164
g74
(dp165
g94
g95
ssg83
g159
sg76
(lp166
S'body'
p167
asbag69
(g90
g71
NtRp168
(dp169
g74
(dp170
g101
g102
ssg83
g159
sg76
(lp171
S':'
asbag69
(g90
g71
NtRp172
(dp173
g74
(dp174
sg83
g159
sg76
(lp175
g69
(g70
g71
NtRp176
(dp177
g74
(dp178
g82
I5
ssg83
g172
sg76
(lp179
S'<cStringIO.StringO object at 0x9591840>'
p180
asbasbasbag69
(g85
g71
NtRp181
(dp182
g74
(dp183
sg83
g79
sg76
(lp184
g69
(g90
g71
NtRp185
(dp186
g74
(dp187
g94
g95
ssg83
g181
sg76
(lp188
S'client'
p189
asbag69
(g90
g71
NtRp190
(dp191
g74
(dp192
g101
g102
ssg83
g181
sg76
(lp193
S':'
asbag69
(g90
g71
NtRp194
(dp195
g74
(dp196
sg83
g181
sg76
(lp197
g69
(g70
g71
NtRp198
(dp199
g74
(dp200
g82
I5
ssg83
g194
sg76
(lp201
S'127.0.0.1'
p202
asbasbasbag69
(g85
g71
NtRp203
(dp204
g74
(dp205
sg83
g79
sg76
(lp206
g69
(g90
g71
NtRp207
(dp208
g74
(dp209
g94
g95
ssg83
g203
sg76
(lp210
S'controller'
p211
asbag69
(g90
g71
NtRp212
(dp213
g74
(dp214
g101
g102
ssg83
g203
sg76
(lp215
S':'
asbag69
(g90
g71
NtRp216
(dp217
g74
(dp218
sg83
g203
sg76
(lp219
g69
(g70
g71
NtRp220
(dp221
g74
(dp222
g82
I5
ssg83
g216
sg76
(lp223
S'default'
p224
asbasbasbag69
(g85
g71
NtRp225
(dp226
g74
(dp227
sg83
g79
sg76
(lp228
g69
(g90
g71
NtRp229
(dp230
g74
(dp231
g94
g95
ssg83
g225
sg76
(lp232
S'cookies'
p233
asbag69
(g90
g71
NtRp234
(dp235
g74
(dp236
g101
g102
ssg83
g225
sg76
(lp237
S':'
asbag69
(g90
g71
NtRp238
(dp239
g74
(dp240
sg83
g225
sg76
(lp241
g69
(g70
g71
NtRp242
(dp243
g74
(dp244
g82
I5
ssg83
g238
sg76
(lp245
g69
(g78
g71
NtRp246
(dp247
g74
(dp248
g82
I4
ssg83
Nsg76
(lp249
g69
(g85
g71
NtRp250
(dp251
g74
(dp252
sg83
g246
sg76
(lp253
g69
(g90
g71
NtRp254
(dp255
g74
(dp256
g94
g95
ssg83
g250
sg76
(lp257
S'session_id_admin'
p258
asbag69
(g90
g71
NtRp259
(dp260
g74
(dp261
g101
g102
ssg83
g250
sg76
(lp262
S':'
asbag69
(g90
g71
NtRp263
(dp264
g74
(dp265
sg83
g250
sg76
(lp266
g69
(g70
g71
NtRp267
(dp268
g74
(dp269
g82
I4
ssg83
g263
sg76
(lp270
g69
(g78
g71
NtRp271
(dp272
g74
(dp273
g82
I3
ssg83
Nsg76
(lp274
g69
(g85
g71
NtRp275
(dp276
g74
(dp277
sg83
g271
sg76
(lp278
g69
(g90
g71
NtRp279
(dp280
g74
(dp281
g94
g95
ssg83
g275
sg76
(lp282
S'comment'
p283
asbag69
(g90
g71
NtRp284
(dp285
g74
(dp286
g101
g102
ssg83
g275
sg76
(lp287
S':'
asbag69
(g90
g71
NtRp288
(dp289
g74
(dp290
sg83
g275
sg76
(lp291
g69
(g70
g71
NtRp292
(dp293
g74
(dp294
g82
I3
ssg83
g288
sg76
(lp295
S''
asbasbasbag69
(g85
g71
NtRp296
(dp297
g74
(dp298
sg83
g271
sg76
(lp299
g69
(g90
g71
NtRp300
(dp301
g74
(dp302
g94
g95
ssg83
g296
sg76
(lp303
S'domain'
p304
asbag69
(g90
g71
NtRp305
(dp306
g74
(dp307
g101
g102
ssg83
g296
sg76
(lp308
S':'
asbag69
(g90
g71
NtRp309
(dp310
g74
(dp311
sg83
g296
sg76
(lp312
g69
(g70
g71
NtRp313
(dp314
g74
(dp315
g82
I3
ssg83
g309
sg76
(lp316
S''
asbasbasbag69
(g85
g71
NtRp317
(dp318
g74
(dp319
sg83
g271
sg76
(lp320
g69
(g90
g71
NtRp321
(dp322
g74
(dp323
g94
g95
ssg83
g317
sg76
(lp324
S'expires'
p325
asbag69
(g90
g71
NtRp326
(dp327
g74
(dp328
g101
g102
ssg83
g317
sg76
(lp329
S':'
asbag69
(g90
g71
NtRp330
(dp331
g74
(dp332
sg83
g317
sg76
(lp333
g69
(g70
g71
NtRp334
(dp335
g74
(dp336
g82
I3
ssg83
g330
sg76
(lp337
S''
asbasbasbag69
(g85
g71
NtRp338
(dp339
g74
(dp340
sg83
g271
sg76
(lp341
g69
(g90
g71
NtRp342
(dp343
g74
(dp344
g94
g95
ssg83
g338
sg76
(lp345
S'httponly'
p346
asbag69
(g90
g71
NtRp347
(dp348
g74
(dp349
g101
g102
ssg83
g338
sg76
(lp350
S':'
asbag69
(g90
g71
NtRp351
(dp352
g74
(dp353
sg83
g338
sg76
(lp354
g69
(g70
g71
NtRp355
(dp356
g74
(dp357
g82
I3
ssg83
g351
sg76
(lp358
S''
asbasbasbag69
(g85
g71
NtRp359
(dp360
g74
(dp361
sg83
g271
sg76
(lp362
g69
(g90
g71
NtRp363
(dp364
g74
(dp365
g94
g95
ssg83
g359
sg76
(lp366
S'max-age'
p367
asbag69
(g90
g71
NtRp368
(dp369
g74
(dp370
g101
g102
ssg83
g359
sg76
(lp371
S':'
asbag69
(g90
g71
NtRp372
(dp373
g74
(dp374
sg83
g359
sg76
(lp375
g69
(g70
g71
NtRp376
(dp377
g74
(dp378
g82
I3
ssg83
g372
sg76
(lp379
S''
asbasbasbag69
(g85
g71
NtRp380
(dp381
g74
(dp382
sg83
g271
sg76
(lp383
g69
(g90
g71
NtRp384
(dp385
g74
(dp386
g94
g95
ssg83
g380
sg76
(lp387
S'path'
p388
asbag69
(g90
g71
NtRp389
(dp390
g74
(dp391
g101
g102
ssg83
g380
sg76
(lp392
S':'
asbag69
(g90
g71
NtRp393
(dp394
g74
(dp395
sg83
g380
sg76
(lp396
g69
(g70
g71
NtRp397
(dp398
g74
(dp399
g82
I3
ssg83
g393
sg76
(lp400
S''
asbasbasbag69
(g85
g71
NtRp401
(dp402
g74
(dp403
sg83
g271
sg76
(lp404
g69
(g90
g71
NtRp405
(dp406
g74
(dp407
g94
g95
ssg83
g401
sg76
(lp408
S'secure'
p409
asbag69
(g90
g71
NtRp410
(dp411
g74
(dp412
g101
g102
ssg83
g401
sg76
(lp413
S':'
asbag69
(g90
g71
NtRp414
(dp415
g74
(dp416
sg83
g401
sg76
(lp417
g69
(g70
g71
NtRp418
(dp419
g74
(dp420
g82
I3
ssg83
g414
sg76
(lp421
S''
asbasbasbag69
(g85
g71
NtRp422
(dp423
g74
(dp424
sg83
g271
sg76
(lp425
g69
(g90
g71
NtRp426
(dp427
g74
(dp428
g94
g95
ssg83
g422
sg76
(lp429
S'version'
p430
asbag69
(g90
g71
NtRp431
(dp432
g74
(dp433
g101
g102
ssg83
g422
sg76
(lp434
S':'
asbag69
(g90
g71
NtRp435
(dp436
g74
(dp437
sg83
g422
sg76
(lp438
g69
(g70
g71
NtRp439
(dp440
g74
(dp441
g82
I3
ssg83
g435
sg76
(lp442
S''
asbasbasbasbasbasbasbag69
(g85
g71
NtRp443
(dp444
g74
(dp445
sg83
g246
sg76
(lp446
g69
(g90
g71
NtRp447
(dp448
g74
(dp449
g94
g95
ssg83
g443
sg76
(lp450
S'session_id_blogpost'
p451
asbag69
(g90
g71
NtRp452
(dp453
g74
(dp454
g101
g102
ssg83
g443
sg76
(lp455
S':'
asbag69
(g90
g71
NtRp456
(dp457
g74
(dp458
sg83
g443
sg76
(lp459
g69
(g70
g71
NtRp460
(dp461
g74
(dp462
g82
I4
ssg83
g456
sg76
(lp463
g69
(g78
g71
NtRp464
(dp465
g74
(dp466
g82
I3
ssg83
Nsg76
(lp467
g69
(g85
g71
NtRp468
(dp469
g74
(dp470
sg83
g464
sg76
(lp471
g69
(g90
g71
NtRp472
(dp473
g74
(dp474
g94
g95
ssg83
g468
sg76
(lp475
g283
asbag69
(g90
g71
NtRp476
(dp477
g74
(dp478
g101
g102
ssg83
g468
sg76
(lp479
S':'
asbag69
(g90
g71
NtRp480
(dp481
g74
(dp482
sg83
g468
sg76
(lp483
g69
(g70
g71
NtRp484
(dp485
g74
(dp486
g82
I3
ssg83
g480
sg76
(lp487
S''
asbasbasbag69
(g85
g71
NtRp488
(dp489
g74
(dp490
sg83
g464
sg76
(lp491
g69
(g90
g71
NtRp492
(dp493
g74
(dp494
g94
g95
ssg83
g488
sg76
(lp495
g304
asbag69
(g90
g71
NtRp496
(dp497
g74
(dp498
g101
g102
ssg83
g488
sg76
(lp499
S':'
asbag69
(g90
g71
NtRp500
(dp501
g74
(dp502
sg83
g488
sg76
(lp503
g69
(g70
g71
NtRp504
(dp505
g74
(dp506
g82
I3
ssg83
g500
sg76
(lp507
S''
asbasbasbag69
(g85
g71
NtRp508
(dp509
g74
(dp510
sg83
g464
sg76
(lp511
g69
(g90
g71
NtRp512
(dp513
g74
(dp514
g94
g95
ssg83
g508
sg76
(lp515
g325
asbag69
(g90
g71
NtRp516
(dp517
g74
(dp518
g101
g102
ssg83
g508
sg76
(lp519
S':'
asbag69
(g90
g71
NtRp520
(dp521
g74
(dp522
sg83
g508
sg76
(lp523
g69
(g70
g71
NtRp524
(dp525
g74
(dp526
g82
I3
ssg83
g520
sg76
(lp527
S''
asbasbasbag69
(g85
g71
NtRp528
(dp529
g74
(dp530
sg83
g464
sg76
(lp531
g69
(g90
g71
NtRp532
(dp533
g74
(dp534
g94
g95
ssg83
g528
sg76
(lp535
g346
asbag69
(g90
g71
NtRp536
(dp537
g74
(dp538
g101
g102
ssg83
g528
sg76
(lp539
S':'
asbag69
(g90
g71
NtRp540
(dp541
g74
(dp542
sg83
g528
sg76
(lp543
g69
(g70
g71
NtRp544
(dp545
g74
(dp546
g82
I3
ssg83
g540
sg76
(lp547
S''
asbasbasbag69
(g85
g71
NtRp548
(dp549
g74
(dp550
sg83
g464
sg76
(lp551
g69
(g90
g71
NtRp552
(dp553
g74
(dp554
g94
g95
ssg83
g548
sg76
(lp555
g367
asbag69
(g90
g71
NtRp556
(dp557
g74
(dp558
g101
g102
ssg83
g548
sg76
(lp559
S':'
asbag69
(g90
g71
NtRp560
(dp561
g74
(dp562
sg83
g548
sg76
(lp563
g69
(g70
g71
NtRp564
(dp565
g74
(dp566
g82
I3
ssg83
g560
sg76
(lp567
S''
asbasbasbag69
(g85
g71
NtRp568
(dp569
g74
(dp570
sg83
g464
sg76
(lp571
g69
(g90
g71
NtRp572
(dp573
g74
(dp574
g94
g95
ssg83
g568
sg76
(lp575
g388
asbag69
(g90
g71
NtRp576
(dp577
g74
(dp578
g101
g102
ssg83
g568
sg76
(lp579
S':'
asbag69
(g90
g71
NtRp580
(dp581
g74
(dp582
sg83
g568
sg76
(lp583
g69
(g70
g71
NtRp584
(dp585
g74
(dp586
g82
I3
ssg83
g580
sg76
(lp587
S''
asbasbasbag69
(g85
g71
NtRp588
(dp589
g74
(dp590
sg83
g464
sg76
(lp591
g69
(g90
g71
NtRp592
(dp593
g74
(dp594
g94
g95
ssg83
g588
sg76
(lp595
g409
asbag69
(g90
g71
NtRp596
(dp597
g74
(dp598
g101
g102
ssg83
g588
sg76
(lp599
S':'
asbag69
(g90
g71
NtRp600
(dp601
g74
(dp602
sg83
g588
sg76
(lp603
g69
(g70
g71
NtRp604
(dp605
g74
(dp606
g82
I3
ssg83
g600
sg76
(lp607
S''
asbasbasbag69
(g85
g71
NtRp608
(dp609
g74
(dp610
sg83
g464
sg76
(lp611
g69
(g90
g71
NtRp612
(dp613
g74
(dp614
g94
g95
ssg83
g608
sg76
(lp615
g430
asbag69
(g90
g71
NtRp616
(dp617
g74
(dp618
g101
g102
ssg83
g608
sg76
(lp619
S':'
asbag69
(g90
g71
NtRp620
(dp621
g74
(dp622
sg83
g608
sg76
(lp623
g69
(g70
g71
NtRp624
(dp625
g74
(dp626
g82
I3
ssg83
g620
sg76
(lp627
S''
asbasbasbasbasbasbasbag69
(g85
g71
NtRp628
(dp629
g74
(dp630
sg83
g246
sg76
(lp631
g69
(g90
g71
NtRp632
(dp633
g74
(dp634
g94
g95
ssg83
g628
sg76
(lp635
S'session_id_go_to_app'
p636
asbag69
(g90
g71
NtRp637
(dp638
g74
(dp639
g101
g102
ssg83
g628
sg76
(lp640
S':'
asbag69
(g90
g71
NtRp641
(dp642
g74
(dp643
sg83
g628
sg76
(lp644
g69
(g70
g71
NtRp645
(dp646
g74
(dp647
g82
I4
ssg83
g641
sg76
(lp648
g69
(g78
g71
NtRp649
(dp650
g74
(dp651
g82
I3
ssg83
Nsg76
(lp652
g69
(g85
g71
NtRp653
(dp654
g74
(dp655
sg83
g649
sg76
(lp656
g69
(g90
g71
NtRp657
(dp658
g74
(dp659
g94
g95
ssg83
g653
sg76
(lp660
g283
asbag69
(g90
g71
NtRp661
(dp662
g74
(dp663
g101
g102
ssg83
g653
sg76
(lp664
S':'
asbag69
(g90
g71
NtRp665
(dp666
g74
(dp667
sg83
g653
sg76
(lp668
g69
(g70
g71
NtRp669
(dp670
g74
(dp671
g82
I3
ssg83
g665
sg76
(lp672
S''
asbasbasbag69
(g85
g71
NtRp673
(dp674
g74
(dp675
sg83
g649
sg76
(lp676
g69
(g90
g71
NtRp677
(dp678
g74
(dp679
g94
g95
ssg83
g673
sg76
(lp680
g304
asbag69
(g90
g71
NtRp681
(dp682
g74
(dp683
g101
g102
ssg83
g673
sg76
(lp684
S':'
asbag69
(g90
g71
NtRp685
(dp686
g74
(dp687
sg83
g673
sg76
(lp688
g69
(g70
g71
NtRp689
(dp690
g74
(dp691
g82
I3
ssg83
g685
sg76
(lp692
S''
asbasbasbag69
(g85
g71
NtRp693
(dp694
g74
(dp695
sg83
g649
sg76
(lp696
g69
(g90
g71
NtRp697
(dp698
g74
(dp699
g94
g95
ssg83
g693
sg76
(lp700
g325
asbag69
(g90
g71
NtRp701
(dp702
g74
(dp703
g101
g102
ssg83
g693
sg76
(lp704
S':'
asbag69
(g90
g71
NtRp705
(dp706
g74
(dp707
sg83
g693
sg76
(lp708
g69
(g70
g71
NtRp709
(dp710
g74
(dp711
g82
I3
ssg83
g705
sg76
(lp712
S''
asbasbasbag69
(g85
g71
NtRp713
(dp714
g74
(dp715
sg83
g649
sg76
(lp716
g69
(g90
g71
NtRp717
(dp718
g74
(dp719
g94
g95
ssg83
g713
sg76
(lp720
g346
asbag69
(g90
g71
NtRp721
(dp722
g74
(dp723
g101
g102
ssg83
g713
sg76
(lp724
S':'
asbag69
(g90
g71
NtRp725
(dp726
g74
(dp727
sg83
g713
sg76
(lp728
g69
(g70
g71
NtRp729
(dp730
g74
(dp731
g82
I3
ssg83
g725
sg76
(lp732
S''
asbasbasbag69
(g85
g71
NtRp733
(dp734
g74
(dp735
sg83
g649
sg76
(lp736
g69
(g90
g71
NtRp737
(dp738
g74
(dp739
g94
g95
ssg83
g733
sg76
(lp740
g367
asbag69
(g90
g71
NtRp741
(dp742
g74
(dp743
g101
g102
ssg83
g733
sg76
(lp744
S':'
asbag69
(g90
g71
NtRp745
(dp746
g74
(dp747
sg83
g733
sg76
(lp748
g69
(g70
g71
NtRp749
(dp750
g74
(dp751
g82
I3
ssg83
g745
sg76
(lp752
S''
asbasbasbag69
(g85
g71
NtRp753
(dp754
g74
(dp755
sg83
g649
sg76
(lp756
g69
(g90
g71
NtRp757
(dp758
g74
(dp759
g94
g95
ssg83
g753
sg76
(lp760
g388
asbag69
(g90
g71
NtRp761
(dp762
g74
(dp763
g101
g102
ssg83
g753
sg76
(lp764
S':'
asbag69
(g90
g71
NtRp765
(dp766
g74
(dp767
sg83
g753
sg76
(lp768
g69
(g70
g71
NtRp769
(dp770
g74
(dp771
g82
I3
ssg83
g765
sg76
(lp772
S''
asbasbasbag69
(g85
g71
NtRp773
(dp774
g74
(dp775
sg83
g649
sg76
(lp776
g69
(g90
g71
NtRp777
(dp778
g74
(dp779
g94
g95
ssg83
g773
sg76
(lp780
g409
asbag69
(g90
g71
NtRp781
(dp782
g74
(dp783
g101
g102
ssg83
g773
sg76
(lp784
S':'
asbag69
(g90
g71
NtRp785
(dp786
g74
(dp787
sg83
g773
sg76
(lp788
g69
(g70
g71
NtRp789
(dp790
g74
(dp791
g82
I3
ssg83
g785
sg76
(lp792
S''
asbasbasbag69
(g85
g71
NtRp793
(dp794
g74
(dp795
sg83
g649
sg76
(lp796
g69
(g90
g71
NtRp797
(dp798
g74
(dp799
g94
g95
ssg83
g793
sg76
(lp800
g430
asbag69
(g90
g71
NtRp801
(dp802
g74
(dp803
g101
g102
ssg83
g793
sg76
(lp804
S':'
asbag69
(g90
g71
NtRp805
(dp806
g74
(dp807
sg83
g793
sg76
(lp808
g69
(g70
g71
NtRp809
(dp810
g74
(dp811
g82
I3
ssg83
g805
sg76
(lp812
S''
asbasbasbasbasbasbasbag69
(g85
g71
NtRp813
(dp814
g74
(dp815
sg83
g246
sg76
(lp816
g69
(g90
g71
NtRp817
(dp818
g74
(dp819
g94
g95
ssg83
g813
sg76
(lp820
S'session_id_mukul'
p821
asbag69
(g90
g71
NtRp822
(dp823
g74
(dp824
g101
g102
ssg83
g813
sg76
(lp825
S':'
asbag69
(g90
g71
NtRp826
(dp827
g74
(dp828
sg83
g813
sg76
(lp829
g69
(g70
g71
NtRp830
(dp831
g74
(dp832
g82
I4
ssg83
g826
sg76
(lp833
g69
(g78
g71
NtRp834
(dp835
g74
(dp836
g82
I3
ssg83
Nsg76
(lp837
g69
(g85
g71
NtRp838
(dp839
g74
(dp840
sg83
g834
sg76
(lp841
g69
(g90
g71
NtRp842
(dp843
g74
(dp844
g94
g95
ssg83
g838
sg76
(lp845
g283
asbag69
(g90
g71
NtRp846
(dp847
g74
(dp848
g101
g102
ssg83
g838
sg76
(lp849
S':'
asbag69
(g90
g71
NtRp850
(dp851
g74
(dp852
sg83
g838
sg76
(lp853
g69
(g70
g71
NtRp854
(dp855
g74
(dp856
g82
I3
ssg83
g850
sg76
(lp857
S''
asbasbasbag69
(g85
g71
NtRp858
(dp859
g74
(dp860
sg83
g834
sg76
(lp861
g69
(g90
g71
NtRp862
(dp863
g74
(dp864
g94
g95
ssg83
g858
sg76
(lp865
g304
asbag69
(g90
g71
NtRp866
(dp867
g74
(dp868
g101
g102
ssg83
g858
sg76
(lp869
S':'
asbag69
(g90
g71
NtRp870
(dp871
g74
(dp872
sg83
g858
sg76
(lp873
g69
(g70
g71
NtRp874
(dp875
g74
(dp876
g82
I3
ssg83
g870
sg76
(lp877
S''
asbasbasbag69
(g85
g71
NtRp878
(dp879
g74
(dp880
sg83
g834
sg76
(lp881
g69
(g90
g71
NtRp882
(dp883
g74
(dp884
g94
g95
ssg83
g878
sg76
(lp885
g325
asbag69
(g90
g71
NtRp886
(dp887
g74
(dp888
g101
g102
ssg83
g878
sg76
(lp889
S':'
asbag69
(g90
g71
NtRp890
(dp891
g74
(dp892
sg83
g878
sg76
(lp893
g69
(g70
g71
NtRp894
(dp895
g74
(dp896
g82
I3
ssg83
g890
sg76
(lp897
S''
asbasbasbag69
(g85
g71
NtRp898
(dp899
g74
(dp900
sg83
g834
sg76
(lp901
g69
(g90
g71
NtRp902
(dp903
g74
(dp904
g94
g95
ssg83
g898
sg76
(lp905
g346
asbag69
(g90
g71
NtRp906
(dp907
g74
(dp908
g101
g102
ssg83
g898
sg76
(lp909
S':'
asbag69
(g90
g71
NtRp910
(dp911
g74
(dp912
sg83
g898
sg76
(lp913
g69
(g70
g71
NtRp914
(dp915
g74
(dp916
g82
I3
ssg83
g910
sg76
(lp917
S''
asbasbasbag69
(g85
g71
NtRp918
(dp919
g74
(dp920
sg83
g834
sg76
(lp921
g69
(g90
g71
NtRp922
(dp923
g74
(dp924
g94
g95
ssg83
g918
sg76
(lp925
g367
asbag69
(g90
g71
NtRp926
(dp927
g74
(dp928
g101
g102
ssg83
g918
sg76
(lp929
S':'
asbag69
(g90
g71
NtRp930
(dp931
g74
(dp932
sg83
g918
sg76
(lp933
g69
(g70
g71
NtRp934
(dp935
g74
(dp936
g82
I3
ssg83
g930
sg76
(lp937
S''
asbasbasbag69
(g85
g71
NtRp938
(dp939
g74
(dp940
sg83
g834
sg76
(lp941
g69
(g90
g71
NtRp942
(dp943
g74
(dp944
g94
g95
ssg83
g938
sg76
(lp945
g388
asbag69
(g90
g71
NtRp946
(dp947
g74
(dp948
g101
g102
ssg83
g938
sg76
(lp949
S':'
asbag69
(g90
g71
NtRp950
(dp951
g74
(dp952
sg83
g938
sg76
(lp953
g69
(g70
g71
NtRp954
(dp955
g74
(dp956
g82
I3
ssg83
g950
sg76
(lp957
S''
asbasbasbag69
(g85
g71
NtRp958
(dp959
g74
(dp960
sg83
g834
sg76
(lp961
g69
(g90
g71
NtRp962
(dp963
g74
(dp964
g94
g95
ssg83
g958
sg76
(lp965
g409
asbag69
(g90
g71
NtRp966
(dp967
g74
(dp968
g101
g102
ssg83
g958
sg76
(lp969
S':'
asbag69
(g90
g71
NtRp970
(dp971
g74
(dp972
sg83
g958
sg76
(lp973
g69
(g70
g71
NtRp974
(dp975
g74
(dp976
g82
I3
ssg83
g970
sg76
(lp977
S''
asbasbasbag69
(g85
g71
NtRp978
(dp979
g74
(dp980
sg83
g834
sg76
(lp981
g69
(g90
g71
NtRp982
(dp983
g74
(dp984
g94
g95
ssg83
g978
sg76
(lp985
g430
asbag69
(g90
g71
NtRp986
(dp987
g74
(dp988
g101
g102
ssg83
g978
sg76
(lp989
S':'
asbag69
(g90
g71
NtRp990
(dp991
g74
(dp992
sg83
g978
sg76
(lp993
g69
(g70
g71
NtRp994
(dp995
g74
(dp996
g82
I3
ssg83
g990
sg76
(lp997
S''
asbasbasbasbasbasbasbag69
(g85
g71
NtRp998
(dp999
g74
(dp1000
sg83
g246
sg76
(lp1001
g69
(g90
g71
NtRp1002
(dp1003
g74
(dp1004
g94
g95
ssg83
g998
sg76
(lp1005
S'session_id_welcome'
p1006
asbag69
(g90
g71
NtRp1007
(dp1008
g74
(dp1009
g101
g102
ssg83
g998
sg76
(lp1010
S':'
asbag69
(g90
g71
NtRp1011
(dp1012
g74
(dp1013
sg83
g998
sg76
(lp1014
g69
(g70
g71
NtRp1015
(dp1016
g74
(dp1017
g82
I4
ssg83
g1011
sg76
(lp1018
g69
(g78
g71
NtRp1019
(dp1020
g74
(dp1021
g82
I3
ssg83
Nsg76
(lp1022
g69
(g85
g71
NtRp1023
(dp1024
g74
(dp1025
sg83
g1019
sg76
(lp1026
g69
(g90
g71
NtRp1027
(dp1028
g74
(dp1029
g94
g95
ssg83
g1023
sg76
(lp1030
g283
asbag69
(g90
g71
NtRp1031
(dp1032
g74
(dp1033
g101
g102
ssg83
g1023
sg76
(lp1034
S':'
asbag69
(g90
g71
NtRp1035
(dp1036
g74
(dp1037
sg83
g1023
sg76
(lp1038
g69
(g70
g71
NtRp1039
(dp1040
g74
(dp1041
g82
I3
ssg83
g1035
sg76
(lp1042
S''
asbasbasbag69
(g85
g71
NtRp1043
(dp1044
g74
(dp1045
sg83
g1019
sg76
(lp1046
g69
(g90
g71
NtRp1047
(dp1048
g74
(dp1049
g94
g95
ssg83
g1043
sg76
(lp1050
g304
asbag69
(g90
g71
NtRp1051
(dp1052
g74
(dp1053
g101
g102
ssg83
g1043
sg76
(lp1054
S':'
asbag69
(g90
g71
NtRp1055
(dp1056
g74
(dp1057
sg83
g1043
sg76
(lp1058
g69
(g70
g71
NtRp1059
(dp1060
g74
(dp1061
g82
I3
ssg83
g1055
sg76
(lp1062
S''
asbasbasbag69
(g85
g71
NtRp1063
(dp1064
g74
(dp1065
sg83
g1019
sg76
(lp1066
g69
(g90
g71
NtRp1067
(dp1068
g74
(dp1069
g94
g95
ssg83
g1063
sg76
(lp1070
g325
asbag69
(g90
g71
NtRp1071
(dp1072
g74
(dp1073
g101
g102
ssg83
g1063
sg76
(lp1074
S':'
asbag69
(g90
g71
NtRp1075
(dp1076
g74
(dp1077
sg83
g1063
sg76
(lp1078
g69
(g70
g71
NtRp1079
(dp1080
g74
(dp1081
g82
I3
ssg83
g1075
sg76
(lp1082
S''
asbasbasbag69
(g85
g71
NtRp1083
(dp1084
g74
(dp1085
sg83
g1019
sg76
(lp1086
g69
(g90
g71
NtRp1087
(dp1088
g74
(dp1089
g94
g95
ssg83
g1083
sg76
(lp1090
g346
asbag69
(g90
g71
NtRp1091
(dp1092
g74
(dp1093
g101
g102
ssg83
g1083
sg76
(lp1094
S':'
asbag69
(g90
g71
NtRp1095
(dp1096
g74
(dp1097
sg83
g1083
sg76
(lp1098
g69
(g70
g71
NtRp1099
(dp1100
g74
(dp1101
g82
I3
ssg83
g1095
sg76
(lp1102
S''
asbasbasbag69
(g85
g71
NtRp1103
(dp1104
g74
(dp1105
sg83
g1019
sg76
(lp1106
g69
(g90
g71
NtRp1107
(dp1108
g74
(dp1109
g94
g95
ssg83
g1103
sg76
(lp1110
g367
asbag69
(g90
g71
NtRp1111
(dp1112
g74
(dp1113
g101
g102
ssg83
g1103
sg76
(lp1114
S':'
asbag69
(g90
g71
NtRp1115
(dp1116
g74
(dp1117
sg83
g1103
sg76
(lp1118
g69
(g70
g71
NtRp1119
(dp1120
g74
(dp1121
g82
I3
ssg83
g1115
sg76
(lp1122
S''
asbasbasbag69
(g85
g71
NtRp1123
(dp1124
g74
(dp1125
sg83
g1019
sg76
(lp1126
g69
(g90
g71
NtRp1127
(dp1128
g74
(dp1129
g94
g95
ssg83
g1123
sg76
(lp1130
g388
asbag69
(g90
g71
NtRp1131
(dp1132
g74
(dp1133
g101
g102
ssg83
g1123
sg76
(lp1134
S':'
asbag69
(g90
g71
NtRp1135
(dp1136
g74
(dp1137
sg83
g1123
sg76
(lp1138
g69
(g70
g71
NtRp1139
(dp1140
g74
(dp1141
g82
I3
ssg83
g1135
sg76
(lp1142
S''
asbasbasbag69
(g85
g71
NtRp1143
(dp1144
g74
(dp1145
sg83
g1019
sg76
(lp1146
g69
(g90
g71
NtRp1147
(dp1148
g74
(dp1149
g94
g95
ssg83
g1143
sg76
(lp1150
g409
asbag69
(g90
g71
NtRp1151
(dp1152
g74
(dp1153
g101
g102
ssg83
g1143
sg76
(lp1154
S':'
asbag69
(g90
g71
NtRp1155
(dp1156
g74
(dp1157
sg83
g1143
sg76
(lp1158
g69
(g70
g71
NtRp1159
(dp1160
g74
(dp1161
g82
I3
ssg83
g1155
sg76
(lp1162
S''
asbasbasbag69
(g85
g71
NtRp1163
(dp1164
g74
(dp1165
sg83
g1019
sg76
(lp1166
g69
(g90
g71
NtRp1167
(dp1168
g74
(dp1169
g94
g95
ssg83
g1163
sg76
(lp1170
g430
asbag69
(g90
g71
NtRp1171
(dp1172
g74
(dp1173
g101
g102
ssg83
g1163
sg76
(lp1174
S':'
asbag69
(g90
g71
NtRp1175
(dp1176
g74
(dp1177
sg83
g1163
sg76
(lp1178
g69
(g70
g71
NtRp1179
(dp1180
g74
(dp1181
g82
I3
ssg83
g1175
sg76
(lp1182
S''
asbasbasbasbasbasbasbasbasbasbasbag69
(g85
g71
NtRp1183
(dp1184
g74
(dp1185
sg83
g79
sg76
(lp1186
g69
(g90
g71
NtRp1187
(dp1188
g74
(dp1189
g94
g95
ssg83
g1183
sg76
(lp1190
S'env'
p1191
asbag69
(g90
g71
NtRp1192
(dp1193
g74
(dp1194
g101
g102
ssg83
g1183
sg76
(lp1195
S':'
asbag69
(g90
g71
NtRp1196
(dp1197
g74
(dp1198
sg83
g1183
sg76
(lp1199
g69
(g70
g71
NtRp1200
(dp1201
g74
(dp1202
g82
I5
ssg83
g1196
sg76
(lp1203
g69
(g78
g71
NtRp1204
(dp1205
g74
(dp1206
g82
I4
ssg83
Nsg76
(lp1207
g69
(g85
g71
NtRp1208
(dp1209
g74
(dp1210
sg83
g1204
sg76
(lp1211
g69
(g90
g71
NtRp1212
(dp1213
g74
(dp1214
g94
g95
ssg83
g1208
sg76
(lp1215
S'app_folders'
p1216
asbag69
(g90
g71
NtRp1217
(dp1218
g74
(dp1219
g101
g102
ssg83
g1208
sg76
(lp1220
S':'
asbag69
(g90
g71
NtRp1221
(dp1222
g74
(dp1223
sg83
g1208
sg76
(lp1224
g69
(g70
g71
NtRp1225
(dp1226
g74
(dp1227
g82
I4
ssg83
g1221
sg76
(lp1228
S"set(['/home/mukul/web2py/applications/admin/', '/home/mukul/web2py/applications/blogpost/', '/home/mukul/web2py/applications/go_to_app/', '/home/mukul/web2py/applications/welcome/', '/home/mukul/web2py/applications/mukul/', '/home/mukul/web2py/applications/examples/'])"
p1229
asbasbasbag69
(g85
g71
NtRp1230
(dp1231
g74
(dp1232
sg83
g1204
sg76
(lp1233
g69
(g90
g71
NtRp1234
(dp1235
g74
(dp1236
g94
g95
ssg83
g1230
sg76
(lp1237
S'applications_parent'
p1238
asbag69
(g90
g71
NtRp1239
(dp1240
g74
(dp1241
g101
g102
ssg83
g1230
sg76
(lp1242
S':'
asbag69
(g90
g71
NtRp1243
(dp1244
g74
(dp1245
sg83
g1230
sg76
(lp1246
g69
(g70
g71
NtRp1247
(dp1248
g74
(dp1249
g82
I4
ssg83
g1243
sg76
(lp1250
S'/home/mukul/web2py'
p1251
asbasbasbag69
(g85
g71
NtRp1252
(dp1253
g74
(dp1254
sg83
g1204
sg76
(lp1255
g69
(g90
g71
NtRp1256
(dp1257
g74
(dp1258
g94
g95
ssg83
g1252
sg76
(lp1259
S'cmd_args'
p1260
asbag69
(g90
g71
NtRp1261
(dp1262
g74
(dp1263
g101
g102
ssg83
g1252
sg76
(lp1264
S':'
asbag69
(g90
g71
NtRp1265
(dp1266
g74
(dp1267
sg83
g1252
sg76
(lp1268
g69
(g70
g71
NtRp1269
(dp1270
g74
(dp1271
g82
I4
ssg83
g1265
sg76
(lp1272
g69
(g78
g71
NtRp1273
(dp1274
g74
(dp1275
g82
I3
ssg83
Nsg76
(lp1276
sbasbasbasbag69
(g85
g71
NtRp1277
(dp1278
g74
(dp1279
sg83
g1204
sg76
(lp1280
g69
(g90
g71
NtRp1281
(dp1282
g74
(dp1283
g94
g95
ssg83
g1277
sg76
(lp1284
S'cmd_options'
p1285
asbag69
(g90
g71
NtRp1286
(dp1287
g74
(dp1288
g101
g102
ssg83
g1277
sg76
(lp1289
S':'
asbag69
(g90
g71
NtRp1290
(dp1291
g74
(dp1292
sg83
g1277
sg76
(lp1293
g69
(g70
g71
NtRp1294
(dp1295
g74
(dp1296
g82
I4
ssg83
g1290
sg76
(lp1297
S"<Values at 0x931178c: {'verbose': False, 'ip': '127.0.0.1', 'shutdown_timeout': 5, 'taskbar': False, 'port': 8000, 'maxthreads': None, 'softcron': False, 'server_name': 'mukul-INVALID', 'bpython': False, 'nogui': False, 'nocron': False, 'extcron': False, 'debuglevel': 30, 'test': None, 'folder': '/home/mukul/web2py', 'config': '', 'import_models': False, 'winservice': '', 'shell': None, 'run': '', 'log_filename': 'httpserver.log', 'args': [''], 'socket_timeout': 1, 'profiler_filename': None, 'ssl_private_key': '', 'password': '<ask>', 'request_queue_size': 5, 'ssl_certificate': '', 'cronjob': False, 'plain': False, 'quiet': False, 'interfaces': None, 'minthreads': None, 'timeout': 10, 'numthreads': None, 'nobanner': False, 'pid_filename': 'httpserver.pid'}>"
p1298
asbasbasbag69
(g85
g71
NtRp1299
(dp1300
g74
(dp1301
sg83
g1204
sg76
(lp1302
g69
(g90
g71
NtRp1303
(dp1304
g74
(dp1305
g94
g95
ssg83
g1299
sg76
(lp1306
S'db_sessions'
p1307
asbag69
(g90
g71
NtRp1308
(dp1309
g74
(dp1310
g101
g102
ssg83
g1299
sg76
(lp1311
S':'
asbag69
(g90
g71
NtRp1312
(dp1313
g74
(dp1314
sg83
g1299
sg76
(lp1315
g69
(g70
g71
NtRp1316
(dp1317
g74
(dp1318
g82
I4
ssg83
g1312
sg76
(lp1319
S'set([])'
p1320
asbasbasbag69
(g85
g71
NtRp1321
(dp1322
g74
(dp1323
sg83
g1204
sg76
(lp1324
g69
(g90
g71
NtRp1325
(dp1326
g74
(dp1327
g94
g95
ssg83
g1321
sg76
(lp1328
S'debugging'
p1329
asbag69
(g90
g71
NtRp1330
(dp1331
g74
(dp1332
g101
g102
ssg83
g1321
sg76
(lp1333
S':'
asbag69
(g90
g71
NtRp1334
(dp1335
g74
(dp1336
sg83
g1321
sg76
(lp1337
g69
(g70
g71
NtRp1338
(dp1339
g74
(dp1340
g82
I4
ssg83
g1334
sg76
(lp1341
g112
asbasbasbag69
(g85
g71
NtRp1342
(dp1343
g74
(dp1344
sg83
g1204
sg76
(lp1345
g69
(g90
g71
NtRp1346
(dp1347
g74
(dp1348
g94
g95
ssg83
g1342
sg76
(lp1349
S'gluon_parent'
p1350
asbag69
(g90
g71
NtRp1351
(dp1352
g74
(dp1353
g101
g102
ssg83
g1342
sg76
(lp1354
S':'
asbag69
(g90
g71
NtRp1355
(dp1356
g74
(dp1357
sg83
g1342
sg76
(lp1358
g69
(g70
g71
NtRp1359
(dp1360
g74
(dp1361
g82
I4
ssg83
g1355
sg76
(lp1362
S'/usr/share/web2py'
p1363
asbasbasbag69
(g85
g71
NtRp1364
(dp1365
g74
(dp1366
sg83
g1204
sg76
(lp1367
g69
(g90
g71
NtRp1368
(dp1369
g74
(dp1370
g94
g95
ssg83
g1364
sg76
(lp1371
S'http_accept'
p1372
asbag69
(g90
g71
NtRp1373
(dp1374
g74
(dp1375
g101
g102
ssg83
g1364
sg76
(lp1376
S':'
asbag69
(g90
g71
NtRp1377
(dp1378
g74
(dp1379
sg83
g1364
sg76
(lp1380
g69
(g70
g71
NtRp1381
(dp1382
g74
(dp1383
g82
I4
ssg83
g1377
sg76
(lp1384
S'text/html,application/xhtml+xml,application/xml;q=0.9,image/webp,*/*;q=0.8'
p1385
asbasbasbag69
(g85
g71
NtRp1386
(dp1387
g74
(dp1388
sg83
g1204
sg76
(lp1389
g69
(g90
g71
NtRp1390
(dp1391
g74
(dp1392
g94
g95
ssg83
g1386
sg76
(lp1393
S'http_accept_encoding'
p1394
asbag69
(g90
g71
NtRp1395
(dp1396
g74
(dp1397
g101
g102
ssg83
g1386
sg76
(lp1398
S':'
asbag69
(g90
g71
NtRp1399
(dp1400
g74
(dp1401
sg83
g1386
sg76
(lp1402
g69
(g70
g71
NtRp1403
(dp1404
g74
(dp1405
g82
I4
ssg83
g1399
sg76
(lp1406
S'gzip, deflate, sdch'
p1407
asbasbasbag69
(g85
g71
NtRp1408
(dp1409
g74
(dp1410
sg83
g1204
sg76
(lp1411
g69
(g90
g71
NtRp1412
(dp1413
g74
(dp1414
g94
g95
ssg83
g1408
sg76
(lp1415
S'http_accept_language'
p1416
asbag69
(g90
g71
NtRp1417
(dp1418
g74
(dp1419
g101
g102
ssg83
g1408
sg76
(lp1420
S':'
asbag69
(g90
g71
NtRp1421
(dp1422
g74
(dp1423
sg83
g1408
sg76
(lp1424
g69
(g70
g71
NtRp1425
(dp1426
g74
(dp1427
g82
I4
ssg83
g1421
sg76
(lp1428
S'en-US,en;q=0.8'
p1429
asbasbasbag69
(g85
g71
NtRp1430
(dp1431
g74
(dp1432
sg83
g1204
sg76
(lp1433
g69
(g90
g71
NtRp1434
(dp1435
g74
(dp1436
g94
g95
ssg83
g1430
sg76
(lp1437
S'http_cache_control'
p1438
asbag69
(g90
g71
NtRp1439
(dp1440
g74
(dp1441
g101
g102
ssg83
g1430
sg76
(lp1442
S':'
asbag69
(g90
g71
NtRp1443
(dp1444
g74
(dp1445
sg83
g1430
sg76
(lp1446
g69
(g70
g71
NtRp1447
(dp1448
g74
(dp1449
g82
I4
ssg83
g1443
sg76
(lp1450
S'max-age=0'
p1451
asbasbasbag69
(g85
g71
NtRp1452
(dp1453
g74
(dp1454
sg83
g1204
sg76
(lp1455
g69
(g90
g71
NtRp1456
(dp1457
g74
(dp1458
g94
g95
ssg83
g1452
sg76
(lp1459
S'http_connection'
p1460
asbag69
(g90
g71
NtRp1461
(dp1462
g74
(dp1463
g101
g102
ssg83
g1452
sg76
(lp1464
S':'
asbag69
(g90
g71
NtRp1465
(dp1466
g74
(dp1467
sg83
g1452
sg76
(lp1468
g69
(g70
g71
NtRp1469
(dp1470
g74
(dp1471
g82
I4
ssg83
g1465
sg76
(lp1472
S'keep-alive'
p1473
asbasbasbag69
(g85
g71
NtRp1474
(dp1475
g74
(dp1476
sg83
g1204
sg76
(lp1477
g69
(g90
g71
NtRp1478
(dp1479
g74
(dp1480
g94
g95
ssg83
g1474
sg76
(lp1481
S'http_cookie'
p1482
asbag69
(g90
g71
NtRp1483
(dp1484
g74
(dp1485
g101
g102
ssg83
g1474
sg76
(lp1486
S':'
asbag69
(g90
g71
NtRp1487
(dp1488
g74
(dp1489
sg83
g1474
sg76
(lp1490
g69
(g70
g71
NtRp1491
(dp1492
g74
(dp1493
g82
I4
ssg83
g1487
sg76
(lp1494
S'_ga=GA1.1.1697046843.1457627657; session_id_welcome=127.0.0.1-0dc82c54-7998-46df-bc7a-ae551514715c; session_id_mukul=127.0.0.1-b7b05dec-9203-49b5-9563-65a37d4a5ab0; session_id_go_to_app=127.0.0.1-6a3d5a50-4cd5-43ec-b744-e6f1eb524265; session_id_admin=127.0.0.1-1ea48cdc-d855-42f3-8aa9-45e4bcc89244; session_id_blogpost=127.0.0.1-db0d4806-b3c3-4347-967a-d3847597ee73'
p1495
asbasbasbag69
(g85
g71
NtRp1496
(dp1497
g74
(dp1498
sg83
g1204
sg76
(lp1499
g69
(g90
g71
NtRp1500
(dp1501
g74
(dp1502
g94
g95
ssg83
g1496
sg76
(lp1503
S'http_host'
p1504
asbag69
(g90
g71
NtRp1505
(dp1506
g74
(dp1507
g101
g102
ssg83
g1496
sg76
(lp1508
S':'
asbag69
(g90
g71
NtRp1509
(dp1510
g74
(dp1511
sg83
g1496
sg76
(lp1512
g69
(g70
g71
NtRp1513
(dp1514
g74
(dp1515
g82
I4
ssg83
g1509
sg76
(lp1516
S'127.0.0.1:8000'
p1517
asbasbasbag69
(g85
g71
NtRp1518
(dp1519
g74
(dp1520
sg83
g1204
sg76
(lp1521
g69
(g90
g71
NtRp1522
(dp1523
g74
(dp1524
g94
g95
ssg83
g1518
sg76
(lp1525
S'http_upgrade_insecure_requests'
p1526
asbag69
(g90
g71
NtRp1527
(dp1528
g74
(dp1529
g101
g102
ssg83
g1518
sg76
(lp1530
S':'
asbag69
(g90
g71
NtRp1531
(dp1532
g74
(dp1533
sg83
g1518
sg76
(lp1534
g69
(g70
g71
NtRp1535
(dp1536
g74
(dp1537
g82
I4
ssg83
g1531
sg76
(lp1538
S'1'
asbasbasbag69
(g85
g71
NtRp1539
(dp1540
g74
(dp1541
sg83
g1204
sg76
(lp1542
g69
(g90
g71
NtRp1543
(dp1544
g74
(dp1545
g94
g95
ssg83
g1539
sg76
(lp1546
S'http_user_agent'
p1547
asbag69
(g90
g71
NtRp1548
(dp1549
g74
(dp1550
g101
g102
ssg83
g1539
sg76
(lp1551
S':'
asbag69
(g90
g71
NtRp1552
(dp1553
g74
(dp1554
sg83
g1539
sg76
(lp1555
g69
(g70
g71
NtRp1556
(dp1557
g74
(dp1558
g82
I4
ssg83
g1552
sg76
(lp1559
S'Mozilla/5.0 (X11; Linux i686) AppleWebKit/537.36 (KHTML, like Gecko) Chrome/48.0.2564.116 Safari/537.36'
p1560
asbasbasbag69
(g85
g71
NtRp1561
(dp1562
g74
(dp1563
sg83
g1204
sg76
(lp1564
g69
(g90
g71
NtRp1565
(dp1566
g74
(dp1567
g94
g95
ssg83
g1561
sg76
(lp1568
S'is_jython'
p1569
asbag69
(g90
g71
NtRp1570
(dp1571
g74
(dp1572
g101
g102
ssg83
g1561
sg76
(lp1573
S':'
asbag69
(g90
g71
NtRp1574
(dp1575
g74
(dp1576
sg83
g1561
sg76
(lp1577
g69
(g70
g71
NtRp1578
(dp1579
g74
(dp1580
g82
I4
ssg83
g1574
sg76
(lp1581
g112
asbasbasbag69
(g85
g71
NtRp1582
(dp1583
g74
(dp1584
sg83
g1204
sg76
(lp1585
g69
(g90
g71
NtRp1586
(dp1587
g74
(dp1588
g94
g95
ssg83
g1582
sg76
(lp1589
S'is_pypy'
p1590
asbag69
(g90
g71
NtRp1591
(dp1592
g74
(dp1593
g101
g102
ssg83
g1582
sg76
(lp1594
S':'
asbag69
(g90
g71
NtRp1595
(dp1596
g74
(dp1597
sg83
g1582
sg76
(lp1598
g69
(g70
g71
NtRp1599
(dp1600
g74
(dp1601
g82
I4
ssg83
g1595
sg76
(lp1602
g112
asbasbasbag69
(g85
g71
NtRp1603
(dp1604
g74
(dp1605
sg83
g1204
sg76
(lp1606
g69
(g90
g71
NtRp1607
(dp1608
g74
(dp1609
g94
g95
ssg83
g1603
sg76
(lp1610
S'path_info'
p1611
asbag69
(g90
g71
NtRp1612
(dp1613
g74
(dp1614
g101
g102
ssg83
g1603
sg76
(lp1615
S':'
asbag69
(g90
g71
NtRp1616
(dp1617
g74
(dp1618
sg83
g1603
sg76
(lp1619
g69
(g70
g71
NtRp1620
(dp1621
g74
(dp1622
g82
I4
ssg83
g1616
sg76
(lp1623
S'/blogpost/default/show'
p1624
asbasbasbag69
(g85
g71
NtRp1625
(dp1626
g74
(dp1627
sg83
g1204
sg76
(lp1628
g69
(g90
g71
NtRp1629
(dp1630
g74
(dp1631
g94
g95
ssg83
g1625
sg76
(lp1632
S'query_string'
p1633
asbag69
(g90
g71
NtRp1634
(dp1635
g74
(dp1636
g101
g102
ssg83
g1625
sg76
(lp1637
S':'
asbag69
(g90
g71
NtRp1638
(dp1639
g74
(dp1640
sg83
g1625
sg76
(lp1641
g69
(g70
g71
NtRp1642
(dp1643
g74
(dp1644
g82
I4
ssg83
g1638
sg76
(lp1645
S''
asbasbasbag69
(g85
g71
NtRp1646
(dp1647
g74
(dp1648
sg83
g1204
sg76
(lp1649
g69
(g90
g71
NtRp1650
(dp1651
g74
(dp1652
g94
g95
ssg83
g1646
sg76
(lp1653
S'remote_addr'
p1654
asbag69
(g90
g71
NtRp1655
(dp1656
g74
(dp1657
g101
g102
ssg83
g1646
sg76
(lp1658
S':'
asbag69
(g90
g71
NtRp1659
(dp1660
g74
(dp1661
sg83
g1646
sg76
(lp1662
g69
(g70
g71
NtRp1663
(dp1664
g74
(dp1665
g82
I4
ssg83
g1659
sg76
(lp1666
g202
asbasbasbag69
(g85
g71
NtRp1667
(dp1668
g74
(dp1669
sg83
g1204
sg76
(lp1670
g69
(g90
g71
NtRp1671
(dp1672
g74
(dp1673
g94
g95
ssg83
g1667
sg76
(lp1674
S'remote_port'
p1675
asbag69
(g90
g71
NtRp1676
(dp1677
g74
(dp1678
g101
g102
ssg83
g1667
sg76
(lp1679
S':'
asbag69
(g90
g71
NtRp1680
(dp1681
g74
(dp1682
sg83
g1667
sg76
(lp1683
g69
(g70
g71
NtRp1684
(dp1685
g74
(dp1686
g82
I4
ssg83
g1680
sg76
(lp1687
S'59308'
p1688
asbasbasbag69
(g85
g71
NtRp1689
(dp1690
g74
(dp1691
sg83
g1204
sg76
(lp1692
g69
(g90
g71
NtRp1693
(dp1694
g74
(dp1695
g94
g95
ssg83
g1689
sg76
(lp1696
S'request_method'
p1697
asbag69
(g90
g71
NtRp1698
(dp1699
g74
(dp1700
g101
g102
ssg83
g1689
sg76
(lp1701
S':'
asbag69
(g90
g71
NtRp1702
(dp1703
g74
(dp1704
sg83
g1689
sg76
(lp1705
g69
(g70
g71
NtRp1706
(dp1707
g74
(dp1708
g82
I4
ssg83
g1702
sg76
(lp1709
S'GET'
p1710
asbasbasbag69
(g85
g71
NtRp1711
(dp1712
g74
(dp1713
sg83
g1204
sg76
(lp1714
g69
(g90
g71
NtRp1715
(dp1716
g74
(dp1717
g94
g95
ssg83
g1711
sg76
(lp1718
S'script_name'
p1719
asbag69
(g90
g71
NtRp1720
(dp1721
g74
(dp1722
g101
g102
ssg83
g1711
sg76
(lp1723
S':'
asbag69
(g90
g71
NtRp1724
(dp1725
g74
(dp1726
sg83
g1711
sg76
(lp1727
g69
(g70
g71
NtRp1728
(dp1729
g74
(dp1730
g82
I4
ssg83
g1724
sg76
(lp1731
S''
asbasbasbag69
(g85
g71
NtRp1732
(dp1733
g74
(dp1734
sg83
g1204
sg76
(lp1735
g69
(g90
g71
NtRp1736
(dp1737
g74
(dp1738
g94
g95
ssg83
g1732
sg76
(lp1739
S'server_name'
p1740
asbag69
(g90
g71
NtRp1741
(dp1742
g74
(dp1743
g101
g102
ssg83
g1732
sg76
(lp1744
S':'
asbag69
(g90
g71
NtRp1745
(dp1746
g74
(dp1747
sg83
g1732
sg76
(lp1748
g69
(g70
g71
NtRp1749
(dp1750
g74
(dp1751
g82
I4
ssg83
g1745
sg76
(lp1752
S'mukul-INVALID'
p1753
asbasbasbag69
(g85
g71
NtRp1754
(dp1755
g74
(dp1756
sg83
g1204
sg76
(lp1757
g69
(g90
g71
NtRp1758
(dp1759
g74
(dp1760
g94
g95
ssg83
g1754
sg76
(lp1761
S'server_port'
p1762
asbag69
(g90
g71
NtRp1763
(dp1764
g74
(dp1765
g101
g102
ssg83
g1754
sg76
(lp1766
S':'
asbag69
(g90
g71
NtRp1767
(dp1768
g74
(dp1769
sg83
g1754
sg76
(lp1770
g69
(g70
g71
NtRp1771
(dp1772
g74
(dp1773
g82
I4
ssg83
g1767
sg76
(lp1774
S'8000'
p1775
asbasbasbag69
(g85
g71
NtRp1776
(dp1777
g74
(dp1778
sg83
g1204
sg76
(lp1779
g69
(g90
g71
NtRp1780
(dp1781
g74
(dp1782
g94
g95
ssg83
g1776
sg76
(lp1783
S'server_protocol'
p1784
asbag69
(g90
g71
NtRp1785
(dp1786
g74
(dp1787
g101
g102
ssg83
g1776
sg76
(lp1788
S':'
asbag69
(g90
g71
NtRp1789
(dp1790
g74
(dp1791
sg83
g1776
sg76
(lp1792
g69
(g70
g71
NtRp1793
(dp1794
g74
(dp1795
g82
I4
ssg83
g1789
sg76
(lp1796
S'HTTP/1.1'
p1797
asbasbasbag69
(g85
g71
NtRp1798
(dp1799
g74
(dp1800
sg83
g1204
sg76
(lp1801
g69
(g90
g71
NtRp1802
(dp1803
g74
(dp1804
g94
g95
ssg83
g1798
sg76
(lp1805
S'server_software'
p1806
asbag69
(g90
g71
NtRp1807
(dp1808
g74
(dp1809
g101
g102
ssg83
g1798
sg76
(lp1810
S':'
asbag69
(g90
g71
NtRp1811
(dp1812
g74
(dp1813
sg83
g1798
sg76
(lp1814
g69
(g70
g71
NtRp1815
(dp1816
g74
(dp1817
g82
I4
ssg83
g1811
sg76
(lp1818
S'Rocket 1.2.4'
p1819
asbasbasbag69
(g85
g71
NtRp1820
(dp1821
g74
(dp1822
sg83
g1204
sg76
(lp1823
g69
(g90
g71
NtRp1824
(dp1825
g74
(dp1826
g94
g95
ssg83
g1820
sg76
(lp1827
S'web2py_crontype'
p1828
asbag69
(g90
g71
NtRp1829
(dp1830
g74
(dp1831
g101
g102
ssg83
g1820
sg76
(lp1832
S':'
asbag69
(g90
g71
NtRp1833
(dp1834
g74
(dp1835
sg83
g1820
sg76
(lp1836
g69
(g70
g71
NtRp1837
(dp1838
g74
(dp1839
g82
I4
ssg83
g1833
sg76
(lp1840
S'hard'
p1841
asbasbasbag69
(g85
g71
NtRp1842
(dp1843
g74
(dp1844
sg83
g1204
sg76
(lp1845
g69
(g90
g71
NtRp1846
(dp1847
g74
(dp1848
g94
g95
ssg83
g1842
sg76
(lp1849
S'web2py_path'
p1850
asbag69
(g90
g71
NtRp1851
(dp1852
g74
(dp1853
g101
g102
ssg83
g1842
sg76
(lp1854
S':'
asbag69
(g90
g71
NtRp1855
(dp1856
g74
(dp1857
sg83
g1842
sg76
(lp1858
g69
(g70
g71
NtRp1859
(dp1860
g74
(dp1861
g82
I4
ssg83
g1855
sg76
(lp1862
g1251
asbasbasbag69
(g85
g71
NtRp1863
(dp1864
g74
(dp1865
sg83
g1204
sg76
(lp1866
g69
(g90
g71
NtRp1867
(dp1868
g74
(dp1869
g94
g95
ssg83
g1863
sg76
(lp1870
S'web2py_version'
p1871
asbag69
(g90
g71
NtRp1872
(dp1873
g74
(dp1874
g101
g102
ssg83
g1863
sg76
(lp1875
S':'
asbag69
(g90
g71
NtRp1876
(dp1877
g74
(dp1878
sg83
g1863
sg76
(lp1879
g69
(g70
g71
NtRp1880
(dp1881
g74
(dp1882
g82
I4
ssg83
g1876
sg76
(lp1883
g69
(g78
g71
NtRp1884
(dp1885
g74
(dp1886
g82
I3
ssg83
Nsg76
(lp1887
g69
(g85
g71
NtRp1888
(dp1889
g74
(dp1890
sg83
g1884
sg76
(lp1891
g69
(g90
g71
NtRp1892
(dp1893
g74
(dp1894
sg83
g1888
sg76
(lp1895
g69
(g70
g71
NtRp1896
(dp1897
g74
(dp1898
g82
I3
ssg83
g1892
sg76
(lp1899
S'1'
asbasbasbag69
(g85
g71
NtRp1900
(dp1901
g74
(dp1902
sg83
g1884
sg76
(lp1903
g69
(g90
g71
NtRp1904
(dp1905
g74
(dp1906
sg83
g1900
sg76
(lp1907
g69
(g70
g71
NtRp1908
(dp1909
g74
(dp1910
g82
I3
ssg83
g1904
sg76
(lp1911
S'99'
p1912
asbasbasbag69
(g85
g71
NtRp1913
(dp1914
g74
(dp1915
sg83
g1884
sg76
(lp1916
g69
(g90
g71
NtRp1917
(dp1918
g74
(dp1919
sg83
g1913
sg76
(lp1920
g69
(g70
g71
NtRp1921
(dp1922
g74
(dp1923
g82
I3
ssg83
g1917
sg76
(lp1924
S'4'
asbasbasbag69
(g85
g71
NtRp1925
(dp1926
g74
(dp1927
sg83
g1884
sg76
(lp1928
g69
(g90
g71
NtRp1929
(dp1930
g74
(dp1931
sg83
g1925
sg76
(lp1932
g69
(g70
g71
NtRp1933
(dp1934
g74
(dp1935
g82
I3
ssg83
g1929
sg76
(lp1936
S'datetime.datetime(2011, 12, 14, 14, 46, 14)'
p1937
asbasbasbag69
(g85
g71
NtRp1938
(dp1939
g74
(dp1940
sg83
g1884
sg76
(lp1941
g69
(g90
g71
NtRp1942
(dp1943
g74
(dp1944
sg83
g1938
sg76
(lp1945
g69
(g70
g71
NtRp1946
(dp1947
g74
(dp1948
g82
I3
ssg83
g1942
sg76
(lp1949
S'stable'
p1950
asbasbasbasbasbasbasbag69
(g85
g71
NtRp1951
(dp1952
g74
(dp1953
sg83
g1204
sg76
(lp1954
g69
(g90
g71
NtRp1955
(dp1956
g74
(dp1957
g94
g95
ssg83
g1951
sg76
(lp1958
S'wsgi_errors'
p1959
asbag69
(g90
g71
NtRp1960
(dp1961
g74
(dp1962
g101
g102
ssg83
g1951
sg76
(lp1963
S':'
asbag69
(g90
g71
NtRp1964
(dp1965
g74
(dp1966
sg83
g1951
sg76
(lp1967
g69
(g70
g71
NtRp1968
(dp1969
g74
(dp1970
g82
I4
ssg83
g1964
sg76
(lp1971
S"<open file '<stderr>', mode 'w' at 0xb73330d0>"
p1972
asbasbasbag69
(g85
g71
NtRp1973
(dp1974
g74
(dp1975
sg83
g1204
sg76
(lp1976
g69
(g90
g71
NtRp1977
(dp1978
g74
(dp1979
g94
g95
ssg83
g1973
sg76
(lp1980
S'wsgi_file_wrapper'
p1981
asbag69
(g90
g71
NtRp1982
(dp1983
g74
(dp1984
g101
g102
ssg83
g1973
sg76
(lp1985
S':'
asbag69
(g90
g71
NtRp1986
(dp1987
g74
(dp1988
sg83
g1973
sg76
(lp1989
g69
(g70
g71
NtRp1990
(dp1991
g74
(dp1992
g82
I4
ssg83
g1986
sg76
(lp1993
S'<class wsgiref.util.FileWrapper at 0x90d14dc>'
p1994
asbasbasbag69
(g85
g71
NtRp1995
(dp1996
g74
(dp1997
sg83
g1204
sg76
(lp1998
g69
(g90
g71
NtRp1999
(dp2000
g74
(dp2001
g94
g95
ssg83
g1995
sg76
(lp2002
S'wsgi_input'
p2003
asbag69
(g90
g71
NtRp2004
(dp2005
g74
(dp2006
g101
g102
ssg83
g1995
sg76
(lp2007
S':'
asbag69
(g90
g71
NtRp2008
(dp2009
g74
(dp2010
sg83
g1995
sg76
(lp2011
g69
(g70
g71
NtRp2012
(dp2013
g74
(dp2014
g82
I4
ssg83
g2008
sg76
(lp2015
S'<socket._fileobject object at 0xaac9772c>'
p2016
asbasbasbag69
(g85
g71
NtRp2017
(dp2018
g74
(dp2019
sg83
g1204
sg76
(lp2020
g69
(g90
g71
NtRp2021
(dp2022
g74
(dp2023
g94
g95
ssg83
g2017
sg76
(lp2024
S'wsgi_multiprocess'
p2025
asbag69
(g90
g71
NtRp2026
(dp2027
g74
(dp2028
g101
g102
ssg83
g2017
sg76
(lp2029
S':'
asbag69
(g90
g71
NtRp2030
(dp2031
g74
(dp2032
sg83
g2017
sg76
(lp2033
g69
(g70
g71
NtRp2034
(dp2035
g74
(dp2036
g82
I4
ssg83
g2030
sg76
(lp2037
g112
asbasbasbag69
(g85
g71
NtRp2038
(dp2039
g74
(dp2040
sg83
g1204
sg76
(lp2041
g69
(g90
g71
NtRp2042
(dp2043
g74
(dp2044
g94
g95
ssg83
g2038
sg76
(lp2045
S'wsgi_multithread'
p2046
asbag69
(g90
g71
NtRp2047
(dp2048
g74
(dp2049
g101
g102
ssg83
g2038
sg76
(lp2050
S':'
asbag69
(g90
g71
NtRp2051
(dp2052
g74
(dp2053
sg83
g2038
sg76
(lp2054
g69
(g70
g71
NtRp2055
(dp2056
g74
(dp2057
g82
I4
ssg83
g2051
sg76
(lp2058
S'True'
p2059
asbasbasbag69
(g85
g71
NtRp2060
(dp2061
g74
(dp2062
sg83
g1204
sg76
(lp2063
g69
(g90
g71
NtRp2064
(dp2065
g74
(dp2066
g94
g95
ssg83
g2060
sg76
(lp2067
S'wsgi_run_once'
p2068
asbag69
(g90
g71
NtRp2069
(dp2070
g74
(dp2071
g101
g102
ssg83
g2060
sg76
(lp2072
S':'
asbag69
(g90
g71
NtRp2073
(dp2074
g74
(dp2075
sg83
g2060
sg76
(lp2076
g69
(g70
g71
NtRp2077
(dp2078
g74
(dp2079
g82
I4
ssg83
g2073
sg76
(lp2080
g112
asbasbasbag69
(g85
g71
NtRp2081
(dp2082
g74
(dp2083
sg83
g1204
sg76
(lp2084
g69
(g90
g71
NtRp2085
(dp2086
g74
(dp2087
g94
g95
ssg83
g2081
sg76
(lp2088
S'wsgi_url_scheme'
p2089
asbag69
(g90
g71
NtRp2090
(dp2091
g74
(dp2092
g101
g102
ssg83
g2081
sg76
(lp2093
S':'
asbag69
(g90
g71
NtRp2094
(dp2095
g74
(dp2096
sg83
g2081
sg76
(lp2097
g69
(g70
g71
NtRp2098
(dp2099
g74
(dp2100
g82
I4
ssg83
g2094
sg76
(lp2101
S'http'
p2102
asbasbasbag69
(g85
g71
NtRp2103
(dp2104
g74
(dp2105
sg83
g1204
sg76
(lp2106
g69
(g90
g71
NtRp2107
(dp2108
g74
(dp2109
g94
g95
ssg83
g2103
sg76
(lp2110
S'wsgi_version'
p2111
asbag69
(g90
g71
NtRp2112
(dp2113
g74
(dp2114
g101
g102
ssg83
g2103
sg76
(lp2115
S':'
asbag69
(g90
g71
NtRp2116
(dp2117
g74
(dp2118
sg83
g2103
sg76
(lp2119
g69
(g70
g71
NtRp2120
(dp2121
g74
(dp2122
g82
I4
ssg83
g2116
sg76
(lp2123
g69
(g78
g71
NtRp2124
(dp2125
g74
(dp2126
g82
I3
ssg83
Nsg76
(lp2127
g69
(g85
g71
NtRp2128
(dp2129
g74
(dp2130
sg83
g2124
sg76
(lp2131
g69
(g90
g71
NtRp2132
(dp2133
g74
(dp2134
sg83
g2128
sg76
(lp2135
g69
(g70
g71
NtRp2136
(dp2137
g74
(dp2138
g82
I3
ssg83
g2132
sg76
(lp2139
S'1'
asbasbasbag69
(g85
g71
NtRp2140
(dp2141
g74
(dp2142
sg83
g2124
sg76
(lp2143
g69
(g90
g71
NtRp2144
(dp2145
g74
(dp2146
sg83
g2140
sg76
(lp2147
g69
(g70
g71
NtRp2148
(dp2149
g74
(dp2150
g82
I3
ssg83
g2144
sg76
(lp2151
S'0'
asbasbasbasbasbasbasbasbasbasbasbag69
(g85
g71
NtRp2152
(dp2153
g74
(dp2154
sg83
g79
sg76
(lp2155
g69
(g90
g71
NtRp2156
(dp2157
g74
(dp2158
g94
g95
ssg83
g2152
sg76
(lp2159
S'extension'
p2160
asbag69
(g90
g71
NtRp2161
(dp2162
g74
(dp2163
g101
g102
ssg83
g2152
sg76
(lp2164
S':'
asbag69
(g90
g71
NtRp2165
(dp2166
g74
(dp2167
sg83
g2152
sg76
(lp2168
g69
(g70
g71
NtRp2169
(dp2170
g74
(dp2171
g82
I5
ssg83
g2165
sg76
(lp2172
S'html'
p2173
asbasbasbag69
(g85
g71
NtRp2174
(dp2175
g74
(dp2176
sg83
g79
sg76
(lp2177
g69
(g90
g71
NtRp2178
(dp2179
g74
(dp2180
g94
g95
ssg83
g2174
sg76
(lp2181
S'folder'
p2182
asbag69
(g90
g71
NtRp2183
(dp2184
g74
(dp2185
g101
g102
ssg83
g2174
sg76
(lp2186
S':'
asbag69
(g90
g71
NtRp2187
(dp2188
g74
(dp2189
sg83
g2174
sg76
(lp2190
g69
(g70
g71
NtRp2191
(dp2192
g74
(dp2193
g82
I5
ssg83
g2187
sg76
(lp2194
S'/home/mukul/web2py/applications/blogpost/'
p2195
asbasbasbag69
(g85
g71
NtRp2196
(dp2197
g74
(dp2198
sg83
g79
sg76
(lp2199
g69
(g90
g71
NtRp2200
(dp2201
g74
(dp2202
g94
g95
ssg83
g2196
sg76
(lp2203
S'function'
p2204
asbag69
(g90
g71
NtRp2205
(dp2206
g74
(dp2207
g101
g102
ssg83
g2196
sg76
(lp2208
S':'
asbag69
(g90
g71
NtRp2209
(dp2210
g74
(dp2211
sg83
g2196
sg76
(lp2212
g69
(g70
g71
NtRp2213
(dp2214
g74
(dp2215
g82
I5
ssg83
g2209
sg76
(lp2216
S'show'
p2217
asbasbasbag69
(g85
g71
NtRp2218
(dp2219
g74
(dp2220
sg83
g79
sg76
(lp2221
g69
(g90
g71
NtRp2222
(dp2223
g74
(dp2224
g94
g95
ssg83
g2218
sg76
(lp2225
S'get_vars'
p2226
asbag69
(g90
g71
NtRp2227
(dp2228
g74
(dp2229
g101
g102
ssg83
g2218
sg76
(lp2230
S':'
asbag69
(g90
g71
NtRp2231
(dp2232
g74
(dp2233
sg83
g2218
sg76
(lp2234
g69
(g70
g71
NtRp2235
(dp2236
g74
(dp2237
g82
I5
ssg83
g2231
sg76
(lp2238
g69
(g78
g71
NtRp2239
(dp2240
g74
(dp2241
g82
I4
ssg83
Nsg76
(lp2242
sbasbasbasbag69
(g85
g71
NtRp2243
(dp2244
g74
(dp2245
sg83
g79
sg76
(lp2246
g69
(g90
g71
NtRp2247
(dp2248
g74
(dp2249
g94
g95
ssg83
g2243
sg76
(lp2250
S'global_settings'
p2251
asbag69
(g90
g71
NtRp2252
(dp2253
g74
(dp2254
g101
g102
ssg83
g2243
sg76
(lp2255
S':'
asbag69
(g90
g71
NtRp2256
(dp2257
g74
(dp2258
sg83
g2243
sg76
(lp2259
g69
(g70
g71
NtRp2260
(dp2261
g74
(dp2262
g82
I5
ssg83
g2256
sg76
(lp2263
g69
(g78
g71
NtRp2264
(dp2265
g74
(dp2266
g82
I4
ssg83
Nsg76
(lp2267
g69
(g85
g71
NtRp2268
(dp2269
g74
(dp2270
sg83
g2264
sg76
(lp2271
g69
(g90
g71
NtRp2272
(dp2273
g74
(dp2274
g94
g95
ssg83
g2268
sg76
(lp2275
g1216
asbag69
(g90
g71
NtRp2276
(dp2277
g74
(dp2278
g101
g102
ssg83
g2268
sg76
(lp2279
S':'
asbag69
(g90
g71
NtRp2280
(dp2281
g74
(dp2282
sg83
g2268
sg76
(lp2283
g69
(g70
g71
NtRp2284
(dp2285
g74
(dp2286
g82
I4
ssg83
g2280
sg76
(lp2287
S"set(['/home/mukul/web2py/applications/admin/', '/home/mukul/web2py/applications/blogpost/', '/home/mukul/web2py/applications/go_to_app/', '/home/mukul/web2py/applications/welcome/', '/home/mukul/web2py/applications/mukul/', '/home/mukul/web2py/applications/examples/'])"
p2288
asbasbasbag69
(g85
g71
NtRp2289
(dp2290
g74
(dp2291
sg83
g2264
sg76
(lp2292
g69
(g90
g71
NtRp2293
(dp2294
g74
(dp2295
g94
g95
ssg83
g2289
sg76
(lp2296
g1238
asbag69
(g90
g71
NtRp2297
(dp2298
g74
(dp2299
g101
g102
ssg83
g2289
sg76
(lp2300
S':'
asbag69
(g90
g71
NtRp2301
(dp2302
g74
(dp2303
sg83
g2289
sg76
(lp2304
g69
(g70
g71
NtRp2305
(dp2306
g74
(dp2307
g82
I4
ssg83
g2301
sg76
(lp2308
g1251
asbasbasbag69
(g85
g71
NtRp2309
(dp2310
g74
(dp2311
sg83
g2264
sg76
(lp2312
g69
(g90
g71
NtRp2313
(dp2314
g74
(dp2315
g94
g95
ssg83
g2309
sg76
(lp2316
g1260
asbag69
(g90
g71
NtRp2317
(dp2318
g74
(dp2319
g101
g102
ssg83
g2309
sg76
(lp2320
S':'
asbag69
(g90
g71
NtRp2321
(dp2322
g74
(dp2323
sg83
g2309
sg76
(lp2324
g69
(g70
g71
NtRp2325
(dp2326
g74
(dp2327
g82
I4
ssg83
g2321
sg76
(lp2328
g69
(g78
g71
NtRp2329
(dp2330
g74
(dp2331
g82
I3
ssg83
Nsg76
(lp2332
sbasbasbasbag69
(g85
g71
NtRp2333
(dp2334
g74
(dp2335
sg83
g2264
sg76
(lp2336
g69
(g90
g71
NtRp2337
(dp2338
g74
(dp2339
g94
g95
ssg83
g2333
sg76
(lp2340
g1285
asbag69
(g90
g71
NtRp2341
(dp2342
g74
(dp2343
g101
g102
ssg83
g2333
sg76
(lp2344
S':'
asbag69
(g90
g71
NtRp2345
(dp2346
g74
(dp2347
sg83
g2333
sg76
(lp2348
g69
(g70
g71
NtRp2349
(dp2350
g74
(dp2351
g82
I4
ssg83
g2345
sg76
(lp2352
S"<Values at 0x931178c: {'verbose': False, 'ip': '127.0.0.1', 'shutdown_timeout': 5, 'taskbar': False, 'port': 8000, 'maxthreads': None, 'softcron': False, 'server_name': 'mukul-INVALID', 'bpython': False, 'nogui': False, 'nocron': False, 'extcron': False, 'debuglevel': 30, 'test': None, 'folder': '/home/mukul/web2py', 'config': '', 'import_models': False, 'winservice': '', 'shell': None, 'run': '', 'log_filename': 'httpserver.log', 'args': [''], 'socket_timeout': 1, 'profiler_filename': None, 'ssl_private_key': '', 'password': '<ask>', 'request_queue_size': 5, 'ssl_certificate': '', 'cronjob': False, 'plain': False, 'quiet': False, 'interfaces': None, 'minthreads': None, 'timeout': 10, 'numthreads': None, 'nobanner': False, 'pid_filename': 'httpserver.pid'}>"
p2353
asbasbasbag69
(g85
g71
NtRp2354
(dp2355
g74
(dp2356
sg83
g2264
sg76
(lp2357
g69
(g90
g71
NtRp2358
(dp2359
g74
(dp2360
g94
g95
ssg83
g2354
sg76
(lp2361
g1307
asbag69
(g90
g71
NtRp2362
(dp2363
g74
(dp2364
g101
g102
ssg83
g2354
sg76
(lp2365
S':'
asbag69
(g90
g71
NtRp2366
(dp2367
g74
(dp2368
sg83
g2354
sg76
(lp2369
g69
(g70
g71
NtRp2370
(dp2371
g74
(dp2372
g82
I4
ssg83
g2366
sg76
(lp2373
S'set([])'
p2374
asbasbasbag69
(g85
g71
NtRp2375
(dp2376
g74
(dp2377
sg83
g2264
sg76
(lp2378
g69
(g90
g71
NtRp2379
(dp2380
g74
(dp2381
g94
g95
ssg83
g2375
sg76
(lp2382
g1329
asbag69
(g90
g71
NtRp2383
(dp2384
g74
(dp2385
g101
g102
ssg83
g2375
sg76
(lp2386
S':'
asbag69
(g90
g71
NtRp2387
(dp2388
g74
(dp2389
sg83
g2375
sg76
(lp2390
g69
(g70
g71
NtRp2391
(dp2392
g74
(dp2393
g82
I4
ssg83
g2387
sg76
(lp2394
g112
asbasbasbag69
(g85
g71
NtRp2395
(dp2396
g74
(dp2397
sg83
g2264
sg76
(lp2398
g69
(g90
g71
NtRp2399
(dp2400
g74
(dp2401
g94
g95
ssg83
g2395
sg76
(lp2402
g1350
asbag69
(g90
g71
NtRp2403
(dp2404
g74
(dp2405
g101
g102
ssg83
g2395
sg76
(lp2406
S':'
asbag69
(g90
g71
NtRp2407
(dp2408
g74
(dp2409
sg83
g2395
sg76
(lp2410
g69
(g70
g71
NtRp2411
(dp2412
g74
(dp2413
g82
I4
ssg83
g2407
sg76
(lp2414
g1363
asbasbasbag69
(g85
g71
NtRp2415
(dp2416
g74
(dp2417
sg83
g2264
sg76
(lp2418
g69
(g90
g71
NtRp2419
(dp2420
g74
(dp2421
g94
g95
ssg83
g2415
sg76
(lp2422
g1569
asbag69
(g90
g71
NtRp2423
(dp2424
g74
(dp2425
g101
g102
ssg83
g2415
sg76
(lp2426
S':'
asbag69
(g90
g71
NtRp2427
(dp2428
g74
(dp2429
sg83
g2415
sg76
(lp2430
g69
(g70
g71
NtRp2431
(dp2432
g74
(dp2433
g82
I4
ssg83
g2427
sg76
(lp2434
g112
asbasbasbag69
(g85
g71
NtRp2435
(dp2436
g74
(dp2437
sg83
g2264
sg76
(lp2438
g69
(g90
g71
NtRp2439
(dp2440
g74
(dp2441
g94
g95
ssg83
g2435
sg76
(lp2442
g1590
asbag69
(g90
g71
NtRp2443
(dp2444
g74
(dp2445
g101
g102
ssg83
g2435
sg76
(lp2446
S':'
asbag69
(g90
g71
NtRp2447
(dp2448
g74
(dp2449
sg83
g2435
sg76
(lp2450
g69
(g70
g71
NtRp2451
(dp2452
g74
(dp2453
g82
I4
ssg83
g2447
sg76
(lp2454
g112
asbasbasbag69
(g85
g71
NtRp2455
(dp2456
g74
(dp2457
sg83
g2264
sg76
(lp2458
g69
(g90
g71
NtRp2459
(dp2460
g74
(dp2461
g94
g95
ssg83
g2455
sg76
(lp2462
g1828
asbag69
(g90
g71
NtRp2463
(dp2464
g74
(dp2465
g101
g102
ssg83
g2455
sg76
(lp2466
S':'
asbag69
(g90
g71
NtRp2467
(dp2468
g74
(dp2469
sg83
g2455
sg76
(lp2470
g69
(g70
g71
NtRp2471
(dp2472
g74
(dp2473
g82
I4
ssg83
g2467
sg76
(lp2474
g1841
asbasbasbag69
(g85
g71
NtRp2475
(dp2476
g74
(dp2477
sg83
g2264
sg76
(lp2478
g69
(g90
g71
NtRp2479
(dp2480
g74
(dp2481
g94
g95
ssg83
g2475
sg76
(lp2482
g1871
asbag69
(g90
g71
NtRp2483
(dp2484
g74
(dp2485
g101
g102
ssg83
g2475
sg76
(lp2486
S':'
asbag69
(g90
g71
NtRp2487
(dp2488
g74
(dp2489
sg83
g2475
sg76
(lp2490
g69
(g70
g71
NtRp2491
(dp2492
g74
(dp2493
g82
I4
ssg83
g2487
sg76
(lp2494
g69
(g78
g71
NtRp2495
(dp2496
g74
(dp2497
g82
I3
ssg83
Nsg76
(lp2498
g69
(g85
g71
NtRp2499
(dp2500
g74
(dp2501
sg83
g2495
sg76
(lp2502
g69
(g90
g71
NtRp2503
(dp2504
g74
(dp2505
sg83
g2499
sg76
(lp2506
g69
(g70
g71
NtRp2507
(dp2508
g74
(dp2509
g82
I3
ssg83
g2503
sg76
(lp2510
S'1'
asbasbasbag69
(g85
g71
NtRp2511
(dp2512
g74
(dp2513
sg83
g2495
sg76
(lp2514
g69
(g90
g71
NtRp2515
(dp2516
g74
(dp2517
sg83
g2511
sg76
(lp2518
g69
(g70
g71
NtRp2519
(dp2520
g74
(dp2521
g82
I3
ssg83
g2515
sg76
(lp2522
S'99'
p2523
asbasbasbag69
(g85
g71
NtRp2524
(dp2525
g74
(dp2526
sg83
g2495
sg76
(lp2527
g69
(g90
g71
NtRp2528
(dp2529
g74
(dp2530
sg83
g2524
sg76
(lp2531
g69
(g70
g71
NtRp2532
(dp2533
g74
(dp2534
g82
I3
ssg83
g2528
sg76
(lp2535
S'4'
asbasbasbag69
(g85
g71
NtRp2536
(dp2537
g74
(dp2538
sg83
g2495
sg76
(lp2539
g69
(g90
g71
NtRp2540
(dp2541
g74
(dp2542
sg83
g2536
sg76
(lp2543
g69
(g70
g71
NtRp2544
(dp2545
g74
(dp2546
g82
I3
ssg83
g2540
sg76
(lp2547
S'datetime.datetime(2011, 12, 14, 14, 46, 14)'
p2548
asbasbasbag69
(g85
g71
NtRp2549
(dp2550
g74
(dp2551
sg83
g2495
sg76
(lp2552
g69
(g90
g71
NtRp2553
(dp2554
g74
(dp2555
sg83
g2549
sg76
(lp2556
g69
(g70
g71
NtRp2557
(dp2558
g74
(dp2559
g82
I3
ssg83
g2553
sg76
(lp2560
g1950
asbasbasbasbasbasbasbasbasbasbasbag69
(g85
g71
NtRp2561
(dp2562
g74
(dp2563
sg83
g79
sg76
(lp2564
g69
(g90
g71
NtRp2565
(dp2566
g74
(dp2567
g94
g95
ssg83
g2561
sg76
(lp2568
S'is_https'
p2569
asbag69
(g90
g71
NtRp2570
(dp2571
g74
(dp2572
g101
g102
ssg83
g2561
sg76
(lp2573
S':'
asbag69
(g90
g71
NtRp2574
(dp2575
g74
(dp2576
sg83
g2561
sg76
(lp2577
g69
(g70
g71
NtRp2578
(dp2579
g74
(dp2580
g82
I5
ssg83
g2574
sg76
(lp2581
g112
asbasbasbag69
(g85
g71
NtRp2582
(dp2583
g74
(dp2584
sg83
g79
sg76
(lp2585
g69
(g90
g71
NtRp2586
(dp2587
g74
(dp2588
g94
g95
ssg83
g2582
sg76
(lp2589
S'is_local'
p2590
asbag69
(g90
g71
NtRp2591
(dp2592
g74
(dp2593
g101
g102
ssg83
g2582
sg76
(lp2594
S':'
asbag69
(g90
g71
NtRp2595
(dp2596
g74
(dp2597
sg83
g2582
sg76
(lp2598
g69
(g70
g71
NtRp2599
(dp2600
g74
(dp2601
g82
I5
ssg83
g2595
sg76
(lp2602
g2059
asbasbasbag69
(g85
g71
NtRp2603
(dp2604
g74
(dp2605
sg83
g79
sg76
(lp2606
g69
(g90
g71
NtRp2607
(dp2608
g74
(dp2609
g94
g95
ssg83
g2603
sg76
(lp2610
S'is_restful'
p2611
asbag69
(g90
g71
NtRp2612
(dp2613
g74
(dp2614
g101
g102
ssg83
g2603
sg76
(lp2615
S':'
asbag69
(g90
g71
NtRp2616
(dp2617
g74
(dp2618
sg83
g2603
sg76
(lp2619
g69
(g70
g71
NtRp2620
(dp2621
g74
(dp2622
g82
I5
ssg83
g2616
sg76
(lp2623
g112
asbasbasbag69
(g85
g71
NtRp2624
(dp2625
g74
(dp2626
sg83
g79
sg76
(lp2627
g69
(g90
g71
NtRp2628
(dp2629
g74
(dp2630
g94
g95
ssg83
g2624
sg76
(lp2631
S'now'
p2632
asbag69
(g90
g71
NtRp2633
(dp2634
g74
(dp2635
g101
g102
ssg83
g2624
sg76
(lp2636
S':'
asbag69
(g90
g71
NtRp2637
(dp2638
g74
(dp2639
sg83
g2624
sg76
(lp2640
g69
(g70
g71
NtRp2641
(dp2642
g74
(dp2643
g82
I5
ssg83
g2637
sg76
(lp2644
S'datetime.datetime(2016, 5, 14, 20, 18, 51, 959597)'
p2645
asbasbasbag69
(g85
g71
NtRp2646
(dp2647
g74
(dp2648
sg83
g79
sg76
(lp2649
g69
(g90
g71
NtRp2650
(dp2651
g74
(dp2652
g94
g95
ssg83
g2646
sg76
(lp2653
S'post_vars'
p2654
asbag69
(g90
g71
NtRp2655
(dp2656
g74
(dp2657
g101
g102
ssg83
g2646
sg76
(lp2658
S':'
asbag69
(g90
g71
NtRp2659
(dp2660
g74
(dp2661
sg83
g2646
sg76
(lp2662
g69
(g70
g71
NtRp2663
(dp2664
g74
(dp2665
g82
I5
ssg83
g2659
sg76
(lp2666
g69
(g78
g71
NtRp2667
(dp2668
g74
(dp2669
g82
I4
ssg83
Nsg76
(lp2670
sbasbasbasbag69
(g85
g71
NtRp2671
(dp2672
g74
(dp2673
sg83
g79
sg76
(lp2674
g69
(g90
g71
NtRp2675
(dp2676
g74
(dp2677
g94
g95
ssg83
g2671
sg76
(lp2678
S'url'
p2679
asbag69
(g90
g71
NtRp2680
(dp2681
g74
(dp2682
g101
g102
ssg83
g2671
sg76
(lp2683
S':'
asbag69
(g90
g71
NtRp2684
(dp2685
g74
(dp2686
sg83
g2671
sg76
(lp2687
g69
(g70
g71
NtRp2688
(dp2689
g74
(dp2690
g82
I5
ssg83
g2684
sg76
(lp2691
S'/blogpost/default/show'
p2692
asbasbasbag69
(g85
g71
NtRp2693
(dp2694
g74
(dp2695
sg83
g79
sg76
(lp2696
g69
(g90
g71
NtRp2697
(dp2698
g74
(dp2699
g94
g95
ssg83
g2693
sg76
(lp2700
S'utcnow'
p2701
asbag69
(g90
g71
NtRp2702
(dp2703
g74
(dp2704
g101
g102
ssg83
g2693
sg76
(lp2705
S':'
asbag69
(g90
g71
NtRp2706
(dp2707
g74
(dp2708
sg83
g2693
sg76
(lp2709
g69
(g70
g71
NtRp2710
(dp2711
g74
(dp2712
g82
I5
ssg83
g2706
sg76
(lp2713
S'datetime.datetime(2016, 5, 14, 14, 48, 51, 959614)'
p2714
asbasbasbag69
(g85
g71
NtRp2715
(dp2716
g74
(dp2717
sg83
g79
sg76
(lp2718
g69
(g90
g71
NtRp2719
(dp2720
g74
(dp2721
g94
g95
ssg83
g2715
sg76
(lp2722
S'uuid'
p2723
asbag69
(g90
g71
NtRp2724
(dp2725
g74
(dp2726
g101
g102
ssg83
g2715
sg76
(lp2727
S':'
asbag69
(g90
g71
NtRp2728
(dp2729
g74
(dp2730
sg83
g2715
sg76
(lp2731
g69
(g70
g71
NtRp2732
(dp2733
g74
(dp2734
g82
I5
ssg83
g2728
sg76
(lp2735
S'blogpost/127.0.0.1.2016-05-14.20-18-51.c987c7e3-f7bc-4435-b17f-3b1dad71b7aa'
p2736
asbasbasbag69
(g85
g71
NtRp2737
(dp2738
g74
(dp2739
sg83
g79
sg76
(lp2740
g69
(g90
g71
NtRp2741
(dp2742
g74
(dp2743
g94
g95
ssg83
g2737
sg76
(lp2744
S'vars'
p2745
asbag69
(g90
g71
NtRp2746
(dp2747
g74
(dp2748
g101
g102
ssg83
g2737
sg76
(lp2749
S':'
asbag69
(g90
g71
NtRp2750
(dp2751
g74
(dp2752
sg83
g2737
sg76
(lp2753
g69
(g70
g71
NtRp2754
(dp2755
g74
(dp2756
g82
I5
ssg83
g2750
sg76
(lp2757
g69
(g78
g71
NtRp2758
(dp2759
g74
(dp2760
g82
I4
ssg83
Nsg76
(lp2761
sbasbasbasbag69
(g85
g71
NtRp2762
(dp2763
g74
(dp2764
sg83
g79
sg76
(lp2765
g69
(g90
g71
NtRp2766
(dp2767
g74
(dp2768
g94
g95
ssg83
g2762
sg76
(lp2769
S'wsgi'
p2770
asbag69
(g90
g71
NtRp2771
(dp2772
g74
(dp2773
g101
g102
ssg83
g2762
sg76
(lp2774
S':'
asbag69
(g90
g71
NtRp2775
(dp2776
g74
(dp2777
sg83
g2762
sg76
(lp2778
g69
(g70
g71
NtRp2779
(dp2780
g74
(dp2781
g82
I5
ssg83
g2775
sg76
(lp2782
g69
(g78
g71
NtRp2783
(dp2784
g74
(dp2785
g82
I4
ssg83
Nsg76
(lp2786
g69
(g85
g71
NtRp2787
(dp2788
g74
(dp2789
sg83
g2783
sg76
(lp2790
g69
(g90
g71
NtRp2791
(dp2792
g74
(dp2793
g94
g95
ssg83
g2787
sg76
(lp2794
S'environ'
p2795
asbag69
(g90
g71
NtRp2796
(dp2797
g74
(dp2798
g101
g102
ssg83
g2787
sg76
(lp2799
S':'
asbag69
(g90
g71
NtRp2800
(dp2801
g74
(dp2802
sg83
g2787
sg76
(lp2803
g69
(g70
g71
NtRp2804
(dp2805
g74
(dp2806
g82
I4
ssg83
g2800
sg76
(lp2807
g69
(g78
g71
NtRp2808
(dp2809
g74
(dp2810
g82
I3
ssg83
Nsg76
(lp2811
g69
(g85
g71
NtRp2812
(dp2813
g74
(dp2814
sg83
g2808
sg76
(lp2815
g69
(g90
g71
NtRp2816
(dp2817
g74
(dp2818
g94
g95
ssg83
g2812
sg76
(lp2819
S'HTTP_ACCEPT'
p2820
asbag69
(g90
g71
NtRp2821
(dp2822
g74
(dp2823
g101
g102
ssg83
g2812
sg76
(lp2824
S':'
asbag69
(g90
g71
NtRp2825
(dp2826
g74
(dp2827
sg83
g2812
sg76
(lp2828
g69
(g70
g71
NtRp2829
(dp2830
g74
(dp2831
g82
I3
ssg83
g2825
sg76
(lp2832
g1385
asbasbasbag69
(g85
g71
NtRp2833
(dp2834
g74
(dp2835
sg83
g2808
sg76
(lp2836
g69
(g90
g71
NtRp2837
(dp2838
g74
(dp2839
g94
g95
ssg83
g2833
sg76
(lp2840
S'HTTP_ACCEPT_ENCODING'
p2841
asbag69
(g90
g71
NtRp2842
(dp2843
g74
(dp2844
g101
g102
ssg83
g2833
sg76
(lp2845
S':'
asbag69
(g90
g71
NtRp2846
(dp2847
g74
(dp2848
sg83
g2833
sg76
(lp2849
g69
(g70
g71
NtRp2850
(dp2851
g74
(dp2852
g82
I3
ssg83
g2846
sg76
(lp2853
g1407
asbasbasbag69
(g85
g71
NtRp2854
(dp2855
g74
(dp2856
sg83
g2808
sg76
(lp2857
g69
(g90
g71
NtRp2858
(dp2859
g74
(dp2860
g94
g95
ssg83
g2854
sg76
(lp2861
S'HTTP_ACCEPT_LANGUAGE'
p2862
asbag69
(g90
g71
NtRp2863
(dp2864
g74
(dp2865
g101
g102
ssg83
g2854
sg76
(lp2866
S':'
asbag69
(g90
g71
NtRp2867
(dp2868
g74
(dp2869
sg83
g2854
sg76
(lp2870
g69
(g70
g71
NtRp2871
(dp2872
g74
(dp2873
g82
I3
ssg83
g2867
sg76
(lp2874
g1429
asbasbasbag69
(g85
g71
NtRp2875
(dp2876
g74
(dp2877
sg83
g2808
sg76
(lp2878
g69
(g90
g71
NtRp2879
(dp2880
g74
(dp2881
g94
g95
ssg83
g2875
sg76
(lp2882
S'HTTP_CACHE_CONTROL'
p2883
asbag69
(g90
g71
NtRp2884
(dp2885
g74
(dp2886
g101
g102
ssg83
g2875
sg76
(lp2887
S':'
asbag69
(g90
g71
NtRp2888
(dp2889
g74
(dp2890
sg83
g2875
sg76
(lp2891
g69
(g70
g71
NtRp2892
(dp2893
g74
(dp2894
g82
I3
ssg83
g2888
sg76
(lp2895
g1451
asbasbasbag69
(g85
g71
NtRp2896
(dp2897
g74
(dp2898
sg83
g2808
sg76
(lp2899
g69
(g90
g71
NtRp2900
(dp2901
g74
(dp2902
g94
g95
ssg83
g2896
sg76
(lp2903
S'HTTP_CONNECTION'
p2904
asbag69
(g90
g71
NtRp2905
(dp2906
g74
(dp2907
g101
g102
ssg83
g2896
sg76
(lp2908
S':'
asbag69
(g90
g71
NtRp2909
(dp2910
g74
(dp2911
sg83
g2896
sg76
(lp2912
g69
(g70
g71
NtRp2913
(dp2914
g74
(dp2915
g82
I3
ssg83
g2909
sg76
(lp2916
g1473
asbasbasbag69
(g85
g71
NtRp2917
(dp2918
g74
(dp2919
sg83
g2808
sg76
(lp2920
g69
(g90
g71
NtRp2921
(dp2922
g74
(dp2923
g94
g95
ssg83
g2917
sg76
(lp2924
S'HTTP_COOKIE'
p2925
asbag69
(g90
g71
NtRp2926
(dp2927
g74
(dp2928
g101
g102
ssg83
g2917
sg76
(lp2929
S':'
asbag69
(g90
g71
NtRp2930
(dp2931
g74
(dp2932
sg83
g2917
sg76
(lp2933
g69
(g70
g71
NtRp2934
(dp2935
g74
(dp2936
g82
I3
ssg83
g2930
sg76
(lp2937
g1495
asbasbasbag69
(g85
g71
NtRp2938
(dp2939
g74
(dp2940
sg83
g2808
sg76
(lp2941
g69
(g90
g71
NtRp2942
(dp2943
g74
(dp2944
g94
g95
ssg83
g2938
sg76
(lp2945
S'HTTP_HOST'
p2946
asbag69
(g90
g71
NtRp2947
(dp2948
g74
(dp2949
g101
g102
ssg83
g2938
sg76
(lp2950
S':'
asbag69
(g90
g71
NtRp2951
(dp2952
g74
(dp2953
sg83
g2938
sg76
(lp2954
g69
(g70
g71
NtRp2955
(dp2956
g74
(dp2957
g82
I3
ssg83
g2951
sg76
(lp2958
g1517
asbasbasbag69
(g85
g71
NtRp2959
(dp2960
g74
(dp2961
sg83
g2808
sg76
(lp2962
g69
(g90
g71
NtRp2963
(dp2964
g74
(dp2965
g94
g95
ssg83
g2959
sg76
(lp2966
S'HTTP_UPGRADE_INSECURE_REQUESTS'
p2967
asbag69
(g90
g71
NtRp2968
(dp2969
g74
(dp2970
g101
g102
ssg83
g2959
sg76
(lp2971
S':'
asbag69
(g90
g71
NtRp2972
(dp2973
g74
(dp2974
sg83
g2959
sg76
(lp2975
g69
(g70
g71
NtRp2976
(dp2977
g74
(dp2978
g82
I3
ssg83
g2972
sg76
(lp2979
S'1'
asbasbasbag69
(g85
g71
NtRp2980
(dp2981
g74
(dp2982
sg83
g2808
sg76
(lp2983
g69
(g90
g71
NtRp2984
(dp2985
g74
(dp2986
g94
g95
ssg83
g2980
sg76
(lp2987
S'HTTP_USER_AGENT'
p2988
asbag69
(g90
g71
NtRp2989
(dp2990
g74
(dp2991
g101
g102
ssg83
g2980
sg76
(lp2992
S':'
asbag69
(g90
g71
NtRp2993
(dp2994
g74
(dp2995
sg83
g2980
sg76
(lp2996
g69
(g70
g71
NtRp2997
(dp2998
g74
(dp2999
g82
I3
ssg83
g2993
sg76
(lp3000
g1560
asbasbasbag69
(g85
g71
NtRp3001
(dp3002
g74
(dp3003
sg83
g2808
sg76
(lp3004
g69
(g90
g71
NtRp3005
(dp3006
g74
(dp3007
g94
g95
ssg83
g3001
sg76
(lp3008
S'PATH_INFO'
p3009
asbag69
(g90
g71
NtRp3010
(dp3011
g74
(dp3012
g101
g102
ssg83
g3001
sg76
(lp3013
S':'
asbag69
(g90
g71
NtRp3014
(dp3015
g74
(dp3016
sg83
g3001
sg76
(lp3017
g69
(g70
g71
NtRp3018
(dp3019
g74
(dp3020
g82
I3
ssg83
g3014
sg76
(lp3021
g1624
asbasbasbag69
(g85
g71
NtRp3022
(dp3023
g74
(dp3024
sg83
g2808
sg76
(lp3025
g69
(g90
g71
NtRp3026
(dp3027
g74
(dp3028
g94
g95
ssg83
g3022
sg76
(lp3029
S'QUERY_STRING'
p3030
asbag69
(g90
g71
NtRp3031
(dp3032
g74
(dp3033
g101
g102
ssg83
g3022
sg76
(lp3034
S':'
asbag69
(g90
g71
NtRp3035
(dp3036
g74
(dp3037
sg83
g3022
sg76
(lp3038
g69
(g70
g71
NtRp3039
(dp3040
g74
(dp3041
g82
I3
ssg83
g3035
sg76
(lp3042
S''
asbasbasbag69
(g85
g71
NtRp3043
(dp3044
g74
(dp3045
sg83
g2808
sg76
(lp3046
g69
(g90
g71
NtRp3047
(dp3048
g74
(dp3049
g94
g95
ssg83
g3043
sg76
(lp3050
S'REMOTE_ADDR'
p3051
asbag69
(g90
g71
NtRp3052
(dp3053
g74
(dp3054
g101
g102
ssg83
g3043
sg76
(lp3055
S':'
asbag69
(g90
g71
NtRp3056
(dp3057
g74
(dp3058
sg83
g3043
sg76
(lp3059
g69
(g70
g71
NtRp3060
(dp3061
g74
(dp3062
g82
I3
ssg83
g3056
sg76
(lp3063
g202
asbasbasbag69
(g85
g71
NtRp3064
(dp3065
g74
(dp3066
sg83
g2808
sg76
(lp3067
g69
(g90
g71
NtRp3068
(dp3069
g74
(dp3070
g94
g95
ssg83
g3064
sg76
(lp3071
S'REMOTE_PORT'
p3072
asbag69
(g90
g71
NtRp3073
(dp3074
g74
(dp3075
g101
g102
ssg83
g3064
sg76
(lp3076
S':'
asbag69
(g90
g71
NtRp3077
(dp3078
g74
(dp3079
sg83
g3064
sg76
(lp3080
g69
(g70
g71
NtRp3081
(dp3082
g74
(dp3083
g82
I3
ssg83
g3077
sg76
(lp3084
g1688
asbasbasbag69
(g85
g71
NtRp3085
(dp3086
g74
(dp3087
sg83
g2808
sg76
(lp3088
g69
(g90
g71
NtRp3089
(dp3090
g74
(dp3091
g94
g95
ssg83
g3085
sg76
(lp3092
S'REQUEST_METHOD'
p3093
asbag69
(g90
g71
NtRp3094
(dp3095
g74
(dp3096
g101
g102
ssg83
g3085
sg76
(lp3097
S':'
asbag69
(g90
g71
NtRp3098
(dp3099
g74
(dp3100
sg83
g3085
sg76
(lp3101
g69
(g70
g71
NtRp3102
(dp3103
g74
(dp3104
g82
I3
ssg83
g3098
sg76
(lp3105
g1710
asbasbasbag69
(g85
g71
NtRp3106
(dp3107
g74
(dp3108
sg83
g2808
sg76
(lp3109
g69
(g90
g71
NtRp3110
(dp3111
g74
(dp3112
g94
g95
ssg83
g3106
sg76
(lp3113
S'SCRIPT_NAME'
p3114
asbag69
(g90
g71
NtRp3115
(dp3116
g74
(dp3117
g101
g102
ssg83
g3106
sg76
(lp3118
S':'
asbag69
(g90
g71
NtRp3119
(dp3120
g74
(dp3121
sg83
g3106
sg76
(lp3122
g69
(g70
g71
NtRp3123
(dp3124
g74
(dp3125
g82
I3
ssg83
g3119
sg76
(lp3126
S''
asbasbasbag69
(g85
g71
NtRp3127
(dp3128
g74
(dp3129
sg83
g2808
sg76
(lp3130
g69
(g90
g71
NtRp3131
(dp3132
g74
(dp3133
g94
g95
ssg83
g3127
sg76
(lp3134
S'SERVER_NAME'
p3135
asbag69
(g90
g71
NtRp3136
(dp3137
g74
(dp3138
g101
g102
ssg83
g3127
sg76
(lp3139
S':'
asbag69
(g90
g71
NtRp3140
(dp3141
g74
(dp3142
sg83
g3127
sg76
(lp3143
g69
(g70
g71
NtRp3144
(dp3145
g74
(dp3146
g82
I3
ssg83
g3140
sg76
(lp3147
g1753
asbasbasbag69
(g85
g71
NtRp3148
(dp3149
g74
(dp3150
sg83
g2808
sg76
(lp3151
g69
(g90
g71
NtRp3152
(dp3153
g74
(dp3154
g94
g95
ssg83
g3148
sg76
(lp3155
S'SERVER_PORT'
p3156
asbag69
(g90
g71
NtRp3157
(dp3158
g74
(dp3159
g101
g102
ssg83
g3148
sg76
(lp3160
S':'
asbag69
(g90
g71
NtRp3161
(dp3162
g74
(dp3163
sg83
g3148
sg76
(lp3164
g69
(g70
g71
NtRp3165
(dp3166
g74
(dp3167
g82
I3
ssg83
g3161
sg76
(lp3168
g1775
asbasbasbag69
(g85
g71
NtRp3169
(dp3170
g74
(dp3171
sg83
g2808
sg76
(lp3172
g69
(g90
g71
NtRp3173
(dp3174
g74
(dp3175
g94
g95
ssg83
g3169
sg76
(lp3176
S'SERVER_PROTOCOL'
p3177
asbag69
(g90
g71
NtRp3178
(dp3179
g74
(dp3180
g101
g102
ssg83
g3169
sg76
(lp3181
S':'
asbag69
(g90
g71
NtRp3182
(dp3183
g74
(dp3184
sg83
g3169
sg76
(lp3185
g69
(g70
g71
NtRp3186
(dp3187
g74
(dp3188
g82
I3
ssg83
g3182
sg76
(lp3189
g1797
asbasbasbag69
(g85
g71
NtRp3190
(dp3191
g74
(dp3192
sg83
g2808
sg76
(lp3193
g69
(g90
g71
NtRp3194
(dp3195
g74
(dp3196
g94
g95
ssg83
g3190
sg76
(lp3197
S'SERVER_SOFTWARE'
p3198
asbag69
(g90
g71
NtRp3199
(dp3200
g74
(dp3201
g101
g102
ssg83
g3190
sg76
(lp3202
S':'
asbag69
(g90
g71
NtRp3203
(dp3204
g74
(dp3205
sg83
g3190
sg76
(lp3206
g69
(g70
g71
NtRp3207
(dp3208
g74
(dp3209
g82
I3
ssg83
g3203
sg76
(lp3210
g1819
asbasbasbag69
(g85
g71
NtRp3211
(dp3212
g74
(dp3213
sg83
g2808
sg76
(lp3214
g69
(g90
g71
NtRp3215
(dp3216
g74
(dp3217
g94
g95
ssg83
g3211
sg76
(lp3218
S'wsgi.errors'
p3219
asbag69
(g90
g71
NtRp3220
(dp3221
g74
(dp3222
g101
g102
ssg83
g3211
sg76
(lp3223
S':'
asbag69
(g90
g71
NtRp3224
(dp3225
g74
(dp3226
sg83
g3211
sg76
(lp3227
g69
(g70
g71
NtRp3228
(dp3229
g74
(dp3230
g82
I3
ssg83
g3224
sg76
(lp3231
S"<open file '<stderr>', mode 'w' at 0xb73330d0>"
p3232
asbasbasbag69
(g85
g71
NtRp3233
(dp3234
g74
(dp3235
sg83
g2808
sg76
(lp3236
g69
(g90
g71
NtRp3237
(dp3238
g74
(dp3239
g94
g95
ssg83
g3233
sg76
(lp3240
S'wsgi.file_wrapper'
p3241
asbag69
(g90
g71
NtRp3242
(dp3243
g74
(dp3244
g101
g102
ssg83
g3233
sg76
(lp3245
S':'
asbag69
(g90
g71
NtRp3246
(dp3247
g74
(dp3248
sg83
g3233
sg76
(lp3249
g69
(g70
g71
NtRp3250
(dp3251
g74
(dp3252
g82
I3
ssg83
g3246
sg76
(lp3253
S'<class wsgiref.util.FileWrapper at 0x90d14dc>'
p3254
asbasbasbag69
(g85
g71
NtRp3255
(dp3256
g74
(dp3257
sg83
g2808
sg76
(lp3258
g69
(g90
g71
NtRp3259
(dp3260
g74
(dp3261
g94
g95
ssg83
g3255
sg76
(lp3262
S'wsgi.input'
p3263
asbag69
(g90
g71
NtRp3264
(dp3265
g74
(dp3266
g101
g102
ssg83
g3255
sg76
(lp3267
S':'
asbag69
(g90
g71
NtRp3268
(dp3269
g74
(dp3270
sg83
g3255
sg76
(lp3271
g69
(g70
g71
NtRp3272
(dp3273
g74
(dp3274
g82
I3
ssg83
g3268
sg76
(lp3275
S'<cStringIO.StringO object at 0x9591840>'
p3276
asbasbasbag69
(g85
g71
NtRp3277
(dp3278
g74
(dp3279
sg83
g2808
sg76
(lp3280
g69
(g90
g71
NtRp3281
(dp3282
g74
(dp3283
g94
g95
ssg83
g3277
sg76
(lp3284
S'wsgi.multiprocess'
p3285
asbag69
(g90
g71
NtRp3286
(dp3287
g74
(dp3288
g101
g102
ssg83
g3277
sg76
(lp3289
S':'
asbag69
(g90
g71
NtRp3290
(dp3291
g74
(dp3292
sg83
g3277
sg76
(lp3293
g69
(g70
g71
NtRp3294
(dp3295
g74
(dp3296
g82
I3
ssg83
g3290
sg76
(lp3297
g112
asbasbasbag69
(g85
g71
NtRp3298
(dp3299
g74
(dp3300
sg83
g2808
sg76
(lp3301
g69
(g90
g71
NtRp3302
(dp3303
g74
(dp3304
g94
g95
ssg83
g3298
sg76
(lp3305
S'wsgi.multithread'
p3306
asbag69
(g90
g71
NtRp3307
(dp3308
g74
(dp3309
g101
g102
ssg83
g3298
sg76
(lp3310
S':'
asbag69
(g90
g71
NtRp3311
(dp3312
g74
(dp3313
sg83
g3298
sg76
(lp3314
g69
(g70
g71
NtRp3315
(dp3316
g74
(dp3317
g82
I3
ssg83
g3311
sg76
(lp3318
g2059
asbasbasbag69
(g85
g71
NtRp3319
(dp3320
g74
(dp3321
sg83
g2808
sg76
(lp3322
g69
(g90
g71
NtRp3323
(dp3324
g74
(dp3325
g94
g95
ssg83
g3319
sg76
(lp3326
S'wsgi.run_once'
p3327
asbag69
(g90
g71
NtRp3328
(dp3329
g74
(dp3330
g101
g102
ssg83
g3319
sg76
(lp3331
S':'
asbag69
(g90
g71
NtRp3332
(dp3333
g74
(dp3334
sg83
g3319
sg76
(lp3335
g69
(g70
g71
NtRp3336
(dp3337
g74
(dp3338
g82
I3
ssg83
g3332
sg76
(lp3339
g112
asbasbasbag69
(g85
g71
NtRp3340
(dp3341
g74
(dp3342
sg83
g2808
sg76
(lp3343
g69
(g90
g71
NtRp3344
(dp3345
g74
(dp3346
g94
g95
ssg83
g3340
sg76
(lp3347
S'wsgi.url_scheme'
p3348
asbag69
(g90
g71
NtRp3349
(dp3350
g74
(dp3351
g101
g102
ssg83
g3340
sg76
(lp3352
S':'
asbag69
(g90
g71
NtRp3353
(dp3354
g74
(dp3355
sg83
g3340
sg76
(lp3356
g69
(g70
g71
NtRp3357
(dp3358
g74
(dp3359
g82
I3
ssg83
g3353
sg76
(lp3360
g2102
asbasbasbag69
(g85
g71
NtRp3361
(dp3362
g74
(dp3363
sg83
g2808
sg76
(lp3364
g69
(g90
g71
NtRp3365
(dp3366
g74
(dp3367
g94
g95
ssg83
g3361
sg76
(lp3368
S'wsgi.version'
p3369
asbag69
(g90
g71
NtRp3370
(dp3371
g74
(dp3372
g101
g102
ssg83
g3361
sg76
(lp3373
S':'
asbag69
(g90
g71
NtRp3374
(dp3375
g74
(dp3376
sg83
g3361
sg76
(lp3377
g69
(g70
g71
NtRp3378
(dp3379
g74
(dp3380
g82
I3
ssg83
g3374
sg76
(lp3381
S'1'
asbasbasbasbasbasbasbasbasbasbasbasbasbsS'frames'
p3382
(lp3383
(dp3384
S'file'
p3385
S'/usr/lib/pymodules/python2.7/gluon/restricted.py'
p3386
sS'dump'
p3387
(dp3388
S'code'
p3389
S'r"response.write(\'<!DOCTYPE html>\\n<!-- paulirish....ponse.write(\'\\n</body>\\n</html>\\n\', escape=False)"'
p3390
sS'layer'
p3391
S"'/home/mukul/web2py/applications/blogpost/views/default/show.html'"
p3392
sS'global compile2'
p3393
S'<function compile2>'
p3394
sS'ccode'
p3395
S'undefined'
p3396
ssS'lnum'
p3397
I203
sS'lines'
p3398
(dp3399
I198
S"    environment['__file__'] = layer"
p3400
sI199
S'    try:'
p3401
sI200
S'        if type(code) == types.CodeType:'
p3402
sI201
S'            ccode = code'
p3403
sI202
S'        else:'
p3404
sI203
S'            ccode = compile2(code,layer)'
p3405
sI204
S'        exec ccode in environment'
p3406
sI205
S'    except HTTP:'
p3407
sI206
S'        raise'
p3408
sI207
S'    except RestrictedError:'
p3409
ssS'call'
p3410
S'(code=r"response.write(\'<!DOCTYPE html>\\n<!-- paulirish....ponse.write(\'\\n</body>\\n</html>\\n\', escape=False)", environment={\'A\': <class \'gluon.html.A\'>, \'Auth\': <class \'gluon.tools.Auth\'>, \'B\': <class \'gluon.html.B\'>, \'BEAUTIFY\': <class \'gluon.html.BEAUTIFY\'>, \'BODY\': <class \'gluon.html.BODY\'>, \'BR\': <class \'gluon.html.BR\'>, \'BUTTON\': <class \'gluon.html.BUTTON\'>, \'CAT\': <class \'gluon.html.CAT\'>, \'CENTER\': <class \'gluon.html.CENTER\'>, \'CLEANUP\': <class \'gluon.validators.CLEANUP\'>, ...}, layer=\'/home/mukul/web2py/applications/blogpost/views/default/show.html\')'
p3411
sS'func'
p3412
S'restricted'
p3413
sa(dp3414
g3385
S'/usr/lib/pymodules/python2.7/gluon/restricted.py'
p3415
sg3387
(dp3416
S'builtincompile'
p3417
S'<built-in function compile>'
p3418
sS'code'
p3419
S'r"response.write(\'<!DOCTYPE html>\\n<!-- paulirish....ponse.write(\'\\n</body>\\n</html>\\n\', escape=False)"'
p3420
sS'code.rstrip'
p3421
S'<built-in method rstrip of str object>'
p3422
sS').replace'
p3423
g3396
sS'layer'
p3424
S"'/home/mukul/web2py/applications/blogpost/views/default/show.html'"
p3425
ssg3397
I189
sg3398
(dp3426
I192
S'    """'
p3427
sI193
S'    runs code in environment and returns the output. if an exception occurs'
p3428
sI184
S''
sI185
S'def compile2(code,layer):'
p3429
sI186
S'    """'
p3430
sI187
S"    The +'\\n' is necessary else compile fails when code ends in a comment."
p3431
sI188
S'    """'
p3432
sI189
S"    return compile(code.rstrip().replace('\\r\\n','\\n')+'\\n', layer, 'exec')"
p3433
sI190
S''
sI191
S"def restricted(code, environment=None, layer='Unknown'):"
p3434
ssg3410
S'(code=r"response.write(\'<!DOCTYPE html>\\n<!-- paulirish....ponse.write(\'\\n</body>\\n</html>\\n\', escape=False)", layer=\'/home/mukul/web2py/applications/blogpost/views/default/show.html\')'
p3435
sg3412
S'compile2'
p3436
sasS'pyver'
p3437
S'Python 2.7.3: /usr/bin/python'
p3438
sS'session'
p3439
g69
(g70
g71
NtRp3440
(dp3441
g74
(dp3442
sg76
(lp3443
g69
(g78
g71
NtRp3444
(dp3445
g74
(dp3446
g82
I5
ssg83
Nsg76
(lp3447
g69
(g85
g71
NtRp3448
(dp3449
g74
(dp3450
sg83
g3444
sg76
(lp3451
g69
(g90
g71
NtRp3452
(dp3453
g74
(dp3454
g94
g95
ssg83
g3448
sg76
(lp3455
S'auth'
p3456
asbag69
(g90
g71
NtRp3457
(dp3458
g74
(dp3459
g101
g102
ssg83
g3448
sg76
(lp3460
S':'
asbag69
(g90
g71
NtRp3461
(dp3462
g74
(dp3463
sg83
g3448
sg76
(lp3464
g69
(g70
g71
NtRp3465
(dp3466
g74
(dp3467
g82
I5
ssg83
g3461
sg76
(lp3468
g69
(g78
g71
NtRp3469
(dp3470
g74
(dp3471
g82
I4
ssg83
Nsg76
(lp3472
g69
(g85
g71
NtRp3473
(dp3474
g74
(dp3475
sg83
g3469
sg76
(lp3476
g69
(g90
g71
NtRp3477
(dp3478
g74
(dp3479
g94
g95
ssg83
g3473
sg76
(lp3480
S'expiration'
p3481
asbag69
(g90
g71
NtRp3482
(dp3483
g74
(dp3484
g101
g102
ssg83
g3473
sg76
(lp3485
S':'
asbag69
(g90
g71
NtRp3486
(dp3487
g74
(dp3488
sg83
g3473
sg76
(lp3489
g69
(g70
g71
NtRp3490
(dp3491
g74
(dp3492
g82
I4
ssg83
g3486
sg76
(lp3493
S'3600'
p3494
asbasbasbag69
(g85
g71
NtRp3495
(dp3496
g74
(dp3497
sg83
g3469
sg76
(lp3498
g69
(g90
g71
NtRp3499
(dp3500
g74
(dp3501
g94
g95
ssg83
g3495
sg76
(lp3502
S'hmac_key'
p3503
asbag69
(g90
g71
NtRp3504
(dp3505
g74
(dp3506
g101
g102
ssg83
g3495
sg76
(lp3507
S':'
asbag69
(g90
g71
NtRp3508
(dp3509
g74
(dp3510
sg83
g3495
sg76
(lp3511
g69
(g70
g71
NtRp3512
(dp3513
g74
(dp3514
g82
I4
ssg83
g3508
sg76
(lp3515
S'58e4f6da-e68c-4006-9681-e7cdf60f71ad'
p3516
asbasbasbag69
(g85
g71
NtRp3517
(dp3518
g74
(dp3519
sg83
g3469
sg76
(lp3520
g69
(g90
g71
NtRp3521
(dp3522
g74
(dp3523
g94
g95
ssg83
g3517
sg76
(lp3524
S'last_visit'
p3525
asbag69
(g90
g71
NtRp3526
(dp3527
g74
(dp3528
g101
g102
ssg83
g3517
sg76
(lp3529
S':'
asbag69
(g90
g71
NtRp3530
(dp3531
g74
(dp3532
sg83
g3517
sg76
(lp3533
g69
(g70
g71
NtRp3534
(dp3535
g74
(dp3536
g82
I4
ssg83
g3530
sg76
(lp3537
S'datetime.datetime(2016, 5, 14, 20, 16, 6, 547115)'
p3538
asbasbasbag69
(g85
g71
NtRp3539
(dp3540
g74
(dp3541
sg83
g3469
sg76
(lp3542
g69
(g90
g71
NtRp3543
(dp3544
g74
(dp3545
g94
g95
ssg83
g3539
sg76
(lp3546
S'user'
p3547
asbag69
(g90
g71
NtRp3548
(dp3549
g74
(dp3550
g101
g102
ssg83
g3539
sg76
(lp3551
S':'
asbag69
(g90
g71
NtRp3552
(dp3553
g74
(dp3554
sg83
g3539
sg76
(lp3555
g69
(g70
g71
NtRp3556
(dp3557
g74
(dp3558
g82
I4
ssg83
g3552
sg76
(lp3559
g69
(g78
g71
NtRp3560
(dp3561
g74
(dp3562
g82
I3
ssg83
Nsg76
(lp3563
g69
(g85
g71
NtRp3564
(dp3565
g74
(dp3566
sg83
g3560
sg76
(lp3567
g69
(g90
g71
NtRp3568
(dp3569
g74
(dp3570
g94
g95
ssg83
g3564
sg76
(lp3571
S'email'
p3572
asbag69
(g90
g71
NtRp3573
(dp3574
g74
(dp3575
g101
g102
ssg83
g3564
sg76
(lp3576
S':'
asbag69
(g90
g71
NtRp3577
(dp3578
g74
(dp3579
sg83
g3564
sg76
(lp3580
g69
(g70
g71
NtRp3581
(dp3582
g74
(dp3583
g82
I3
ssg83
g3577
sg76
(lp3584
S'mukulkathpalia@gmail.com'
p3585
asbasbasbag69
(g85
g71
NtRp3586
(dp3587
g74
(dp3588
sg83
g3560
sg76
(lp3589
g69
(g90
g71
NtRp3590
(dp3591
g74
(dp3592
g94
g95
ssg83
g3586
sg76
(lp3593
S'first_name'
p3594
asbag69
(g90
g71
NtRp3595
(dp3596
g74
(dp3597
g101
g102
ssg83
g3586
sg76
(lp3598
S':'
asbag69
(g90
g71
NtRp3599
(dp3600
g74
(dp3601
sg83
g3586
sg76
(lp3602
g69
(g70
g71
NtRp3603
(dp3604
g74
(dp3605
g82
I3
ssg83
g3599
sg76
(lp3606
S'mukul'
p3607
asbasbasbag69
(g85
g71
NtRp3608
(dp3609
g74
(dp3610
sg83
g3560
sg76
(lp3611
g69
(g90
g71
NtRp3612
(dp3613
g74
(dp3614
g94
g95
ssg83
g3608
sg76
(lp3615
S'id'
p3616
asbag69
(g90
g71
NtRp3617
(dp3618
g74
(dp3619
g101
g102
ssg83
g3608
sg76
(lp3620
S':'
asbag69
(g90
g71
NtRp3621
(dp3622
g74
(dp3623
sg83
g3608
sg76
(lp3624
g69
(g70
g71
NtRp3625
(dp3626
g74
(dp3627
g82
I3
ssg83
g3621
sg76
(lp3628
S'1'
asbasbasbag69
(g85
g71
NtRp3629
(dp3630
g74
(dp3631
sg83
g3560
sg76
(lp3632
g69
(g90
g71
NtRp3633
(dp3634
g74
(dp3635
g94
g95
ssg83
g3629
sg76
(lp3636
S'last_name'
p3637
asbag69
(g90
g71
NtRp3638
(dp3639
g74
(dp3640
g101
g102
ssg83
g3629
sg76
(lp3641
S':'
asbag69
(g90
g71
NtRp3642
(dp3643
g74
(dp3644
sg83
g3629
sg76
(lp3645
g69
(g70
g71
NtRp3646
(dp3647
g74
(dp3648
g82
I3
ssg83
g3642
sg76
(lp3649
S'kathpalia'
p3650
asbasbasbag69
(g85
g71
NtRp3651
(dp3652
g74
(dp3653
sg83
g3560
sg76
(lp3654
g69
(g90
g71
NtRp3655
(dp3656
g74
(dp3657
g94
g95
ssg83
g3651
sg76
(lp3658
S'password'
p3659
asbag69
(g90
g71
NtRp3660
(dp3661
g74
(dp3662
g101
g102
ssg83
g3651
sg76
(lp3663
S':'
asbag69
(g90
g71
NtRp3664
(dp3665
g74
(dp3666
sg83
g3651
sg76
(lp3667
g69
(g70
g71
NtRp3668
(dp3669
g74
(dp3670
g82
I3
ssg83
g3664
sg76
(lp3671
S'80aeb2ab48c122c2c0b4eeef2ef83fb4'
p3672
asbasbasbag69
(g85
g71
NtRp3673
(dp3674
g74
(dp3675
sg83
g3560
sg76
(lp3676
g69
(g90
g71
NtRp3677
(dp3678
g74
(dp3679
g94
g95
ssg83
g3673
sg76
(lp3680
S'registration_id'
p3681
asbag69
(g90
g71
NtRp3682
(dp3683
g74
(dp3684
g101
g102
ssg83
g3673
sg76
(lp3685
S':'
asbag69
(g90
g71
NtRp3686
(dp3687
g74
(dp3688
sg83
g3673
sg76
(lp3689
g69
(g70
g71
NtRp3690
(dp3691
g74
(dp3692
g82
I3
ssg83
g3686
sg76
(lp3693
S''
asbasbasbag69
(g85
g71
NtRp3694
(dp3695
g74
(dp3696
sg83
g3560
sg76
(lp3697
g69
(g90
g71
NtRp3698
(dp3699
g74
(dp3700
g94
g95
ssg83
g3694
sg76
(lp3701
S'registration_key'
p3702
asbag69
(g90
g71
NtRp3703
(dp3704
g74
(dp3705
g101
g102
ssg83
g3694
sg76
(lp3706
S':'
asbag69
(g90
g71
NtRp3707
(dp3708
g74
(dp3709
sg83
g3694
sg76
(lp3710
g69
(g70
g71
NtRp3711
(dp3712
g74
(dp3713
g82
I3
ssg83
g3707
sg76
(lp3714
S''
asbasbasbag69
(g85
g71
NtRp3715
(dp3716
g74
(dp3717
sg83
g3560
sg76
(lp3718
g69
(g90
g71
NtRp3719
(dp3720
g74
(dp3721
g94
g95
ssg83
g3715
sg76
(lp3722
S'reset_password_key'
p3723
asbag69
(g90
g71
NtRp3724
(dp3725
g74
(dp3726
g101
g102
ssg83
g3715
sg76
(lp3727
S':'
asbag69
(g90
g71
NtRp3728
(dp3729
g74
(dp3730
sg83
g3715
sg76
(lp3731
g69
(g70
g71
NtRp3732
(dp3733
g74
(dp3734
g82
I3
ssg83
g3728
sg76
(lp3735
S''
asbasbasbasbasbasbasbasbasbasbasbag69
(g85
g71
NtRp3736
(dp3737
g74
(dp3738
sg83
g3444
sg76
(lp3739
g69
(g90
g71
NtRp3740
(dp3741
g74
(dp3742
g94
g95
ssg83
g3736
sg76
(lp3743
S'last_query'
p3744
asbag69
(g90
g71
NtRp3745
(dp3746
g74
(dp3747
g101
g102
ssg83
g3736
sg76
(lp3748
S':'
asbag69
(g90
g71
NtRp3749
(dp3750
g74
(dp3751
sg83
g3736
sg76
(lp3752
g69
(g70
g71
NtRp3753
(dp3754
g74
(dp3755
g82
I5
ssg83
g3749
sg76
(lp3756
S'db.content.id>0'
p3757
asbasbasbasbasbsS'etype'
p3758
S"<type 'exceptions.SyntaxError'>"
p3759
sS'date'
p3760
S'Sat May 14 20:18:51 2016'
p3761
sS'response'
p3762
g69
(g70
g71
NtRp3763
(dp3764
g74
(dp3765
sg76
(lp3766
g69
(g78
g71
NtRp3767
(dp3768
g74
(dp3769
g82
I5
ssg83
Nsg76
(lp3770
g69
(g85
g71
NtRp3771
(dp3772
g74
(dp3773
sg83
g3767
sg76
(lp3774
g69
(g90
g71
NtRp3775
(dp3776
g74
(dp3777
g94
g95
ssg83
g3771
sg76
(lp3778
g167
asbag69
(g90
g71
NtRp3779
(dp3780
g74
(dp3781
g101
g102
ssg83
g3771
sg76
(lp3782
S':'
asbag69
(g90
g71
NtRp3783
(dp3784
g74
(dp3785
sg83
g3771
sg76
(lp3786
g69
(g70
g71
NtRp3787
(dp3788
g74
(dp3789
g82
I5
ssg83
g3783
sg76
(lp3790
S'<cStringIO.StringO object at 0xa9c15360>'
p3791
asbasbasbag69
(g85
g71
NtRp3792
(dp3793
g74
(dp3794
sg83
g3767
sg76
(lp3795
g69
(g90
g71
NtRp3796
(dp3797
g74
(dp3798
g94
g95
ssg83
g3792
sg76
(lp3799
g233
asbag69
(g90
g71
NtRp3800
(dp3801
g74
(dp3802
g101
g102
ssg83
g3792
sg76
(lp3803
S':'
asbag69
(g90
g71
NtRp3804
(dp3805
g74
(dp3806
sg83
g3792
sg76
(lp3807
g69
(g70
g71
NtRp3808
(dp3809
g74
(dp3810
g82
I5
ssg83
g3804
sg76
(lp3811
g69
(g78
g71
NtRp3812
(dp3813
g74
(dp3814
g82
I4
ssg83
Nsg76
(lp3815
g69
(g85
g71
NtRp3816
(dp3817
g74
(dp3818
sg83
g3812
sg76
(lp3819
g69
(g90
g71
NtRp3820
(dp3821
g74
(dp3822
g94
g95
ssg83
g3816
sg76
(lp3823
S'session_id_blogpost'
p3824
asbag69
(g90
g71
NtRp3825
(dp3826
g74
(dp3827
g101
g102
ssg83
g3816
sg76
(lp3828
S':'
asbag69
(g90
g71
NtRp3829
(dp3830
g74
(dp3831
sg83
g3816
sg76
(lp3832
g69
(g70
g71
NtRp3833
(dp3834
g74
(dp3835
g82
I4
ssg83
g3829
sg76
(lp3836
g69
(g78
g71
NtRp3837
(dp3838
g74
(dp3839
g82
I3
ssg83
Nsg76
(lp3840
g69
(g85
g71
NtRp3841
(dp3842
g74
(dp3843
sg83
g3837
sg76
(lp3844
g69
(g90
g71
NtRp3845
(dp3846
g74
(dp3847
g94
g95
ssg83
g3841
sg76
(lp3848
g283
asbag69
(g90
g71
NtRp3849
(dp3850
g74
(dp3851
g101
g102
ssg83
g3841
sg76
(lp3852
S':'
asbag69
(g90
g71
NtRp3853
(dp3854
g74
(dp3855
sg83
g3841
sg76
(lp3856
g69
(g70
g71
NtRp3857
(dp3858
g74
(dp3859
g82
I3
ssg83
g3853
sg76
(lp3860
S''
asbasbasbag69
(g85
g71
NtRp3861
(dp3862
g74
(dp3863
sg83
g3837
sg76
(lp3864
g69
(g90
g71
NtRp3865
(dp3866
g74
(dp3867
g94
g95
ssg83
g3861
sg76
(lp3868
g304
asbag69
(g90
g71
NtRp3869
(dp3870
g74
(dp3871
g101
g102
ssg83
g3861
sg76
(lp3872
S':'
asbag69
(g90
g71
NtRp3873
(dp3874
g74
(dp3875
sg83
g3861
sg76
(lp3876
g69
(g70
g71
NtRp3877
(dp3878
g74
(dp3879
g82
I3
ssg83
g3873
sg76
(lp3880
S''
asbasbasbag69
(g85
g71
NtRp3881
(dp3882
g74
(dp3883
sg83
g3837
sg76
(lp3884
g69
(g90
g71
NtRp3885
(dp3886
g74
(dp3887
g94
g95
ssg83
g3881
sg76
(lp3888
g325
asbag69
(g90
g71
NtRp3889
(dp3890
g74
(dp3891
g101
g102
ssg83
g3881
sg76
(lp3892
S':'
asbag69
(g90
g71
NtRp3893
(dp3894
g74
(dp3895
sg83
g3881
sg76
(lp3896
g69
(g70
g71
NtRp3897
(dp3898
g74
(dp3899
g82
I3
ssg83
g3893
sg76
(lp3900
S''
asbasbasbag69
(g85
g71
NtRp3901
(dp3902
g74
(dp3903
sg83
g3837
sg76
(lp3904
g69
(g90
g71
NtRp3905
(dp3906
g74
(dp3907
g94
g95
ssg83
g3901
sg76
(lp3908
g346
asbag69
(g90
g71
NtRp3909
(dp3910
g74
(dp3911
g101
g102
ssg83
g3901
sg76
(lp3912
S':'
asbag69
(g90
g71
NtRp3913
(dp3914
g74
(dp3915
sg83
g3901
sg76
(lp3916
g69
(g70
g71
NtRp3917
(dp3918
g74
(dp3919
g82
I3
ssg83
g3913
sg76
(lp3920
S''
asbasbasbag69
(g85
g71
NtRp3921
(dp3922
g74
(dp3923
sg83
g3837
sg76
(lp3924
g69
(g90
g71
NtRp3925
(dp3926
g74
(dp3927
g94
g95
ssg83
g3921
sg76
(lp3928
g367
asbag69
(g90
g71
NtRp3929
(dp3930
g74
(dp3931
g101
g102
ssg83
g3921
sg76
(lp3932
S':'
asbag69
(g90
g71
NtRp3933
(dp3934
g74
(dp3935
sg83
g3921
sg76
(lp3936
g69
(g70
g71
NtRp3937
(dp3938
g74
(dp3939
g82
I3
ssg83
g3933
sg76
(lp3940
S''
asbasbasbag69
(g85
g71
NtRp3941
(dp3942
g74
(dp3943
sg83
g3837
sg76
(lp3944
g69
(g90
g71
NtRp3945
(dp3946
g74
(dp3947
g94
g95
ssg83
g3941
sg76
(lp3948
g388
asbag69
(g90
g71
NtRp3949
(dp3950
g74
(dp3951
g101
g102
ssg83
g3941
sg76
(lp3952
S':'
asbag69
(g90
g71
NtRp3953
(dp3954
g74
(dp3955
sg83
g3941
sg76
(lp3956
g69
(g70
g71
NtRp3957
(dp3958
g74
(dp3959
g82
I3
ssg83
g3953
sg76
(lp3960
S'/'
asbasbasbag69
(g85
g71
NtRp3961
(dp3962
g74
(dp3963
sg83
g3837
sg76
(lp3964
g69
(g90
g71
NtRp3965
(dp3966
g74
(dp3967
g94
g95
ssg83
g3961
sg76
(lp3968
g409
asbag69
(g90
g71
NtRp3969
(dp3970
g74
(dp3971
g101
g102
ssg83
g3961
sg76
(lp3972
S':'
asbag69
(g90
g71
NtRp3973
(dp3974
g74
(dp3975
sg83
g3961
sg76
(lp3976
g69
(g70
g71
NtRp3977
(dp3978
g74
(dp3979
g82
I3
ssg83
g3973
sg76
(lp3980
S''
asbasbasbag69
(g85
g71
NtRp3981
(dp3982
g74
(dp3983
sg83
g3837
sg76
(lp3984
g69
(g90
g71
NtRp3985
(dp3986
g74
(dp3987
g94
g95
ssg83
g3981
sg76
(lp3988
g430
asbag69
(g90
g71
NtRp3989
(dp3990
g74
(dp3991
g101
g102
ssg83
g3981
sg76
(lp3992
S':'
asbag69
(g90
g71
NtRp3993
(dp3994
g74
(dp3995
sg83
g3981
sg76
(lp3996
g69
(g70
g71
NtRp3997
(dp3998
g74
(dp3999
g82
I3
ssg83
g3993
sg76
(lp4000
S''
asbasbasbasbasbasbasbasbasbasbasbag69
(g85
g71
NtRp4001
(dp4002
g74
(dp4003
sg83
g3767
sg76
(lp4004
g69
(g90
g71
NtRp4005
(dp4006
g74
(dp4007
g94
g95
ssg83
g4001
sg76
(lp4008
S'files'
p4009
asbag69
(g90
g71
NtRp4010
(dp4011
g74
(dp4012
g101
g102
ssg83
g4001
sg76
(lp4013
S':'
asbag69
(g90
g71
NtRp4014
(dp4015
g74
(dp4016
sg83
g4001
sg76
(lp4017
g69
(g70
g71
NtRp4018
(dp4019
g74
(dp4020
g82
I5
ssg83
g4014
sg76
(lp4021
g69
(g78
g71
NtRp4022
(dp4023
g74
(dp4024
g82
I4
ssg83
Nsg76
(lp4025
sbasbasbasbag69
(g85
g71
NtRp4026
(dp4027
g74
(dp4028
sg83
g3767
sg76
(lp4029
g69
(g90
g71
NtRp4030
(dp4031
g74
(dp4032
g94
g95
ssg83
g4026
sg76
(lp4033
S'flash'
p4034
asbag69
(g90
g71
NtRp4035
(dp4036
g74
(dp4037
g101
g102
ssg83
g4026
sg76
(lp4038
S':'
asbag69
(g90
g71
NtRp4039
(dp4040
g74
(dp4041
sg83
g4026
sg76
(lp4042
g69
(g70
g71
NtRp4043
(dp4044
g74
(dp4045
g82
I5
ssg83
g4039
sg76
(lp4046
S''
asbasbasbag69
(g85
g71
NtRp4047
(dp4048
g74
(dp4049
sg83
g3767
sg76
(lp4050
g69
(g90
g71
NtRp4051
(dp4052
g74
(dp4053
g94
g95
ssg83
g4047
sg76
(lp4054
S'generic_patterns'
p4055
asbag69
(g90
g71
NtRp4056
(dp4057
g74
(dp4058
g101
g102
ssg83
g4047
sg76
(lp4059
S':'
asbag69
(g90
g71
NtRp4060
(dp4061
g74
(dp4062
sg83
g4047
sg76
(lp4063
g69
(g70
g71
NtRp4064
(dp4065
g74
(dp4066
g82
I5
ssg83
g4060
sg76
(lp4067
g69
(g78
g71
NtRp4068
(dp4069
g74
(dp4070
g82
I4
ssg83
Nsg76
(lp4071
g69
(g85
g71
NtRp4072
(dp4073
g74
(dp4074
sg83
g4068
sg76
(lp4075
g69
(g90
g71
NtRp4076
(dp4077
g74
(dp4078
sg83
g4072
sg76
(lp4079
g69
(g70
g71
NtRp4080
(dp4081
g74
(dp4082
g82
I4
ssg83
g4076
sg76
(lp4083
S'*'
asbasbasbasbasbasbasbag69
(g85
g71
NtRp4084
(dp4085
g74
(dp4086
sg83
g3767
sg76
(lp4087
g69
(g90
g71
NtRp4088
(dp4089
g74
(dp4090
g94
g95
ssg83
g4084
sg76
(lp4091
S'headers'
p4092
asbag69
(g90
g71
NtRp4093
(dp4094
g74
(dp4095
g101
g102
ssg83
g4084
sg76
(lp4096
S':'
asbag69
(g90
g71
NtRp4097
(dp4098
g74
(dp4099
sg83
g4084
sg76
(lp4100
g69
(g70
g71
NtRp4101
(dp4102
g74
(dp4103
g82
I5
ssg83
g4097
sg76
(lp4104
g69
(g78
g71
NtRp4105
(dp4106
g74
(dp4107
g82
I4
ssg83
Nsg76
(lp4108
g69
(g85
g71
NtRp4109
(dp4110
g74
(dp4111
sg83
g4105
sg76
(lp4112
g69
(g90
g71
NtRp4113
(dp4114
g74
(dp4115
g94
g95
ssg83
g4109
sg76
(lp4116
S'Cache-Control'
p4117
asbag69
(g90
g71
NtRp4118
(dp4119
g74
(dp4120
g101
g102
ssg83
g4109
sg76
(lp4121
S':'
asbag69
(g90
g71
NtRp4122
(dp4123
g74
(dp4124
sg83
g4109
sg76
(lp4125
g69
(g70
g71
NtRp4126
(dp4127
g74
(dp4128
g82
I4
ssg83
g4122
sg76
(lp4129
S'no-store, no-cache, must-revalidate, post-check=0, pre-check=0'
p4130
asbasbasbag69
(g85
g71
NtRp4131
(dp4132
g74
(dp4133
sg83
g4105
sg76
(lp4134
g69
(g90
g71
NtRp4135
(dp4136
g74
(dp4137
g94
g95
ssg83
g4131
sg76
(lp4138
S'Content-Type'
p4139
asbag69
(g90
g71
NtRp4140
(dp4141
g74
(dp4142
g101
g102
ssg83
g4131
sg76
(lp4143
S':'
asbag69
(g90
g71
NtRp4144
(dp4145
g74
(dp4146
sg83
g4131
sg76
(lp4147
g69
(g70
g71
NtRp4148
(dp4149
g74
(dp4150
g82
I4
ssg83
g4144
sg76
(lp4151
S'text/html; charset=utf-8'
p4152
asbasbasbag69
(g85
g71
NtRp4153
(dp4154
g74
(dp4155
sg83
g4105
sg76
(lp4156
g69
(g90
g71
NtRp4157
(dp4158
g74
(dp4159
g94
g95
ssg83
g4153
sg76
(lp4160
S'Expires'
p4161
asbag69
(g90
g71
NtRp4162
(dp4163
g74
(dp4164
g101
g102
ssg83
g4153
sg76
(lp4165
S':'
asbag69
(g90
g71
NtRp4166
(dp4167
g74
(dp4168
sg83
g4153
sg76
(lp4169
g69
(g70
g71
NtRp4170
(dp4171
g74
(dp4172
g82
I4
ssg83
g4166
sg76
(lp4173
S'Sat, 14 May 2016 14:48:51 GMT'
p4174
asbasbasbag69
(g85
g71
NtRp4175
(dp4176
g74
(dp4177
sg83
g4105
sg76
(lp4178
g69
(g90
g71
NtRp4179
(dp4180
g74
(dp4181
g94
g95
ssg83
g4175
sg76
(lp4182
S'Pragma'
p4183
asbag69
(g90
g71
NtRp4184
(dp4185
g74
(dp4186
g101
g102
ssg83
g4175
sg76
(lp4187
S':'
asbag69
(g90
g71
NtRp4188
(dp4189
g74
(dp4190
sg83
g4175
sg76
(lp4191
g69
(g70
g71
NtRp4192
(dp4193
g74
(dp4194
g82
I4
ssg83
g4188
sg76
(lp4195
S'no-cache'
p4196
asbasbasbag69
(g85
g71
NtRp4197
(dp4198
g74
(dp4199
sg83
g4105
sg76
(lp4200
g69
(g90
g71
NtRp4201
(dp4202
g74
(dp4203
g94
g95
ssg83
g4197
sg76
(lp4204
S'X-Powered-By'
p4205
asbag69
(g90
g71
NtRp4206
(dp4207
g74
(dp4208
g101
g102
ssg83
g4197
sg76
(lp4209
S':'
asbag69
(g90
g71
NtRp4210
(dp4211
g74
(dp4212
sg83
g4197
sg76
(lp4213
g69
(g70
g71
NtRp4214
(dp4215
g74
(dp4216
g82
I4
ssg83
g4210
sg76
(lp4217
S'web2py'
p4218
asbasbasbasbasbasbasbag69
(g85
g71
NtRp4219
(dp4220
g74
(dp4221
sg83
g3767
sg76
(lp4222
g69
(g90
g71
NtRp4223
(dp4224
g74
(dp4225
g94
g95
ssg83
g4219
sg76
(lp4226
S'menu'
p4227
asbag69
(g90
g71
NtRp4228
(dp4229
g74
(dp4230
g101
g102
ssg83
g4219
sg76
(lp4231
S':'
asbag69
(g90
g71
NtRp4232
(dp4233
g74
(dp4234
sg83
g4219
sg76
(lp4235
g69
(g70
g71
NtRp4236
(dp4237
g74
(dp4238
g82
I5
ssg83
g4232
sg76
(lp4239
g69
(g78
g71
NtRp4240
(dp4241
g74
(dp4242
g82
I4
ssg83
Nsg76
(lp4243
g69
(g85
g71
NtRp4244
(dp4245
g74
(dp4246
sg83
g4240
sg76
(lp4247
g69
(g90
g71
NtRp4248
(dp4249
g74
(dp4250
sg83
g4244
sg76
(lp4251
g69
(g70
g71
NtRp4252
(dp4253
g74
(dp4254
g82
I4
ssg83
g4248
sg76
(lp4255
g69
(g78
g71
NtRp4256
(dp4257
g74
(dp4258
g82
I3
ssg83
Nsg76
(lp4259
g69
(g85
g71
NtRp4260
(dp4261
g74
(dp4262
sg83
g4256
sg76
(lp4263
g69
(g90
g71
NtRp4264
(dp4265
g74
(dp4266
sg83
g4260
sg76
(lp4267
g69
(g70
g71
NtRp4268
(dp4269
g74
(dp4270
g82
I3
ssg83
g4264
sg76
(lp4271
cgluon.languages
lazyT_unpickle
p4272
(S't\x04\x00\x00\x00Home'
tRp4273
asbasbasbag69
(g85
g71
NtRp4274
(dp4275
g74
(dp4276
sg83
g4256
sg76
(lp4277
g69
(g90
g71
NtRp4278
(dp4279
g74
(dp4280
sg83
g4274
sg76
(lp4281
g69
(g70
g71
NtRp4282
(dp4283
g74
(dp4284
g82
I3
ssg83
g4278
sg76
(lp4285
g112
asbasbasbag69
(g85
g71
NtRp4286
(dp4287
g74
(dp4288
sg83
g4256
sg76
(lp4289
g69
(g90
g71
NtRp4290
(dp4291
g74
(dp4292
sg83
g4286
sg76
(lp4293
g69
(g70
g71
NtRp4294
(dp4295
g74
(dp4296
g82
I3
ssg83
g4290
sg76
(lp4297
S'/blogpost/default/index'
p4298
asbasbasbag69
(g85
g71
NtRp4299
(dp4300
g74
(dp4301
sg83
g4256
sg76
(lp4302
g69
(g90
g71
NtRp4303
(dp4304
g74
(dp4305
sg83
g4299
sg76
(lp4306
g69
(g70
g71
NtRp4307
(dp4308
g74
(dp4309
g82
I3
ssg83
g4303
sg76
(lp4310
g69
(g78
g71
NtRp4311
(dp4312
g74
(dp4313
g82
I2
ssg83
Nsg76
(lp4314
sbasbasbasbasbasbasbasbag69
(g85
g71
NtRp4315
(dp4316
g74
(dp4317
sg83
g4240
sg76
(lp4318
g69
(g90
g71
NtRp4319
(dp4320
g74
(dp4321
sg83
g4315
sg76
(lp4322
g69
(g70
g71
NtRp4323
(dp4324
g74
(dp4325
g82
I4
ssg83
g4319
sg76
(lp4326
g69
(g78
g71
NtRp4327
(dp4328
g74
(dp4329
g82
I3
ssg83
Nsg76
(lp4330
g69
(g85
g71
NtRp4331
(dp4332
g74
(dp4333
sg83
g4327
sg76
(lp4334
g69
(g90
g71
NtRp4335
(dp4336
g74
(dp4337
sg83
g4331
sg76
(lp4338
g69
(g70
g71
NtRp4339
(dp4340
g74
(dp4341
g82
I3
ssg83
g4335
sg76
(lp4342
g69
(cgluon.html
SPAN
p4343
g71
NtRp4344
(dp4345
g74
(dp4346
g94
S'color:yellow'
p4347
ssg83
Nsg76
(lp4348
g4218
asbasbasbasbag69
(g85
g71
NtRp4349
(dp4350
g74
(dp4351
sg83
g4327
sg76
(lp4352
g69
(g90
g71
NtRp4353
(dp4354
g74
(dp4355
sg83
g4349
sg76
(lp4356
g69
(g70
g71
NtRp4357
(dp4358
g74
(dp4359
g82
I3
ssg83
g4353
sg76
(lp4360
g112
asbasbasbag69
(g85
g71
NtRp4361
(dp4362
g74
(dp4363
sg83
g4327
sg76
(lp4364
g69
(g90
g71
NtRp4365
(dp4366
g74
(dp4367
sg83
g4361
sg76
(lp4368
g69
(g70
g71
NtRp4369
(dp4370
g74
(dp4371
g82
I3
ssg83
g4365
sg76
(lp4372
S'None'
p4373
asbasbasbag69
(g85
g71
NtRp4374
(dp4375
g74
(dp4376
sg83
g4327
sg76
(lp4377
g69
(g90
g71
NtRp4378
(dp4379
g74
(dp4380
sg83
g4374
sg76
(lp4381
g69
(g70
g71
NtRp4382
(dp4383
g74
(dp4384
g82
I3
ssg83
g4378
sg76
(lp4385
g69
(g78
g71
NtRp4386
(dp4387
g74
(dp4388
g82
I2
ssg83
Nsg76
(lp4389
g69
(g85
g71
NtRp4390
(dp4391
g74
(dp4392
sg83
g4386
sg76
(lp4393
g69
(g90
g71
NtRp4394
(dp4395
g74
(dp4396
sg83
g4390
sg76
(lp4397
g69
(g70
g71
NtRp4398
(dp4399
g74
(dp4400
g82
I2
ssg83
g4394
sg76
(lp4401
g69
(g78
g71
NtRp4402
(dp4403
g74
(dp4404
g82
I1
ssg83
Nsg76
(lp4405
g69
(g85
g71
NtRp4406
(dp4407
g74
(dp4408
sg83
g4402
sg76
(lp4409
g69
(g90
g71
NtRp4410
(dp4411
g74
(dp4412
sg83
g4406
sg76
(lp4413
g69
(g70
g71
NtRp4414
(dp4415
g74
(dp4416
g82
I1
ssg83
g4410
sg76
(lp4417
g4272
(S's\x08\x00\x00\x00My Sites'
tRp4418
asbasbasbag69
(g85
g71
NtRp4419
(dp4420
g74
(dp4421
sg83
g4402
sg76
(lp4422
g69
(g90
g71
NtRp4423
(dp4424
g74
(dp4425
sg83
g4419
sg76
(lp4426
g69
(g70
g71
NtRp4427
(dp4428
g74
(dp4429
g82
I1
ssg83
g4423
sg76
(lp4430
I00
asbasbasbag69
(g85
g71
NtRp4431
(dp4432
g74
(dp4433
sg83
g4402
sg76
(lp4434
g69
(g90
g71
NtRp4435
(dp4436
g74
(dp4437
sg83
g4431
sg76
(lp4438
g69
(g70
g71
NtRp4439
(dp4440
g74
(dp4441
g82
I1
ssg83
g4435
sg76
(lp4442
S'/admin/default/site'
p4443
asbasbasbasbasbasbasbag69
(g85
g71
NtRp4444
(dp4445
g74
(dp4446
sg83
g4386
sg76
(lp4447
g69
(g90
g71
NtRp4448
(dp4449
g74
(dp4450
sg83
g4444
sg76
(lp4451
g69
(g70
g71
NtRp4452
(dp4453
g74
(dp4454
g82
I2
ssg83
g4448
sg76
(lp4455
g69
(g78
g71
NtRp4456
(dp4457
g74
(dp4458
g82
I1
ssg83
Nsg76
(lp4459
g69
(g85
g71
NtRp4460
(dp4461
g74
(dp4462
sg83
g4456
sg76
(lp4463
g69
(g90
g71
NtRp4464
(dp4465
g74
(dp4466
sg83
g4460
sg76
(lp4467
g69
(g70
g71
NtRp4468
(dp4469
g74
(dp4470
g82
I1
ssg83
g4464
sg76
(lp4471
g4272
(S's\x08\x00\x00\x00This App'
tRp4472
asbasbasbag69
(g85
g71
NtRp4473
(dp4474
g74
(dp4475
sg83
g4456
sg76
(lp4476
g69
(g90
g71
NtRp4477
(dp4478
g74
(dp4479
sg83
g4473
sg76
(lp4480
g69
(g70
g71
NtRp4481
(dp4482
g74
(dp4483
g82
I1
ssg83
g4477
sg76
(lp4484
I00
asbasbasbag69
(g85
g71
NtRp4485
(dp4486
g74
(dp4487
sg83
g4456
sg76
(lp4488
g69
(g90
g71
NtRp4489
(dp4490
g74
(dp4491
sg83
g4485
sg76
(lp4492
g69
(g70
g71
NtRp4493
(dp4494
g74
(dp4495
g82
I1
ssg83
g4489
sg76
(lp4496
S'/admin/default/design/blogpost'
p4497
asbasbasbag69
(g85
g71
NtRp4498
(dp4499
g74
(dp4500
sg83
g4456
sg76
(lp4501
g69
(g90
g71
NtRp4502
(dp4503
g74
(dp4504
sg83
g4498
sg76
(lp4505
g69
(g70
g71
NtRp4506
(dp4507
g74
(dp4508
g82
I1
ssg83
g4502
sg76
(lp4509
(lp4510
(g4272
(S't\n\x00\x00\x00Controller'
tRp4511
I00
S'/admin/default/edit/blogpost/controllers/default.py'
tp4512
a(g4272
(S't\x04\x00\x00\x00View'
tRp4513
I00
S'/admin/default/edit/blogpost/views/default/show.html'
tp4514
a(g4272
(S't\x06\x00\x00\x00Layout'
tRp4515
I00
S'/admin/default/edit/blogpost/views/layout.html'
tp4516
a(g4272
(S't\n\x00\x00\x00Stylesheet'
tRp4517
I00
S'/admin/default/edit/blogpost/static/css/web2py.css'
tp4518
a(g4272
(S's\x08\x00\x00\x00DB Model'
tRp4519
I00
S'/admin/default/edit/blogpost/models/db.py'
tp4520
a(g4272
(S's\n\x00\x00\x00Menu Model'
tRp4521
I00
S'/admin/default/edit/blogpost/models/menu.py'
tp4522
a(g4272
(S't\x08\x00\x00\x00Database'
tRp4523
I00
S'/blogpost/appadmin/index'
tp4524
a(g4272
(S't\x06\x00\x00\x00Errors'
tRp4525
I00
S'/admin/default/errors/blogpost'
tp4526
a(g4272
(S't\x05\x00\x00\x00About'
tRp4527
I00
S'/admin/default/about/blogpost'
tp4528
aasbasbasbasbasbasbasbag69
(g85
g71
NtRp4529
(dp4530
g74
(dp4531
sg83
g4386
sg76
(lp4532
g69
(g90
g71
NtRp4533
(dp4534
g74
(dp4535
sg83
g4529
sg76
(lp4536
g69
(g70
g71
NtRp4537
(dp4538
g74
(dp4539
g82
I2
ssg83
g4533
sg76
(lp4540
g69
(g78
g71
NtRp4541
(dp4542
g74
(dp4543
g82
I1
ssg83
Nsg76
(lp4544
g69
(g85
g71
NtRp4545
(dp4546
g74
(dp4547
sg83
g4541
sg76
(lp4548
g69
(g90
g71
NtRp4549
(dp4550
g74
(dp4551
sg83
g4545
sg76
(lp4552
g69
(g70
g71
NtRp4553
(dp4554
g74
(dp4555
g82
I1
ssg83
g4549
sg76
(lp4556
S'web2py.com'
p4557
asbasbasbag69
(g85
g71
NtRp4558
(dp4559
g74
(dp4560
sg83
g4541
sg76
(lp4561
g69
(g90
g71
NtRp4562
(dp4563
g74
(dp4564
sg83
g4558
sg76
(lp4565
g69
(g70
g71
NtRp4566
(dp4567
g74
(dp4568
g82
I1
ssg83
g4562
sg76
(lp4569
I00
asbasbasbag69
(g85
g71
NtRp4570
(dp4571
g74
(dp4572
sg83
g4541
sg76
(lp4573
g69
(g90
g71
NtRp4574
(dp4575
g74
(dp4576
sg83
g4570
sg76
(lp4577
g69
(g70
g71
NtRp4578
(dp4579
g74
(dp4580
g82
I1
ssg83
g4574
sg76
(lp4581
S'http://www.web2py.com'
p4582
asbasbasbag69
(g85
g71
NtRp4583
(dp4584
g74
(dp4585
sg83
g4541
sg76
(lp4586
g69
(g90
g71
NtRp4587
(dp4588
g74
(dp4589
sg83
g4583
sg76
(lp4590
g69
(g70
g71
NtRp4591
(dp4592
g74
(dp4593
g82
I1
ssg83
g4587
sg76
(lp4594
(lp4595
(g4272
(S't\x08\x00\x00\x00Download'
tRp4596
I00
S'http://www.web2py.com/examples/default/download'
p4597
tp4598
a(g4272
(S't\x07\x00\x00\x00Support'
tRp4599
I00
S'http://www.web2py.com/examples/default/support'
p4600
tp4601
a(g4272
(S't\x04\x00\x00\x00Demo'
tRp4602
I00
S'http://web2py.com/demo_admin'
p4603
tp4604
a(g4272
(S's\x0e\x00\x00\x00Quick Examples'
tRp4605
I00
S'http://web2py.com/examples/default/examples'
p4606
tp4607
a(g4272
(S't\x03\x00\x00\x00FAQ'
tRp4608
I00
S'http://web2py.com/AlterEgo'
p4609
tp4610
a(g4272
(S't\x06\x00\x00\x00Videos'
tRp4611
I00
S'http://www.web2py.com/examples/default/videos/'
p4612
tp4613
a(g4272
(S's\x11\x00\x00\x00Free Applications'
tRp4614
I00
S'http://web2py.com/appliances'
p4615
tp4616
a(g4272
(S't\x07\x00\x00\x00Plugins'
tRp4617
I00
S'http://web2py.com/plugins'
p4618
tp4619
a(g4272
(S't\x07\x00\x00\x00Layouts'
tRp4620
I00
S'http://web2py.com/layouts'
p4621
tp4622
a(g4272
(S't\x07\x00\x00\x00Recipes'
tRp4623
I00
S'http://web2pyslices.com/'
p4624
tp4625
a(g4272
(S't\x08\x00\x00\x00Semantic'
tRp4626
I00
S'http://web2py.com/semantic'
p4627
tp4628
aasbasbasbasbasbasbasbag69
(g85
g71
NtRp4629
(dp4630
g74
(dp4631
sg83
g4386
sg76
(lp4632
g69
(g90
g71
NtRp4633
(dp4634
g74
(dp4635
sg83
g4629
sg76
(lp4636
g69
(g70
g71
NtRp4637
(dp4638
g74
(dp4639
g82
I2
ssg83
g4633
sg76
(lp4640
g69
(g78
g71
NtRp4641
(dp4642
g74
(dp4643
g82
I1
ssg83
Nsg76
(lp4644
g69
(g85
g71
NtRp4645
(dp4646
g74
(dp4647
sg83
g4641
sg76
(lp4648
g69
(g90
g71
NtRp4649
(dp4650
g74
(dp4651
sg83
g4645
sg76
(lp4652
g69
(g70
g71
NtRp4653
(dp4654
g74
(dp4655
g82
I1
ssg83
g4649
sg76
(lp4656
g4272
(S't\r\x00\x00\x00Documentation'
tRp4657
asbasbasbag69
(g85
g71
NtRp4658
(dp4659
g74
(dp4660
sg83
g4641
sg76
(lp4661
g69
(g90
g71
NtRp4662
(dp4663
g74
(dp4664
sg83
g4658
sg76
(lp4665
g69
(g70
g71
NtRp4666
(dp4667
g74
(dp4668
g82
I1
ssg83
g4662
sg76
(lp4669
I00
asbasbasbag69
(g85
g71
NtRp4670
(dp4671
g74
(dp4672
sg83
g4641
sg76
(lp4673
g69
(g90
g71
NtRp4674
(dp4675
g74
(dp4676
sg83
g4670
sg76
(lp4677
g69
(g70
g71
NtRp4678
(dp4679
g74
(dp4680
g82
I1
ssg83
g4674
sg76
(lp4681
S'http://www.web2py.com/book'
p4682
asbasbasbag69
(g85
g71
NtRp4683
(dp4684
g74
(dp4685
sg83
g4641
sg76
(lp4686
g69
(g90
g71
NtRp4687
(dp4688
g74
(dp4689
sg83
g4683
sg76
(lp4690
g69
(g70
g71
NtRp4691
(dp4692
g74
(dp4693
g82
I1
ssg83
g4687
sg76
(lp4694
(lp4695
(g4272
(S't\x07\x00\x00\x00Preface'
tRp4696
I00
S'http://www.web2py.com/book/default/chapter/00'
p4697
tp4698
a(g4272
(S't\x0c\x00\x00\x00Introduction'
tRp4699
I00
S'http://www.web2py.com/book/default/chapter/01'
p4700
tp4701
a(g4272
(S't\x06\x00\x00\x00Python'
tRp4702
I00
S'http://www.web2py.com/book/default/chapter/02'
p4703
tp4704
a(g4272
(S't\x08\x00\x00\x00Overview'
tRp4705
I00
S'http://www.web2py.com/book/default/chapter/03'
p4706
tp4707
a(g4272
(S's\x08\x00\x00\x00The Core'
tRp4708
I00
S'http://www.web2py.com/book/default/chapter/04'
p4709
tp4710
a(g4272
(S's\t\x00\x00\x00The Views'
tRp4711
I00
S'http://www.web2py.com/book/default/chapter/05'
p4712
tp4713
a(g4272
(S't\x08\x00\x00\x00Database'
tRp4714
I00
S'http://www.web2py.com/book/default/chapter/06'
p4715
tp4716
a(g4272
(S's\x14\x00\x00\x00Forms and Validators'
tRp4717
I00
S'http://www.web2py.com/book/default/chapter/07'
p4718
tp4719
a(g4272
(S's\r\x00\x00\x00Email and SMS'
tRp4720
I00
S'http://www.web2py.com/book/default/chapter/08'
p4721
tp4722
a(g4272
(S's\x0e\x00\x00\x00Access Control'
tRp4723
I00
S'http://www.web2py.com/book/default/chapter/09'
p4724
tp4725
a(g4272
(S't\x08\x00\x00\x00Services'
tRp4726
I00
S'http://www.web2py.com/book/default/chapter/10'
p4727
tp4728
a(g4272
(S's\x0c\x00\x00\x00Ajax Recipes'
tRp4729
I00
S'http://www.web2py.com/book/default/chapter/11'
p4730
tp4731
a(g4272
(S's\x16\x00\x00\x00Components and Plugins'
tRp4732
I00
S'http://www.web2py.com/book/default/chapter/12'
p4733
tp4734
a(g4272
(S's\x12\x00\x00\x00Deployment Recipes'
tRp4735
I00
S'http://www.web2py.com/book/default/chapter/13'
p4736
tp4737
a(g4272
(S's\r\x00\x00\x00Other Recipes'
tRp4738
I00
S'http://www.web2py.com/book/default/chapter/14'
p4739
tp4740
a(g4272
(S's\r\x00\x00\x00Buy this book'
tRp4741
I00
S'http://stores.lulu.com/web2py'
p4742
tp4743
aasbasbasbasbasbasbasbag69
(g85
g71
NtRp4744
(dp4745
g74
(dp4746
sg83
g4386
sg76
(lp4747
g69
(g90
g71
NtRp4748
(dp4749
g74
(dp4750
sg83
g4744
sg76
(lp4751
g69
(g70
g71
NtRp4752
(dp4753
g74
(dp4754
g82
I2
ssg83
g4748
sg76
(lp4755
g69
(g78
g71
NtRp4756
(dp4757
g74
(dp4758
g82
I1
ssg83
Nsg76
(lp4759
g69
(g85
g71
NtRp4760
(dp4761
g74
(dp4762
sg83
g4756
sg76
(lp4763
g69
(g90
g71
NtRp4764
(dp4765
g74
(dp4766
sg83
g4760
sg76
(lp4767
g69
(g70
g71
NtRp4768
(dp4769
g74
(dp4770
g82
I1
ssg83
g4764
sg76
(lp4771
g4272
(S't\t\x00\x00\x00Community'
tRp4772
asbasbasbag69
(g85
g71
NtRp4773
(dp4774
g74
(dp4775
sg83
g4756
sg76
(lp4776
g69
(g90
g71
NtRp4777
(dp4778
g74
(dp4779
sg83
g4773
sg76
(lp4780
g69
(g70
g71
NtRp4781
(dp4782
g74
(dp4783
g82
I1
ssg83
g4777
sg76
(lp4784
I00
asbasbasbag69
(g85
g71
NtRp4785
(dp4786
g74
(dp4787
sg83
g4756
sg76
(lp4788
g69
(g90
g71
NtRp4789
(dp4790
g74
(dp4791
sg83
g4785
sg76
(lp4792
g69
(g70
g71
NtRp4793
(dp4794
g74
(dp4795
g82
I1
ssg83
g4789
sg76
(lp4796
Nasbasbasbag69
(g85
g71
NtRp4797
(dp4798
g74
(dp4799
sg83
g4756
sg76
(lp4800
g69
(g90
g71
NtRp4801
(dp4802
g74
(dp4803
sg83
g4797
sg76
(lp4804
g69
(g70
g71
NtRp4805
(dp4806
g74
(dp4807
g82
I1
ssg83
g4801
sg76
(lp4808
(lp4809
(g4272
(S't\x06\x00\x00\x00Groups'
tRp4810
I00
S'http://www.web2py.com/examples/default/usergroups'
p4811
tp4812
a(g4272
(S't\x07\x00\x00\x00Twitter'
tRp4813
I00
S'http://twitter.com/web2py'
p4814
tp4815
a(g4272
(S's\t\x00\x00\x00Live Chat'
tRp4816
I00
S'http://webchat.freenode.net/?channels=web2py'
p4817
tp4818
aasbasbasbasbasbasbasbag69
(g85
g71
NtRp4819
(dp4820
g74
(dp4821
sg83
g4386
sg76
(lp4822
g69
(g90
g71
NtRp4823
(dp4824
g74
(dp4825
sg83
g4819
sg76
(lp4826
g69
(g70
g71
NtRp4827
(dp4828
g74
(dp4829
g82
I2
ssg83
g4823
sg76
(lp4830
g69
(g78
g71
NtRp4831
(dp4832
g74
(dp4833
g82
I1
ssg83
Nsg76
(lp4834
g69
(g85
g71
NtRp4835
(dp4836
g74
(dp4837
sg83
g4831
sg76
(lp4838
g69
(g90
g71
NtRp4839
(dp4840
g74
(dp4841
sg83
g4835
sg76
(lp4842
g69
(g70
g71
NtRp4843
(dp4844
g74
(dp4845
g82
I1
ssg83
g4839
sg76
(lp4846
g4272
(S't\x07\x00\x00\x00Plugins'
tRp4847
asbasbasbag69
(g85
g71
NtRp4848
(dp4849
g74
(dp4850
sg83
g4831
sg76
(lp4851
g69
(g90
g71
NtRp4852
(dp4853
g74
(dp4854
sg83
g4848
sg76
(lp4855
g69
(g70
g71
NtRp4856
(dp4857
g74
(dp4858
g82
I1
ssg83
g4852
sg76
(lp4859
I00
asbasbasbag69
(g85
g71
NtRp4860
(dp4861
g74
(dp4862
sg83
g4831
sg76
(lp4863
g69
(g90
g71
NtRp4864
(dp4865
g74
(dp4866
sg83
g4860
sg76
(lp4867
g69
(g70
g71
NtRp4868
(dp4869
g74
(dp4870
g82
I1
ssg83
g4864
sg76
(lp4871
Nasbasbasbag69
(g85
g71
NtRp4872
(dp4873
g74
(dp4874
sg83
g4831
sg76
(lp4875
g69
(g90
g71
NtRp4876
(dp4877
g74
(dp4878
sg83
g4872
sg76
(lp4879
g69
(g70
g71
NtRp4880
(dp4881
g74
(dp4882
g82
I1
ssg83
g4876
sg76
(lp4883
(lp4884
(S'plugin_wiki'
p4885
I00
S'http://web2py.com/examples/default/download'
p4886
tp4887
a(g4272
(S's\r\x00\x00\x00Other Plugins'
tRp4888
I00
g4618
tp4889
a(g4272
(S's\x0e\x00\x00\x00Layout Plugins'
tRp4890
I00
g4621
tp4891
aasbasbasbasbasbasbasbasbasbasbasbasbasbasbasbasbasbasbasbag69
(g85
g71
NtRp4892
(dp4893
g74
(dp4894
sg83
g3767
sg76
(lp4895
g69
(g90
g71
NtRp4896
(dp4897
g74
(dp4898
g94
g95
ssg83
g4892
sg76
(lp4899
S'meta'
p4900
asbag69
(g90
g71
NtRp4901
(dp4902
g74
(dp4903
g101
g102
ssg83
g4892
sg76
(lp4904
S':'
asbag69
(g90
g71
NtRp4905
(dp4906
g74
(dp4907
sg83
g4892
sg76
(lp4908
g69
(g70
g71
NtRp4909
(dp4910
g74
(dp4911
g82
I5
ssg83
g4905
sg76
(lp4912
g69
(g78
g71
NtRp4913
(dp4914
g74
(dp4915
g82
I4
ssg83
Nsg76
(lp4916
g69
(g85
g71
NtRp4917
(dp4918
g74
(dp4919
sg83
g4913
sg76
(lp4920
g69
(g90
g71
NtRp4921
(dp4922
g74
(dp4923
g94
g95
ssg83
g4917
sg76
(lp4924
S'author'
p4925
asbag69
(g90
g71
NtRp4926
(dp4927
g74
(dp4928
g101
g102
ssg83
g4917
sg76
(lp4929
S':'
asbag69
(g90
g71
NtRp4930
(dp4931
g74
(dp4932
sg83
g4917
sg76
(lp4933
g69
(g70
g71
NtRp4934
(dp4935
g74
(dp4936
g82
I4
ssg83
g4930
sg76
(lp4937
S'Your Name <you@example.com>'
p4938
asbasbasbag69
(g85
g71
NtRp4939
(dp4940
g74
(dp4941
sg83
g4913
sg76
(lp4942
g69
(g90
g71
NtRp4943
(dp4944
g74
(dp4945
g94
g95
ssg83
g4939
sg76
(lp4946
S'copyright'
p4947
asbag69
(g90
g71
NtRp4948
(dp4949
g74
(dp4950
g101
g102
ssg83
g4939
sg76
(lp4951
S':'
asbag69
(g90
g71
NtRp4952
(dp4953
g74
(dp4954
sg83
g4939
sg76
(lp4955
g69
(g70
g71
NtRp4956
(dp4957
g74
(dp4958
g82
I4
ssg83
g4952
sg76
(lp4959
S'Copyright 2011'
p4960
asbasbasbag69
(g85
g71
NtRp4961
(dp4962
g74
(dp4963
sg83
g4913
sg76
(lp4964
g69
(g90
g71
NtRp4965
(dp4966
g74
(dp4967
g94
g95
ssg83
g4961
sg76
(lp4968
S'description'
p4969
asbag69
(g90
g71
NtRp4970
(dp4971
g74
(dp4972
g101
g102
ssg83
g4961
sg76
(lp4973
S':'
asbag69
(g90
g71
NtRp4974
(dp4975
g74
(dp4976
sg83
g4961
sg76
(lp4977
g69
(g70
g71
NtRp4978
(dp4979
g74
(dp4980
g82
I4
ssg83
g4974
sg76
(lp4981
S'a cool new app'
p4982
asbasbasbag69
(g85
g71
NtRp4983
(dp4984
g74
(dp4985
sg83
g4913
sg76
(lp4986
g69
(g90
g71
NtRp4987
(dp4988
g74
(dp4989
g94
g95
ssg83
g4983
sg76
(lp4990
S'generator'
p4991
asbag69
(g90
g71
NtRp4992
(dp4993
g74
(dp4994
g101
g102
ssg83
g4983
sg76
(lp4995
S':'
asbag69
(g90
g71
NtRp4996
(dp4997
g74
(dp4998
sg83
g4983
sg76
(lp4999
g69
(g70
g71
NtRp5000
(dp5001
g74
(dp5002
g82
I4
ssg83
g4996
sg76
(lp5003
S'Web2py Web Framework'
p5004
asbasbasbag69
(g85
g71
NtRp5005
(dp5006
g74
(dp5007
sg83
g4913
sg76
(lp5008
g69
(g90
g71
NtRp5009
(dp5010
g74
(dp5011
g94
g95
ssg83
g5005
sg76
(lp5012
S'keywords'
p5013
asbag69
(g90
g71
NtRp5014
(dp5015
g74
(dp5016
g101
g102
ssg83
g5005
sg76
(lp5017
S':'
asbag69
(g90
g71
NtRp5018
(dp5019
g74
(dp5020
sg83
g5005
sg76
(lp5021
g69
(g70
g71
NtRp5022
(dp5023
g74
(dp5024
g82
I4
ssg83
g5018
sg76
(lp5025
S'web2py, python, framework'
p5026
asbasbasbasbasbasbasbag69
(g85
g71
NtRp5027
(dp5028
g74
(dp5029
sg83
g3767
sg76
(lp5030
g69
(g90
g71
NtRp5031
(dp5032
g74
(dp5033
g94
g95
ssg83
g5027
sg76
(lp5034
S'postprocessing'
p5035
asbag69
(g90
g71
NtRp5036
(dp5037
g74
(dp5038
g101
g102
ssg83
g5027
sg76
(lp5039
S':'
asbag69
(g90
g71
NtRp5040
(dp5041
g74
(dp5042
sg83
g5027
sg76
(lp5043
g69
(g70
g71
NtRp5044
(dp5045
g74
(dp5046
g82
I5
ssg83
g5040
sg76
(lp5047
g69
(g78
g71
NtRp5048
(dp5049
g74
(dp5050
g82
I4
ssg83
Nsg76
(lp5051
sbasbasbasbag69
(g85
g71
NtRp5052
(dp5053
g74
(dp5054
sg83
g3767
sg76
(lp5055
g69
(g90
g71
NtRp5056
(dp5057
g74
(dp5058
g94
g95
ssg83
g5052
sg76
(lp5059
S'session_file'
p5060
asbag69
(g90
g71
NtRp5061
(dp5062
g74
(dp5063
g101
g102
ssg83
g5052
sg76
(lp5064
S':'
asbag69
(g90
g71
NtRp5065
(dp5066
g74
(dp5067
sg83
g5052
sg76
(lp5068
g69
(g70
g71
NtRp5069
(dp5070
g74
(dp5071
g82
I5
ssg83
g5065
sg76
(lp5072
S"<open file '/home/mukul/web2py/applications/blogpost/sessions/127.0.0.1-db0d4806-b3c3-4347-967a-d3847597ee73', mode 'rb+' at 0x9883f98>"
p5073
asbasbasbag69
(g85
g71
NtRp5074
(dp5075
g74
(dp5076
sg83
g3767
sg76
(lp5077
g69
(g90
g71
NtRp5078
(dp5079
g74
(dp5080
g94
g95
ssg83
g5074
sg76
(lp5081
S'session_filename'
p5082
asbag69
(g90
g71
NtRp5083
(dp5084
g74
(dp5085
g101
g102
ssg83
g5074
sg76
(lp5086
S':'
asbag69
(g90
g71
NtRp5087
(dp5088
g74
(dp5089
sg83
g5074
sg76
(lp5090
g69
(g70
g71
NtRp5091
(dp5092
g74
(dp5093
g82
I5
ssg83
g5087
sg76
(lp5094
S'/home/mukul/web2py/applications/blogpost/sessions/127.0.0.1-db0d4806-b3c3-4347-967a-d3847597ee73'
p5095
asbasbasbag69
(g85
g71
NtRp5096
(dp5097
g74
(dp5098
sg83
g3767
sg76
(lp5099
g69
(g90
g71
NtRp5100
(dp5101
g74
(dp5102
g94
g95
ssg83
g5096
sg76
(lp5103
S'session_id'
p5104
asbag69
(g90
g71
NtRp5105
(dp5106
g74
(dp5107
g101
g102
ssg83
g5096
sg76
(lp5108
S':'
asbag69
(g90
g71
NtRp5109
(dp5110
g74
(dp5111
sg83
g5096
sg76
(lp5112
g69
(g70
g71
NtRp5113
(dp5114
g74
(dp5115
g82
I5
ssg83
g5109
sg76
(lp5116
S'127.0.0.1-db0d4806-b3c3-4347-967a-d3847597ee73'
p5117
asbasbasbag69
(g85
g71
NtRp5118
(dp5119
g74
(dp5120
sg83
g3767
sg76
(lp5121
g69
(g90
g71
NtRp5122
(dp5123
g74
(dp5124
g94
g95
ssg83
g5118
sg76
(lp5125
S'session_id_name'
p5126
asbag69
(g90
g71
NtRp5127
(dp5128
g74
(dp5129
g101
g102
ssg83
g5118
sg76
(lp5130
S':'
asbag69
(g90
g71
NtRp5131
(dp5132
g74
(dp5133
sg83
g5118
sg76
(lp5134
g69
(g70
g71
NtRp5135
(dp5136
g74
(dp5137
g82
I5
ssg83
g5131
sg76
(lp5138
g3824
asbasbasbag69
(g85
g71
NtRp5139
(dp5140
g74
(dp5141
sg83
g3767
sg76
(lp5142
g69
(g90
g71
NtRp5143
(dp5144
g74
(dp5145
g94
g95
ssg83
g5139
sg76
(lp5146
S'session_locked'
p5147
asbag69
(g90
g71
NtRp5148
(dp5149
g74
(dp5150
g101
g102
ssg83
g5139
sg76
(lp5151
S':'
asbag69
(g90
g71
NtRp5152
(dp5153
g74
(dp5154
sg83
g5139
sg76
(lp5155
g69
(g70
g71
NtRp5156
(dp5157
g74
(dp5158
g82
I5
ssg83
g5152
sg76
(lp5159
g2059
asbasbasbag69
(g85
g71
NtRp5160
(dp5161
g74
(dp5162
sg83
g3767
sg76
(lp5163
g69
(g90
g71
NtRp5164
(dp5165
g74
(dp5166
g94
g95
ssg83
g5160
sg76
(lp5167
S'session_new'
p5168
asbag69
(g90
g71
NtRp5169
(dp5170
g74
(dp5171
g101
g102
ssg83
g5160
sg76
(lp5172
S':'
asbag69
(g90
g71
NtRp5173
(dp5174
g74
(dp5175
sg83
g5160
sg76
(lp5176
g69
(g70
g71
NtRp5177
(dp5178
g74
(dp5179
g82
I5
ssg83
g5173
sg76
(lp5180
g112
asbasbasbag69
(g85
g71
NtRp5181
(dp5182
g74
(dp5183
sg83
g3767
sg76
(lp5184
g69
(g90
g71
NtRp5185
(dp5186
g74
(dp5187
g94
g95
ssg83
g5181
sg76
(lp5188
S'status'
p5189
asbag69
(g90
g71
NtRp5190
(dp5191
g74
(dp5192
g101
g102
ssg83
g5181
sg76
(lp5193
S':'
asbag69
(g90
g71
NtRp5194
(dp5195
g74
(dp5196
sg83
g5181
sg76
(lp5197
g69
(g70
g71
NtRp5198
(dp5199
g74
(dp5200
g82
I5
ssg83
g5194
sg76
(lp5201
S'200'
p5202
asbasbasbag69
(g85
g71
NtRp5203
(dp5204
g74
(dp5205
sg83
g3767
sg76
(lp5206
g69
(g90
g71
NtRp5207
(dp5208
g74
(dp5209
g94
g95
ssg83
g5203
sg76
(lp5210
S'subtitle'
p5211
asbag69
(g90
g71
NtRp5212
(dp5213
g74
(dp5214
g101
g102
ssg83
g5203
sg76
(lp5215
S':'
asbag69
(g90
g71
NtRp5216
(dp5217
g74
(dp5218
sg83
g5203
sg76
(lp5219
g69
(g70
g71
NtRp5220
(dp5221
g74
(dp5222
g82
I5
ssg83
g5216
sg76
(lp5223
g4272
(S's\r\x00\x00\x00customize me!'
tRp5224
asbasbasbag69
(g85
g71
NtRp5225
(dp5226
g74
(dp5227
sg83
g3767
sg76
(lp5228
g69
(g90
g71
NtRp5229
(dp5230
g74
(dp5231
g94
g95
ssg83
g5225
sg76
(lp5232
S'title'
p5233
asbag69
(g90
g71
NtRp5234
(dp5235
g74
(dp5236
g101
g102
ssg83
g5225
sg76
(lp5237
S':'
asbag69
(g90
g71
NtRp5238
(dp5239
g74
(dp5240
sg83
g5225
sg76
(lp5241
g69
(g70
g71
NtRp5242
(dp5243
g74
(dp5244
g82
I5
ssg83
g5238
sg76
(lp5245
S'Blogpost'
p5246
asbasbasbag69
(g85
g71
NtRp5247
(dp5248
g74
(dp5249
sg83
g3767
sg76
(lp5250
g69
(g90
g71
NtRp5251
(dp5252
g74
(dp5253
g94
g95
ssg83
g5247
sg76
(lp5254
g2723
asbag69
(g90
g71
NtRp5255
(dp5256
g74
(dp5257
g101
g102
ssg83
g5247
sg76
(lp5258
S':'
asbag69
(g90
g71
NtRp5259
(dp5260
g74
(dp5261
sg83
g5247
sg76
(lp5262
g69
(g70
g71
NtRp5263
(dp5264
g74
(dp5265
g82
I5
ssg83
g5259
sg76
(lp5266
g2736
asbasbasbag69
(g85
g71
NtRp5267
(dp5268
g74
(dp5269
sg83
g3767
sg76
(lp5270
g69
(g90
g71
NtRp5271
(dp5272
g74
(dp5273
g94
g95
ssg83
g5267
sg76
(lp5274
S'view'
p5275
asbag69
(g90
g71
NtRp5276
(dp5277
g74
(dp5278
g101
g102
ssg83
g5267
sg76
(lp5279
S':'
asbag69
(g90
g71
NtRp5280
(dp5281
g74
(dp5282
sg83
g5267
sg76
(lp5283
g69
(g70
g71
NtRp5284
(dp5285
g74
(dp5286
g82
I5
ssg83
g5280
sg76
(lp5287
S'default/show.html'
p5288
asbasbasbasbasbsS'locals'
p5289
(dp5290
g4
S"'/home/mukul/web2py/applications/blogpost/views/default/show.html'"
p5291
sg6
S'r"response.write(\'<!DOCTYPE html>\\n<!-- paulirish....ponse.write(\'\\n</body>\\n</html>\\n\', escape=False)"'
p5292
sssS'traceback'
p5293
S'Traceback (most recent call last):\n  File "/usr/lib/pymodules/python2.7/gluon/restricted.py", line 203, in restricted\n    ccode = compile2(code,layer)\n  File "/usr/lib/pymodules/python2.7/gluon/restricted.py", line 189, in compile2\n    return compile(code.rstrip().replace(\'\\r\\n\',\'\\n\')+\'\\n\', layer, \'exec\')\n  File "/home/mukul/web2py/applications/blogpost/views/default/show.html", line 76\n    for row in imag\n                  ^\nSyntaxError: invalid syntax\n'
p5294
s.