(dp1
S'output'
p2
S"<type 'exceptions.SyntaxError'> invalid syntax (show.html, line 76)"
p3
sS'layer'
p4
S'/home/mukul/web2py/applications/blogpost/views/default/show.html'
p5
sS'code'
p6
S'response.write(\'<!DOCTYPE html>\\n<!-- paulirish.com/2008/conditional-stylesheets-vs-css-hacks-answer-neither/ -->\\n<!--[if lt IE 7]><html class="ie ie6 ie-lte9 ie-lte8 ie-lte7 no-js" lang="\', escape=False)\nresponse.write(T.accepted_language or \'en\')\nresponse.write(\'"> <![endif]-->\\n<!--[if IE 7]><html class="ie ie7 ie-lte9 ie-lte8 ie-lte7 no-js" lang="\', escape=False)\nresponse.write(T.accepted_language or \'en\')\nresponse.write(\'"> <![endif]-->\\n<!--[if IE 8]><html class="ie ie8 ie-lte9 ie-lte8 no-js" lang="\', escape=False)\nresponse.write(T.accepted_language or \'en\')\nresponse.write(\'"> <![endif]-->\\n<!--[if IE 9]><html class="ie9 ie-lte9 no-js" lang="\', escape=False)\nresponse.write(T.accepted_language or \'en\')\nresponse.write(\'"> <![endif]-->\\n<!--[if (gt IE 9)|!(IE)]><!--> <html class="no-js" lang="\', escape=False)\nresponse.write(T.accepted_language or \'en\')\nresponse.write(\'"> <!--<![endif]-->\\n<head>\\n  <meta charset="utf-8" />\\n  <!-- www.phpied.com/conditional-comments-block-downloads/ -->\\n  <!-- Always force latest IE rendering engine\\n\\t   (even in intranet) & Chrome Frame\\n\\t   Remove this if you use the .htaccess -->\\n  <!--[if IE]>\\n    <meta http-equiv="X-UA-Compatible" content="IE=edge\', escape=False)\nresponse.write(not request.is_local and \',chrome=1\' or \'\')\nresponse.write(\'">\\n  <![endif]-->\\n  \\n  <title>\', escape=False)\nresponse.write(response.title or request.application)\nresponse.write(\'</title>\\n  \\n  <!-- http://dev.w3.org/html5/markup/meta.name.html -->\\n  <meta name="application-name" content="\', escape=False)\nresponse.write(request.application)\nresponse.write(\'" />\\n  \\n  <!-- Speaking of Google, don\\\'t forget to set your site up:\\n\\t   http://google.com/webmasters -->\\n  <meta name="google-site-verification" content="" />\\n\\n  <!--  Mobile Viewport Fix\\n\\t  j.mp/mobileviewport & davidbcalhoun.com/2010/viewport-metatag\\n\\t  device-width: Occupy full width of the screen in its current orientation\\n\\t  initial-scale = 1.0 retains dimensions instead of zooming out if page height > device height\\n\\t  user-scalable = yes allows the user to zoom in -->\\n  <meta name="viewport" content="width=device-width, initial-scale=1.0, user-scalable=yes">\\n  \\n  <!-- Place favicon.ico and apple-touch-icon.png in the root of your domain and delete these references -->\\n  <link rel="shortcut icon" href="\', escape=False)\nresponse.write(URL(\'static\',\'favicon.ico\'))\nresponse.write(\'" type="image/x-icon">\\n  <link rel="apple-touch-icon" href="\', escape=False)\nresponse.write(URL(\'static\',\'favicon.png\'))\nresponse.write(\'">\\n\\n  <!-- All JavaScript at the bottom, except for Modernizr which enables \\n\\t   HTML5 elements & feature detects -->\\n  <script src="\', escape=False)\nresponse.write(URL(\'static\',\'js/modernizr.custom.js\'))\nresponse.write(\'"></script>  \\n\\n  <!-- include stylesheets -->\\n  \', escape=False)\nresponse.files.append(URL(\'static\',\'css/skeleton.css\'))\nresponse.files.append(URL(\'static\',\'css/web2py.css\'))\nresponse.files.append(URL(\'static\',\'css/superfish.css\'))\nresponse.files.append(URL(\'static\',\'js/superfish.js\'))\nresponse.write(\'\\n\\n  \', escape=False)\nresponse.write(\'<script type="text/javascript"><!--\\n    // These variables are used by the web2py_ajax_init function in web2py_ajax.js (which is loaded below).\\n    var w2p_ajax_confirm_message = "\', escape=False)\nresponse.write(T(\'Are you sure you want to delete this object?\'))\nresponse.write(\'";\\n    var w2p_ajax_date_format = "\', escape=False)\nresponse.write(T(\'%Y-%m-%d\'))\nresponse.write(\'";\\n    var w2p_ajax_datetime_format = "\', escape=False)\nresponse.write(T(\'%Y-%m-%d %H:%M:%S\'))\nresponse.write(\'";\\n    //--></script>\\n\', escape=False)\nresponse.files.insert(0,URL(\'static\',\'js/jquery.js\'))\nresponse.files.insert(1,URL(\'static\',\'css/calendar.css\'))\nresponse.files.insert(2,URL(\'static\',\'js/calendar.js\'))\nresponse.files.insert(3,URL(\'static\',\'js/web2py.js\'))\nresponse.include_meta()\nresponse.include_files()\nresponse.write(\'\\n\', escape=False)\nresponse.write(\'\\n\\n  <script type="text/javascript">\\n    jQuery(function(){ jQuery(\\\'ul.sf-menu\\\').supersubs({minWidth:12,maxWidth:30,extraWidth:3}).superfish(); });\\n  </script>\\n\\n  \', escape=False)\n# using sidebars need to know what sidebar you want to use\nleft_sidebar_enabled = globals().get(\'left_sidebar_enabled\',False)\nright_sidebar_enabled = globals().get(\'right_sidebar_enabled\',False)\nmiddle_columns = {0:\'sixteen\',1:\'twelve\',2:\'eight\'}[\n(left_sidebar_enabled and 1 or 0)+(right_sidebar_enabled and 1 or 0)]\nresponse.write(\'\\n\\n  <!-- uncomment here to load jquery-ui\\n  <link rel="stylesheet" href="http://ajax.googleapis.com/ajax/libs/jqueryui/1.8.16/themes/base/jquery-ui.css" type="text/css" media="all" />\\n  <script src="http://ajax.googleapis.com/ajax/libs/jqueryui/1.8.16/jquery-ui.min.js" type="text/javascript"></script>\\n  uncomment to load jquery-ui //-->\\n</head>\\n<body>\\n  <div class="wrapper"><!-- for sticky footer -->\\n  \\n    <div class="topbar">\\n      <div class="container">    \\n        <div class="sixteen columns">\\n          <div id="navbar">\', escape=False)\nresponse.write(\'auth\' in globals() and auth.navbar(separators=(\' \',\' | \',\'\')))\nresponse.write(\'</div>\\n          \', escape=False)\nis_mobile=request.user_agent().is_mobile\nresponse.write(\'\\n          <div id="menu">\', escape=False)\nresponse.write(MENU(response.menu, _class=\'mobile-menu\' if is_mobile else \'sf-menu\',mobile=is_mobile))\nresponse.write(\'\\n          </div>\\n        </div>\\n      </div>\\n    </div><!-- topbar -->\\n    \\n    <div class="flash">\', escape=False)\nresponse.write(response.flash or \'\')\nresponse.write(\'</div>\\n    \\n    <div class="header">\\n      <div class="container">         \\n        <div class="sixteen columns">\\n          <h1 class="remove-bottom" style="margin-top: .5em;">\\n          \', escape=False)\nresponse.write(response.title or request.application)\nresponse.write(\'\\n          </h1>\\n          <h5>\', escape=False)\nresponse.write(response.subtitle or \'\')\nresponse.write(\'</h5>\\n        </div>\\n        <div class="sixteen columns">\\n          <div class="statusbar clearfix">\\n            \', escape=False)\nresponse.write(\'\\n            <div class="breadcrumbs">\', escape=False)\nresponse.write(request.function.replace(\'_\', \' \').title())\nresponse.write(\'</div>\\n            \', escape=False)\nresponse.write(\'\\n            <!-- AddToAny BEGIN -->\\n            <div style="float:right; padding-top: .25em;" class="a2a_kit a2a_default_style">\\n            <a class="a2a_dd" href="http://www.addtoany.com/share_save">Share</a></div>\\n            <script type="text/javascript" src="http://static.addtoany.com/menu/page.js"></script>\\n            <!-- AddToAny END -->\\n          </div>\\n        </div>\\n      </div>\\n    </div>\\n\\n    <div class="main">\\n      <div class="container">                 \\n        \', escape=False)\nif left_sidebar_enabled:\n    response.write(\'\\n        <div class="four columns left-sidebar">\\n          \', escape=False)\n    response.write(\'\\n          <h3>Left Sidebar</h3>\\n          <p></p>\\n          \', escape=False)\n    response.write(\'\\n        </div>\\n        \', escape=False)\n    pass\nresponse.write(\'\\n        \\n        <div class="\', escape=False)\nresponse.write(middle_columns)\nresponse.write(\' columns center">\\n          \', escape=False)\nresponse.write(\'\\n          \', escape=False)\nresponse.write(\'\\n<h1>All Blogs</h1>\\n\', escape=False)\nfor row in imag\nresponse.write(\'\\n<ul>\\n<li> \', escape=False)\nrow.title\nresponse.write(\'</li>\\n<li> \', escape=False)\nrow.image\nresponse.write(\'</li>\\n<li> \', escape=False)\nrow.data\nresponse.write(\'</li>\\n<li> \', escape=False)\nrow.date_time\nresponse.write(\'</li>\\n\\n\\n\', escape=False)\npass\nresponse.write(\'\\n\', escape=False)\nresponse.write(BEAUTIFY(response._vars))\nresponse.write(\'\\n\', escape=False)\nresponse.write(\'\\n          \', escape=False)\nresponse.write(\'\\n        </div>\\n        \\n        \', escape=False)\nif right_sidebar_enabled:\n    response.write(\'\\n        <div class="four columns">\\n          \', escape=False)\n    response.write(\'\\n          <h3>Right Sidebar</h3>\\n          <p></p>\\n          \', escape=False)\n    response.write(\'\\n        </div>    \\n        \', escape=False)\n    pass\nresponse.write(\'\\n        \\n      </div><!-- container -->\\n    </div><!-- main -->\\n    \\n    <div class="push"></div>\\n  </div><!-- wrapper -->\\n\\n  <div class="footer">\\n    <div class="container">    \\n      <div class="sixteen columns">\\n        \', escape=False)\nresponse.write(\' <!-- this is default footer -->\\n        <div class="footer-content clearfix">\\n          <div class="copyright">\', escape=False)\nresponse.write(T(\'Copyright\'))\nresponse.write(\' &#169; 2011</div>\\n          <div style="float: right;">\\n            <a href="http://www.web2py.com/">\\n            <img style="padding-bottom: 0;" src="\', escape=False)\nresponse.write(URL(\'static\',\'images/poweredby.png\'))\nresponse.write(\'"/>\\n            </a>\\n          </div>\\n        </div>\\n        \', escape=False)\nresponse.write(\'\\t\\n      </div>\\n    </div><!-- container -->\\n  </div><!-- footer -->\\n  \\n  <!--[if lt IE 7 ]>\\n\\t<script src="\', escape=False)\nresponse.write(URL(\'static\',\'js/dd_belatedpng.js\'))\nresponse.write(\'"></script>\\n\\t<script> DD_belatedPNG.fix(\\\'img, .png_bg\\\'); //fix any <img> or .png_bg background-images </script>\\n\\t<![endif]-->\\n  \', escape=False)\nif response.google_analytics_id:\n    response.write(\'<script type="text/javascript"> var _gaq = _gaq || []; _gaq.push([\\\'_setAccount\\\', \\\'\', escape=False)\n    response.write(response.google_analytics_id)\n    response.write("\']); _gaq.push([\'_trackPageview\']); (function() { var ga = document.createElement(\'script\'); ga.type = \'text/javascript\'; ga.async = true; ga.src = (\'https:\' == document.location.protocol ? \'https://ssl\' : \'http://www\') + \'.google-analytics.com/ga.js\'; var s = document.getElementsByTagName(\'script\')[0]; s.parentNode.insertBefore(ga, s); })(); </script> ", escape=False)\n    pass\nresponse.write(\'\\n</body>\\n</html>\\n\', escape=False)'
p7
sS'snapshot'
p8
(dp9
S'exception'
p10
(dp11
S'__getslice__'
p12
S"<method-wrapper '__getslice__' of exceptions.SyntaxError object>"
p13
sS'text'
p14
S"'for row in imag\\n'"
p15
sS'__str__'
p16
S"<method-wrapper '__str__' of exceptions.SyntaxError object>"
p17
sS'__reduce__'
p18
S'<built-in method __reduce__ of exceptions.SyntaxError object>'
p19
sS'__dict__'
p20
S'{}'
p21
sS'__sizeof__'
p22
S'<built-in method __sizeof__ of exceptions.SyntaxError object>'
p23
sS'__init__'
p24
S"<method-wrapper '__init__' of exceptions.SyntaxError object>"
p25
sS'__setattr__'
p26
S"<method-wrapper '__setattr__' of exceptions.SyntaxError object>"
p27
sS'__reduce_ex__'
p28
S'<built-in method __reduce_ex__ of exceptions.SyntaxError object>'
p29
sS'__new__'
p30
S'<built-in method __new__ of type object>'
p31
sS'__format__'
p32
S'<built-in method __format__ of exceptions.SyntaxError object>'
p33
sS'__class__'
p34
S"<type 'exceptions.SyntaxError'>"
p35
sS'filename'
p36
S"'/home/mukul/web2py/applications/blogpost/views/default/show.html'"
p37
sS'lineno'
p38
S'76'
p39
sS'msg'
p40
S"'invalid syntax'"
p41
sS'__doc__'
p42
S"'Invalid syntax.'"
p43
sS'__getitem__'
p44
S"<method-wrapper '__getitem__' of exceptions.SyntaxError object>"
p45
sS'__setstate__'
p46
S'<built-in method __setstate__ of exceptions.SyntaxError object>'
p47
sS'__getattribute__'
p48
S"<method-wrapper '__getattribute__' of exceptions.SyntaxError object>"
p49
sS'print_file_and_line'
p50
S'None'
p51
sS'args'
p52
S"('invalid syntax', ('/home/mukul/web2py/applications/blogpost/views/default/show.html', 76, 16, 'for row in imag\\n'))"
p53
sS'__subclasshook__'
p54
S'<built-in method __subclasshook__ of type object>'
p55
sS'offset'
p56
S'16'
p57
sS'__unicode__'
p58
S'<built-in method __unicode__ of exceptions.SyntaxError object>'
p59
sS'__delattr__'
p60
S"<method-wrapper '__delattr__' of exceptions.SyntaxError object>"
p61
sS'__repr__'
p62
S"<method-wrapper '__repr__' of exceptions.SyntaxError object>"
p63
sS'__hash__'
p64
S"<method-wrapper '__hash__' of exceptions.SyntaxError object>"
p65
ssS'evalue'
p66
S'invalid syntax (show.html, line 76)'
p67
sS'request'
p68
ccopy_reg
_reconstructor
p69
(cgluon.html
BEAUTIFY
p70
c__builtin__
object
p71
NtRp72
(dp73
S'attributes'
p74
(dp75
sS'components'
p76
(lp77
g69
(cgluon.html
TABLE
p78
g71
NtRp79
(dp80
g74
(dp81
S'level'
p82
I5
ssS'parent'
p83
Nsg76
(lp84
g69
(cgluon.html
TR
p85
g71
NtRp86
(dp87
g74
(dp88
sg83
g79
sg76
(lp89
g69
(cgluon.html
TD
p90
g71
NtRp91
(dp92
g74
(dp93
S'_style'
p94
S'font-weight:bold;vertical-align:top'
p95
ssg83
g86
sg76
(lp96
S'ajax'
p97
asbag69
(g90
g71
NtRp98
(dp99
g74
(dp100
S'_valign'
p101
S'top'
p102
ssg83
g86
sg76
(lp103
S':'
asbag69
(g90
g71
NtRp104
(dp105
g74
(dp106
sg83
g86
sg76
(lp107
g69
(g70
g71
NtRp108
(dp109
g74
(dp110
g82
I5
ssg83
g104
sg76
(lp111
S'False'
p112
asbasbasbag69
(g85
g71
NtRp113
(dp114
g74
(dp115
sg83
g79
sg76
(lp116
g69
(g90
g71
NtRp117
(dp118
g74
(dp119
g94
g95
ssg83
g113
sg76
(lp120
S'application'
p121
asbag69
(g90
g71
NtRp122
(dp123
g74
(dp124
g101
g102
ssg83
g113
sg76
(lp125
S':'
asbag69
(g90
g71
NtRp126
(dp127
g74
(dp128
sg83
g113
sg76
(lp129
g69
(g70
g71
NtRp130
(dp131
g74
(dp132
g82
I5
ssg83
g126
sg76
(lp133
S'blogpost'
p134
asbasbasbag69
(g85
g71
NtRp135
(dp136
g74
(dp137
sg83
g79
sg76
(lp138
g69
(g90
g71
NtRp139
(dp140
g74
(dp141
g94
g95
ssg83
g135
sg76
(lp142
g52
asbag69
(g90
g71
NtRp143
(dp144
g74
(dp145
g101
g102
ssg83
g135
sg76
(lp146
S':'
asbag69
(g90
g71
NtRp147
(dp148
g74
(dp149
sg83
g135
sg76
(lp150
g69
(g70
g71
NtRp151
(dp152
g74
(dp153
g82
I5
ssg83
g147
sg76
(lp154
g69
(g78
g71
NtRp155
(dp156
g74
(dp157
g82
I4
ssg83
Nsg76
(lp158
sbasbasbasbag69
(g85
g71
NtRp159
(dp160
g74
(dp161
sg83
g79
sg76
(lp162
g69
(g90
g71
NtRp163
(dp164
g74
(dp165
g94
g95
ssg83
g159
sg76
(lp166
S'body'
p167
asbag69
(g90
g71
NtRp168
(dp169
g74
(dp170
g101
g102
ssg83
g159
sg76
(lp171
S':'
asbag69
(g90
g71
NtRp172
(dp173
g74
(dp174
sg83
g159
sg76
(lp175
g69
(g70
g71
NtRp176
(dp177
g74
(dp178
g82
I5
ssg83
g172
sg76
(lp179
S'<cStringIO.StringO object at 0xaa0452e0>'
p180
asbasbasbag69
(g85
g71
NtRp181
(dp182
g74
(dp183
sg83
g79
sg76
(lp184
g69
(g90
g71
NtRp185
(dp186
g74
(dp187
g94
g95
ssg83
g181
sg76
(lp188
S'client'
p189
asbag69
(g90
g71
NtRp190
(dp191
g74
(dp192
g101
g102
ssg83
g181
sg76
(lp193
S':'
asbag69
(g90
g71
NtRp194
(dp195
g74
(dp196
sg83
g181
sg76
(lp197
g69
(g70
g71
NtRp198
(dp199
g74
(dp200
g82
I5
ssg83
g194
sg76
(lp201
S'127.0.0.1'
p202
asbasbasbag69
(g85
g71
NtRp203
(dp204
g74
(dp205
sg83
g79
sg76
(lp206
g69
(g90
g71
NtRp207
(dp208
g74
(dp209
g94
g95
ssg83
g203
sg76
(lp210
S'controller'
p211
asbag69
(g90
g71
NtRp212
(dp213
g74
(dp214
g101
g102
ssg83
g203
sg76
(lp215
S':'
asbag69
(g90
g71
NtRp216
(dp217
g74
(dp218
sg83
g203
sg76
(lp219
g69
(g70
g71
NtRp220
(dp221
g74
(dp222
g82
I5
ssg83
g216
sg76
(lp223
S'default'
p224
asbasbasbag69
(g85
g71
NtRp225
(dp226
g74
(dp227
sg83
g79
sg76
(lp228
g69
(g90
g71
NtRp229
(dp230
g74
(dp231
g94
g95
ssg83
g225
sg76
(lp232
S'cookies'
p233
asbag69
(g90
g71
NtRp234
(dp235
g74
(dp236
g101
g102
ssg83
g225
sg76
(lp237
S':'
asbag69
(g90
g71
NtRp238
(dp239
g74
(dp240
sg83
g225
sg76
(lp241
g69
(g70
g71
NtRp242
(dp243
g74
(dp244
g82
I5
ssg83
g238
sg76
(lp245
g69
(g78
g71
NtRp246
(dp247
g74
(dp248
g82
I4
ssg83
Nsg76
(lp249
g69
(g85
g71
NtRp250
(dp251
g74
(dp252
sg83
g246
sg76
(lp253
g69
(g90
g71
NtRp254
(dp255
g74
(dp256
g94
g95
ssg83
g250
sg76
(lp257
S'session_id_admin'
p258
asbag69
(g90
g71
NtRp259
(dp260
g74
(dp261
g101
g102
ssg83
g250
sg76
(lp262
S':'
asbag69
(g90
g71
NtRp263
(dp264
g74
(dp265
sg83
g250
sg76
(lp266
g69
(g70
g71
NtRp267
(dp268
g74
(dp269
g82
I4
ssg83
g263
sg76
(lp270
g69
(g78
g71
NtRp271
(dp272
g74
(dp273
g82
I3
ssg83
Nsg76
(lp274
g69
(g85
g71
NtRp275
(dp276
g74
(dp277
sg83
g271
sg76
(lp278
g69
(g90
g71
NtRp279
(dp280
g74
(dp281
g94
g95
ssg83
g275
sg76
(lp282
S'comment'
p283
asbag69
(g90
g71
NtRp284
(dp285
g74
(dp286
g101
g102
ssg83
g275
sg76
(lp287
S':'
asbag69
(g90
g71
NtRp288
(dp289
g74
(dp290
sg83
g275
sg76
(lp291
g69
(g70
g71
NtRp292
(dp293
g74
(dp294
g82
I3
ssg83
g288
sg76
(lp295
S''
asbasbasbag69
(g85
g71
NtRp296
(dp297
g74
(dp298
sg83
g271
sg76
(lp299
g69
(g90
g71
NtRp300
(dp301
g74
(dp302
g94
g95
ssg83
g296
sg76
(lp303
S'domain'
p304
asbag69
(g90
g71
NtRp305
(dp306
g74
(dp307
g101
g102
ssg83
g296
sg76
(lp308
S':'
asbag69
(g90
g71
NtRp309
(dp310
g74
(dp311
sg83
g296
sg76
(lp312
g69
(g70
g71
NtRp313
(dp314
g74
(dp315
g82
I3
ssg83
g309
sg76
(lp316
S''
asbasbasbag69
(g85
g71
NtRp317
(dp318
g74
(dp319
sg83
g271
sg76
(lp320
g69
(g90
g71
NtRp321
(dp322
g74
(dp323
g94
g95
ssg83
g317
sg76
(lp324
S'expires'
p325
asbag69
(g90
g71
NtRp326
(dp327
g74
(dp328
g101
g102
ssg83
g317
sg76
(lp329
S':'
asbag69
(g90
g71
NtRp330
(dp331
g74
(dp332
sg83
g317
sg76
(lp333
g69
(g70
g71
NtRp334
(dp335
g74
(dp336
g82
I3
ssg83
g330
sg76
(lp337
S''
asbasbasbag69
(g85
g71
NtRp338
(dp339
g74
(dp340
sg83
g271
sg76
(lp341
g69
(g90
g71
NtRp342
(dp343
g74
(dp344
g94
g95
ssg83
g338
sg76
(lp345
S'httponly'
p346
asbag69
(g90
g71
NtRp347
(dp348
g74
(dp349
g101
g102
ssg83
g338
sg76
(lp350
S':'
asbag69
(g90
g71
NtRp351
(dp352
g74
(dp353
sg83
g338
sg76
(lp354
g69
(g70
g71
NtRp355
(dp356
g74
(dp357
g82
I3
ssg83
g351
sg76
(lp358
S''
asbasbasbag69
(g85
g71
NtRp359
(dp360
g74
(dp361
sg83
g271
sg76
(lp362
g69
(g90
g71
NtRp363
(dp364
g74
(dp365
g94
g95
ssg83
g359
sg76
(lp366
S'max-age'
p367
asbag69
(g90
g71
NtRp368
(dp369
g74
(dp370
g101
g102
ssg83
g359
sg76
(lp371
S':'
asbag69
(g90
g71
NtRp372
(dp373
g74
(dp374
sg83
g359
sg76
(lp375
g69
(g70
g71
NtRp376
(dp377
g74
(dp378
g82
I3
ssg83
g372
sg76
(lp379
S''
asbasbasbag69
(g85
g71
NtRp380
(dp381
g74
(dp382
sg83
g271
sg76
(lp383
g69
(g90
g71
NtRp384
(dp385
g74
(dp386
g94
g95
ssg83
g380
sg76
(lp387
S'path'
p388
asbag69
(g90
g71
NtRp389
(dp390
g74
(dp391
g101
g102
ssg83
g380
sg76
(lp392
S':'
asbag69
(g90
g71
NtRp393
(dp394
g74
(dp395
sg83
g380
sg76
(lp396
g69
(g70
g71
NtRp397
(dp398
g74
(dp399
g82
I3
ssg83
g393
sg76
(lp400
S''
asbasbasbag69
(g85
g71
NtRp401
(dp402
g74
(dp403
sg83
g271
sg76
(lp404
g69
(g90
g71
NtRp405
(dp406
g74
(dp407
g94
g95
ssg83
g401
sg76
(lp408
S'secure'
p409
asbag69
(g90
g71
NtRp410
(dp411
g74
(dp412
g101
g102
ssg83
g401
sg76
(lp413
S':'
asbag69
(g90
g71
NtRp414
(dp415
g74
(dp416
sg83
g401
sg76
(lp417
g69
(g70
g71
NtRp418
(dp419
g74
(dp420
g82
I3
ssg83
g414
sg76
(lp421
S''
asbasbasbag69
(g85
g71
NtRp422
(dp423
g74
(dp424
sg83
g271
sg76
(lp425
g69
(g90
g71
NtRp426
(dp427
g74
(dp428
g94
g95
ssg83
g422
sg76
(lp429
S'version'
p430
asbag69
(g90
g71
NtRp431
(dp432
g74
(dp433
g101
g102
ssg83
g422
sg76
(lp434
S':'
asbag69
(g90
g71
NtRp435
(dp436
g74
(dp437
sg83
g422
sg76
(lp438
g69
(g70
g71
NtRp439
(dp440
g74
(dp441
g82
I3
ssg83
g435
sg76
(lp442
S''
asbasbasbasbasbasbasbag69
(g85
g71
NtRp443
(dp444
g74
(dp445
sg83
g246
sg76
(lp446
g69
(g90
g71
NtRp447
(dp448
g74
(dp449
g94
g95
ssg83
g443
sg76
(lp450
S'session_id_blogpost'
p451
asbag69
(g90
g71
NtRp452
(dp453
g74
(dp454
g101
g102
ssg83
g443
sg76
(lp455
S':'
asbag69
(g90
g71
NtRp456
(dp457
g74
(dp458
sg83
g443
sg76
(lp459
g69
(g70
g71
NtRp460
(dp461
g74
(dp462
g82
I4
ssg83
g456
sg76
(lp463
g69
(g78
g71
NtRp464
(dp465
g74
(dp466
g82
I3
ssg83
Nsg76
(lp467
g69
(g85
g71
NtRp468
(dp469
g74
(dp470
sg83
g464
sg76
(lp471
g69
(g90
g71
NtRp472
(dp473
g74
(dp474
g94
g95
ssg83
g468
sg76
(lp475
g283
asbag69
(g90
g71
NtRp476
(dp477
g74
(dp478
g101
g102
ssg83
g468
sg76
(lp479
S':'
asbag69
(g90
g71
NtRp480
(dp481
g74
(dp482
sg83
g468
sg76
(lp483
g69
(g70
g71
NtRp484
(dp485
g74
(dp486
g82
I3
ssg83
g480
sg76
(lp487
S''
asbasbasbag69
(g85
g71
NtRp488
(dp489
g74
(dp490
sg83
g464
sg76
(lp491
g69
(g90
g71
NtRp492
(dp493
g74
(dp494
g94
g95
ssg83
g488
sg76
(lp495
g304
asbag69
(g90
g71
NtRp496
(dp497
g74
(dp498
g101
g102
ssg83
g488
sg76
(lp499
S':'
asbag69
(g90
g71
NtRp500
(dp501
g74
(dp502
sg83
g488
sg76
(lp503
g69
(g70
g71
NtRp504
(dp505
g74
(dp506
g82
I3
ssg83
g500
sg76
(lp507
S''
asbasbasbag69
(g85
g71
NtRp508
(dp509
g74
(dp510
sg83
g464
sg76
(lp511
g69
(g90
g71
NtRp512
(dp513
g74
(dp514
g94
g95
ssg83
g508
sg76
(lp515
g325
asbag69
(g90
g71
NtRp516
(dp517
g74
(dp518
g101
g102
ssg83
g508
sg76
(lp519
S':'
asbag69
(g90
g71
NtRp520
(dp521
g74
(dp522
sg83
g508
sg76
(lp523
g69
(g70
g71
NtRp524
(dp525
g74
(dp526
g82
I3
ssg83
g520
sg76
(lp527
S''
asbasbasbag69
(g85
g71
NtRp528
(dp529
g74
(dp530
sg83
g464
sg76
(lp531
g69
(g90
g71
NtRp532
(dp533
g74
(dp534
g94
g95
ssg83
g528
sg76
(lp535
g346
asbag69
(g90
g71
NtRp536
(dp537
g74
(dp538
g101
g102
ssg83
g528
sg76
(lp539
S':'
asbag69
(g90
g71
NtRp540
(dp541
g74
(dp542
sg83
g528
sg76
(lp543
g69
(g70
g71
NtRp544
(dp545
g74
(dp546
g82
I3
ssg83
g540
sg76
(lp547
S''
asbasbasbag69
(g85
g71
NtRp548
(dp549
g74
(dp550
sg83
g464
sg76
(lp551
g69
(g90
g71
NtRp552
(dp553
g74
(dp554
g94
g95
ssg83
g548
sg76
(lp555
g367
asbag69
(g90
g71
NtRp556
(dp557
g74
(dp558
g101
g102
ssg83
g548
sg76
(lp559
S':'
asbag69
(g90
g71
NtRp560
(dp561
g74
(dp562
sg83
g548
sg76
(lp563
g69
(g70
g71
NtRp564
(dp565
g74
(dp566
g82
I3
ssg83
g560
sg76
(lp567
S''
asbasbasbag69
(g85
g71
NtRp568
(dp569
g74
(dp570
sg83
g464
sg76
(lp571
g69
(g90
g71
NtRp572
(dp573
g74
(dp574
g94
g95
ssg83
g568
sg76
(lp575
g388
asbag69
(g90
g71
NtRp576
(dp577
g74
(dp578
g101
g102
ssg83
g568
sg76
(lp579
S':'
asbag69
(g90
g71
NtRp580
(dp581
g74
(dp582
sg83
g568
sg76
(lp583
g69
(g70
g71
NtRp584
(dp585
g74
(dp586
g82
I3
ssg83
g580
sg76
(lp587
S''
asbasbasbag69
(g85
g71
NtRp588
(dp589
g74
(dp590
sg83
g464
sg76
(lp591
g69
(g90
g71
NtRp592
(dp593
g74
(dp594
g94
g95
ssg83
g588
sg76
(lp595
g409
asbag69
(g90
g71
NtRp596
(dp597
g74
(dp598
g101
g102
ssg83
g588
sg76
(lp599
S':'
asbag69
(g90
g71
NtRp600
(dp601
g74
(dp602
sg83
g588
sg76
(lp603
g69
(g70
g71
NtRp604
(dp605
g74
(dp606
g82
I3
ssg83
g600
sg76
(lp607
S''
asbasbasbag69
(g85
g71
NtRp608
(dp609
g74
(dp610
sg83
g464
sg76
(lp611
g69
(g90
g71
NtRp612
(dp613
g74
(dp614
g94
g95
ssg83
g608
sg76
(lp615
g430
asbag69
(g90
g71
NtRp616
(dp617
g74
(dp618
g101
g102
ssg83
g608
sg76
(lp619
S':'
asbag69
(g90
g71
NtRp620
(dp621
g74
(dp622
sg83
g608
sg76
(lp623
g69
(g70
g71
NtRp624
(dp625
g74
(dp626
g82
I3
ssg83
g620
sg76
(lp627
S''
asbasbasbasbasbasbasbag69
(g85
g71
NtRp628
(dp629
g74
(dp630
sg83
g246
sg76
(lp631
g69
(g90
g71
NtRp632
(dp633
g74
(dp634
g94
g95
ssg83
g628
sg76
(lp635
S'session_id_go_to_app'
p636
asbag69
(g90
g71
NtRp637
(dp638
g74
(dp639
g101
g102
ssg83
g628
sg76
(lp640
S':'
asbag69
(g90
g71
NtRp641
(dp642
g74
(dp643
sg83
g628
sg76
(lp644
g69
(g70
g71
NtRp645
(dp646
g74
(dp647
g82
I4
ssg83
g641
sg76
(lp648
g69
(g78
g71
NtRp649
(dp650
g74
(dp651
g82
I3
ssg83
Nsg76
(lp652
g69
(g85
g71
NtRp653
(dp654
g74
(dp655
sg83
g649
sg76
(lp656
g69
(g90
g71
NtRp657
(dp658
g74
(dp659
g94
g95
ssg83
g653
sg76
(lp660
g283
asbag69
(g90
g71
NtRp661
(dp662
g74
(dp663
g101
g102
ssg83
g653
sg76
(lp664
S':'
asbag69
(g90
g71
NtRp665
(dp666
g74
(dp667
sg83
g653
sg76
(lp668
g69
(g70
g71
NtRp669
(dp670
g74
(dp671
g82
I3
ssg83
g665
sg76
(lp672
S''
asbasbasbag69
(g85
g71
NtRp673
(dp674
g74
(dp675
sg83
g649
sg76
(lp676
g69
(g90
g71
NtRp677
(dp678
g74
(dp679
g94
g95
ssg83
g673
sg76
(lp680
g304
asbag69
(g90
g71
NtRp681
(dp682
g74
(dp683
g101
g102
ssg83
g673
sg76
(lp684
S':'
asbag69
(g90
g71
NtRp685
(dp686
g74
(dp687
sg83
g673
sg76
(lp688
g69
(g70
g71
NtRp689
(dp690
g74
(dp691
g82
I3
ssg83
g685
sg76
(lp692
S''
asbasbasbag69
(g85
g71
NtRp693
(dp694
g74
(dp695
sg83
g649
sg76
(lp696
g69
(g90
g71
NtRp697
(dp698
g74
(dp699
g94
g95
ssg83
g693
sg76
(lp700
g325
asbag69
(g90
g71
NtRp701
(dp702
g74
(dp703
g101
g102
ssg83
g693
sg76
(lp704
S':'
asbag69
(g90
g71
NtRp705
(dp706
g74
(dp707
sg83
g693
sg76
(lp708
g69
(g70
g71
NtRp709
(dp710
g74
(dp711
g82
I3
ssg83
g705
sg76
(lp712
S''
asbasbasbag69
(g85
g71
NtRp713
(dp714
g74
(dp715
sg83
g649
sg76
(lp716
g69
(g90
g71
NtRp717
(dp718
g74
(dp719
g94
g95
ssg83
g713
sg76
(lp720
g346
asbag69
(g90
g71
NtRp721
(dp722
g74
(dp723
g101
g102
ssg83
g713
sg76
(lp724
S':'
asbag69
(g90
g71
NtRp725
(dp726
g74
(dp727
sg83
g713
sg76
(lp728
g69
(g70
g71
NtRp729
(dp730
g74
(dp731
g82
I3
ssg83
g725
sg76
(lp732
S''
asbasbasbag69
(g85
g71
NtRp733
(dp734
g74
(dp735
sg83
g649
sg76
(lp736
g69
(g90
g71
NtRp737
(dp738
g74
(dp739
g94
g95
ssg83
g733
sg76
(lp740
g367
asbag69
(g90
g71
NtRp741
(dp742
g74
(dp743
g101
g102
ssg83
g733
sg76
(lp744
S':'
asbag69
(g90
g71
NtRp745
(dp746
g74
(dp747
sg83
g733
sg76
(lp748
g69
(g70
g71
NtRp749
(dp750
g74
(dp751
g82
I3
ssg83
g745
sg76
(lp752
S''
asbasbasbag69
(g85
g71
NtRp753
(dp754
g74
(dp755
sg83
g649
sg76
(lp756
g69
(g90
g71
NtRp757
(dp758
g74
(dp759
g94
g95
ssg83
g753
sg76
(lp760
g388
asbag69
(g90
g71
NtRp761
(dp762
g74
(dp763
g101
g102
ssg83
g753
sg76
(lp764
S':'
asbag69
(g90
g71
NtRp765
(dp766
g74
(dp767
sg83
g753
sg76
(lp768
g69
(g70
g71
NtRp769
(dp770
g74
(dp771
g82
I3
ssg83
g765
sg76
(lp772
S''
asbasbasbag69
(g85
g71
NtRp773
(dp774
g74
(dp775
sg83
g649
sg76
(lp776
g69
(g90
g71
NtRp777
(dp778
g74
(dp779
g94
g95
ssg83
g773
sg76
(lp780
g409
asbag69
(g90
g71
NtRp781
(dp782
g74
(dp783
g101
g102
ssg83
g773
sg76
(lp784
S':'
asbag69
(g90
g71
NtRp785
(dp786
g74
(dp787
sg83
g773
sg76
(lp788
g69
(g70
g71
NtRp789
(dp790
g74
(dp791
g82
I3
ssg83
g785
sg76
(lp792
S''
asbasbasbag69
(g85
g71
NtRp793
(dp794
g74
(dp795
sg83
g649
sg76
(lp796
g69
(g90
g71
NtRp797
(dp798
g74
(dp799
g94
g95
ssg83
g793
sg76
(lp800
g430
asbag69
(g90
g71
NtRp801
(dp802
g74
(dp803
g101
g102
ssg83
g793
sg76
(lp804
S':'
asbag69
(g90
g71
NtRp805
(dp806
g74
(dp807
sg83
g793
sg76
(lp808
g69
(g70
g71
NtRp809
(dp810
g74
(dp811
g82
I3
ssg83
g805
sg76
(lp812
S''
asbasbasbasbasbasbasbag69
(g85
g71
NtRp813
(dp814
g74
(dp815
sg83
g246
sg76
(lp816
g69
(g90
g71
NtRp817
(dp818
g74
(dp819
g94
g95
ssg83
g813
sg76
(lp820
S'session_id_mukul'
p821
asbag69
(g90
g71
NtRp822
(dp823
g74
(dp824
g101
g102
ssg83
g813
sg76
(lp825
S':'
asbag69
(g90
g71
NtRp826
(dp827
g74
(dp828
sg83
g813
sg76
(lp829
g69
(g70
g71
NtRp830
(dp831
g74
(dp832
g82
I4
ssg83
g826
sg76
(lp833
g69
(g78
g71
NtRp834
(dp835
g74
(dp836
g82
I3
ssg83
Nsg76
(lp837
g69
(g85
g71
NtRp838
(dp839
g74
(dp840
sg83
g834
sg76
(lp841
g69
(g90
g71
NtRp842
(dp843
g74
(dp844
g94
g95
ssg83
g838
sg76
(lp845
g283
asbag69
(g90
g71
NtRp846
(dp847
g74
(dp848
g101
g102
ssg83
g838
sg76
(lp849
S':'
asbag69
(g90
g71
NtRp850
(dp851
g74
(dp852
sg83
g838
sg76
(lp853
g69
(g70
g71
NtRp854
(dp855
g74
(dp856
g82
I3
ssg83
g850
sg76
(lp857
S''
asbasbasbag69
(g85
g71
NtRp858
(dp859
g74
(dp860
sg83
g834
sg76
(lp861
g69
(g90
g71
NtRp862
(dp863
g74
(dp864
g94
g95
ssg83
g858
sg76
(lp865
g304
asbag69
(g90
g71
NtRp866
(dp867
g74
(dp868
g101
g102
ssg83
g858
sg76
(lp869
S':'
asbag69
(g90
g71
NtRp870
(dp871
g74
(dp872
sg83
g858
sg76
(lp873
g69
(g70
g71
NtRp874
(dp875
g74
(dp876
g82
I3
ssg83
g870
sg76
(lp877
S''
asbasbasbag69
(g85
g71
NtRp878
(dp879
g74
(dp880
sg83
g834
sg76
(lp881
g69
(g90
g71
NtRp882
(dp883
g74
(dp884
g94
g95
ssg83
g878
sg76
(lp885
g325
asbag69
(g90
g71
NtRp886
(dp887
g74
(dp888
g101
g102
ssg83
g878
sg76
(lp889
S':'
asbag69
(g90
g71
NtRp890
(dp891
g74
(dp892
sg83
g878
sg76
(lp893
g69
(g70
g71
NtRp894
(dp895
g74
(dp896
g82
I3
ssg83
g890
sg76
(lp897
S''
asbasbasbag69
(g85
g71
NtRp898
(dp899
g74
(dp900
sg83
g834
sg76
(lp901
g69
(g90
g71
NtRp902
(dp903
g74
(dp904
g94
g95
ssg83
g898
sg76
(lp905
g346
asbag69
(g90
g71
NtRp906
(dp907
g74
(dp908
g101
g102
ssg83
g898
sg76
(lp909
S':'
asbag69
(g90
g71
NtRp910
(dp911
g74
(dp912
sg83
g898
sg76
(lp913
g69
(g70
g71
NtRp914
(dp915
g74
(dp916
g82
I3
ssg83
g910
sg76
(lp917
S''
asbasbasbag69
(g85
g71
NtRp918
(dp919
g74
(dp920
sg83
g834
sg76
(lp921
g69
(g90
g71
NtRp922
(dp923
g74
(dp924
g94
g95
ssg83
g918
sg76
(lp925
g367
asbag69
(g90
g71
NtRp926
(dp927
g74
(dp928
g101
g102
ssg83
g918
sg76
(lp929
S':'
asbag69
(g90
g71
NtRp930
(dp931
g74
(dp932
sg83
g918
sg76
(lp933
g69
(g70
g71
NtRp934
(dp935
g74
(dp936
g82
I3
ssg83
g930
sg76
(lp937
S''
asbasbasbag69
(g85
g71
NtRp938
(dp939
g74
(dp940
sg83
g834
sg76
(lp941
g69
(g90
g71
NtRp942
(dp943
g74
(dp944
g94
g95
ssg83
g938
sg76
(lp945
g388
asbag69
(g90
g71
NtRp946
(dp947
g74
(dp948
g101
g102
ssg83
g938
sg76
(lp949
S':'
asbag69
(g90
g71
NtRp950
(dp951
g74
(dp952
sg83
g938
sg76
(lp953
g69
(g70
g71
NtRp954
(dp955
g74
(dp956
g82
I3
ssg83
g950
sg76
(lp957
S''
asbasbasbag69
(g85
g71
NtRp958
(dp959
g74
(dp960
sg83
g834
sg76
(lp961
g69
(g90
g71
NtRp962
(dp963
g74
(dp964
g94
g95
ssg83
g958
sg76
(lp965
g409
asbag69
(g90
g71
NtRp966
(dp967
g74
(dp968
g101
g102
ssg83
g958
sg76
(lp969
S':'
asbag69
(g90
g71
NtRp970
(dp971
g74
(dp972
sg83
g958
sg76
(lp973
g69
(g70
g71
NtRp974
(dp975
g74
(dp976
g82
I3
ssg83
g970
sg76
(lp977
S''
asbasbasbag69
(g85
g71
NtRp978
(dp979
g74
(dp980
sg83
g834
sg76
(lp981
g69
(g90
g71
NtRp982
(dp983
g74
(dp984
g94
g95
ssg83
g978
sg76
(lp985
g430
asbag69
(g90
g71
NtRp986
(dp987
g74
(dp988
g101
g102
ssg83
g978
sg76
(lp989
S':'
asbag69
(g90
g71
NtRp990
(dp991
g74
(dp992
sg83
g978
sg76
(lp993
g69
(g70
g71
NtRp994
(dp995
g74
(dp996
g82
I3
ssg83
g990
sg76
(lp997
S''
asbasbasbasbasbasbasbag69
(g85
g71
NtRp998
(dp999
g74
(dp1000
sg83
g246
sg76
(lp1001
g69
(g90
g71
NtRp1002
(dp1003
g74
(dp1004
g94
g95
ssg83
g998
sg76
(lp1005
S'session_id_welcome'
p1006
asbag69
(g90
g71
NtRp1007
(dp1008
g74
(dp1009
g101
g102
ssg83
g998
sg76
(lp1010
S':'
asbag69
(g90
g71
NtRp1011
(dp1012
g74
(dp1013
sg83
g998
sg76
(lp1014
g69
(g70
g71
NtRp1015
(dp1016
g74
(dp1017
g82
I4
ssg83
g1011
sg76
(lp1018
g69
(g78
g71
NtRp1019
(dp1020
g74
(dp1021
g82
I3
ssg83
Nsg76
(lp1022
g69
(g85
g71
NtRp1023
(dp1024
g74
(dp1025
sg83
g1019
sg76
(lp1026
g69
(g90
g71
NtRp1027
(dp1028
g74
(dp1029
g94
g95
ssg83
g1023
sg76
(lp1030
g283
asbag69
(g90
g71
NtRp1031
(dp1032
g74
(dp1033
g101
g102
ssg83
g1023
sg76
(lp1034
S':'
asbag69
(g90
g71
NtRp1035
(dp1036
g74
(dp1037
sg83
g1023
sg76
(lp1038
g69
(g70
g71
NtRp1039
(dp1040
g74
(dp1041
g82
I3
ssg83
g1035
sg76
(lp1042
S''
asbasbasbag69
(g85
g71
NtRp1043
(dp1044
g74
(dp1045
sg83
g1019
sg76
(lp1046
g69
(g90
g71
NtRp1047
(dp1048
g74
(dp1049
g94
g95
ssg83
g1043
sg76
(lp1050
g304
asbag69
(g90
g71
NtRp1051
(dp1052
g74
(dp1053
g101
g102
ssg83
g1043
sg76
(lp1054
S':'
asbag69
(g90
g71
NtRp1055
(dp1056
g74
(dp1057
sg83
g1043
sg76
(lp1058
g69
(g70
g71
NtRp1059
(dp1060
g74
(dp1061
g82
I3
ssg83
g1055
sg76
(lp1062
S''
asbasbasbag69
(g85
g71
NtRp1063
(dp1064
g74
(dp1065
sg83
g1019
sg76
(lp1066
g69
(g90
g71
NtRp1067
(dp1068
g74
(dp1069
g94
g95
ssg83
g1063
sg76
(lp1070
g325
asbag69
(g90
g71
NtRp1071
(dp1072
g74
(dp1073
g101
g102
ssg83
g1063
sg76
(lp1074
S':'
asbag69
(g90
g71
NtRp1075
(dp1076
g74
(dp1077
sg83
g1063
sg76
(lp1078
g69
(g70
g71
NtRp1079
(dp1080
g74
(dp1081
g82
I3
ssg83
g1075
sg76
(lp1082
S''
asbasbasbag69
(g85
g71
NtRp1083
(dp1084
g74
(dp1085
sg83
g1019
sg76
(lp1086
g69
(g90
g71
NtRp1087
(dp1088
g74
(dp1089
g94
g95
ssg83
g1083
sg76
(lp1090
g346
asbag69
(g90
g71
NtRp1091
(dp1092
g74
(dp1093
g101
g102
ssg83
g1083
sg76
(lp1094
S':'
asbag69
(g90
g71
NtRp1095
(dp1096
g74
(dp1097
sg83
g1083
sg76
(lp1098
g69
(g70
g71
NtRp1099
(dp1100
g74
(dp1101
g82
I3
ssg83
g1095
sg76
(lp1102
S''
asbasbasbag69
(g85
g71
NtRp1103
(dp1104
g74
(dp1105
sg83
g1019
sg76
(lp1106
g69
(g90
g71
NtRp1107
(dp1108
g74
(dp1109
g94
g95
ssg83
g1103
sg76
(lp1110
g367
asbag69
(g90
g71
NtRp1111
(dp1112
g74
(dp1113
g101
g102
ssg83
g1103
sg76
(lp1114
S':'
asbag69
(g90
g71
NtRp1115
(dp1116
g74
(dp1117
sg83
g1103
sg76
(lp1118
g69
(g70
g71
NtRp1119
(dp1120
g74
(dp1121
g82
I3
ssg83
g1115
sg76
(lp1122
S''
asbasbasbag69
(g85
g71
NtRp1123
(dp1124
g74
(dp1125
sg83
g1019
sg76
(lp1126
g69
(g90
g71
NtRp1127
(dp1128
g74
(dp1129
g94
g95
ssg83
g1123
sg76
(lp1130
g388
asbag69
(g90
g71
NtRp1131
(dp1132
g74
(dp1133
g101
g102
ssg83
g1123
sg76
(lp1134
S':'
asbag69
(g90
g71
NtRp1135
(dp1136
g74
(dp1137
sg83
g1123
sg76
(lp1138
g69
(g70
g71
NtRp1139
(dp1140
g74
(dp1141
g82
I3
ssg83
g1135
sg76
(lp1142
S''
asbasbasbag69
(g85
g71
NtRp1143
(dp1144
g74
(dp1145
sg83
g1019
sg76
(lp1146
g69
(g90
g71
NtRp1147
(dp1148
g74
(dp1149
g94
g95
ssg83
g1143
sg76
(lp1150
g409
asbag69
(g90
g71
NtRp1151
(dp1152
g74
(dp1153
g101
g102
ssg83
g1143
sg76
(lp1154
S':'
asbag69
(g90
g71
NtRp1155
(dp1156
g74
(dp1157
sg83
g1143
sg76
(lp1158
g69
(g70
g71
NtRp1159
(dp1160
g74
(dp1161
g82
I3
ssg83
g1155
sg76
(lp1162
S''
asbasbasbag69
(g85
g71
NtRp1163
(dp1164
g74
(dp1165
sg83
g1019
sg76
(lp1166
g69
(g90
g71
NtRp1167
(dp1168
g74
(dp1169
g94
g95
ssg83
g1163
sg76
(lp1170
g430
asbag69
(g90
g71
NtRp1171
(dp1172
g74
(dp1173
g101
g102
ssg83
g1163
sg76
(lp1174
S':'
asbag69
(g90
g71
NtRp1175
(dp1176
g74
(dp1177
sg83
g1163
sg76
(lp1178
g69
(g70
g71
NtRp1179
(dp1180
g74
(dp1181
g82
I3
ssg83
g1175
sg76
(lp1182
S''
asbasbasbasbasbasbasbasbasbasbasbag69
(g85
g71
NtRp1183
(dp1184
g74
(dp1185
sg83
g79
sg76
(lp1186
g69
(g90
g71
NtRp1187
(dp1188
g74
(dp1189
g94
g95
ssg83
g1183
sg76
(lp1190
S'env'
p1191
asbag69
(g90
g71
NtRp1192
(dp1193
g74
(dp1194
g101
g102
ssg83
g1183
sg76
(lp1195
S':'
asbag69
(g90
g71
NtRp1196
(dp1197
g74
(dp1198
sg83
g1183
sg76
(lp1199
g69
(g70
g71
NtRp1200
(dp1201
g74
(dp1202
g82
I5
ssg83
g1196
sg76
(lp1203
g69
(g78
g71
NtRp1204
(dp1205
g74
(dp1206
g82
I4
ssg83
Nsg76
(lp1207
g69
(g85
g71
NtRp1208
(dp1209
g74
(dp1210
sg83
g1204
sg76
(lp1211
g69
(g90
g71
NtRp1212
(dp1213
g74
(dp1214
g94
g95
ssg83
g1208
sg76
(lp1215
S'app_folders'
p1216
asbag69
(g90
g71
NtRp1217
(dp1218
g74
(dp1219
g101
g102
ssg83
g1208
sg76
(lp1220
S':'
asbag69
(g90
g71
NtRp1221
(dp1222
g74
(dp1223
sg83
g1208
sg76
(lp1224
g69
(g70
g71
NtRp1225
(dp1226
g74
(dp1227
g82
I4
ssg83
g1221
sg76
(lp1228
S"set(['/home/mukul/web2py/applications/admin/', '/home/mukul/web2py/applications/blogpost/', '/home/mukul/web2py/applications/go_to_app/', '/home/mukul/web2py/applications/welcome/', '/home/mukul/web2py/applications/mukul/', '/home/mukul/web2py/applications/examples/'])"
p1229
asbasbasbag69
(g85
g71
NtRp1230
(dp1231
g74
(dp1232
sg83
g1204
sg76
(lp1233
g69
(g90
g71
NtRp1234
(dp1235
g74
(dp1236
g94
g95
ssg83
g1230
sg76
(lp1237
S'applications_parent'
p1238
asbag69
(g90
g71
NtRp1239
(dp1240
g74
(dp1241
g101
g102
ssg83
g1230
sg76
(lp1242
S':'
asbag69
(g90
g71
NtRp1243
(dp1244
g74
(dp1245
sg83
g1230
sg76
(lp1246
g69
(g70
g71
NtRp1247
(dp1248
g74
(dp1249
g82
I4
ssg83
g1243
sg76
(lp1250
S'/home/mukul/web2py'
p1251
asbasbasbag69
(g85
g71
NtRp1252
(dp1253
g74
(dp1254
sg83
g1204
sg76
(lp1255
g69
(g90
g71
NtRp1256
(dp1257
g74
(dp1258
g94
g95
ssg83
g1252
sg76
(lp1259
S'cmd_args'
p1260
asbag69
(g90
g71
NtRp1261
(dp1262
g74
(dp1263
g101
g102
ssg83
g1252
sg76
(lp1264
S':'
asbag69
(g90
g71
NtRp1265
(dp1266
g74
(dp1267
sg83
g1252
sg76
(lp1268
g69
(g70
g71
NtRp1269
(dp1270
g74
(dp1271
g82
I4
ssg83
g1265
sg76
(lp1272
g69
(g78
g71
NtRp1273
(dp1274
g74
(dp1275
g82
I3
ssg83
Nsg76
(lp1276
sbasbasbasbag69
(g85
g71
NtRp1277
(dp1278
g74
(dp1279
sg83
g1204
sg76
(lp1280
g69
(g90
g71
NtRp1281
(dp1282
g74
(dp1283
g94
g95
ssg83
g1277
sg76
(lp1284
S'cmd_options'
p1285
asbag69
(g90
g71
NtRp1286
(dp1287
g74
(dp1288
g101
g102
ssg83
g1277
sg76
(lp1289
S':'
asbag69
(g90
g71
NtRp1290
(dp1291
g74
(dp1292
sg83
g1277
sg76
(lp1293
g69
(g70
g71
NtRp1294
(dp1295
g74
(dp1296
g82
I4
ssg83
g1290
sg76
(lp1297
S"<Values at 0x931178c: {'verbose': False, 'ip': '127.0.0.1', 'shutdown_timeout': 5, 'taskbar': False, 'port': 8000, 'maxthreads': None, 'softcron': False, 'server_name': 'mukul-INVALID', 'bpython': False, 'nogui': False, 'nocron': False, 'extcron': False, 'debuglevel': 30, 'test': None, 'folder': '/home/mukul/web2py', 'config': '', 'import_models': False, 'winservice': '', 'shell': None, 'run': '', 'log_filename': 'httpserver.log', 'args': [''], 'socket_timeout': 1, 'profiler_filename': None, 'ssl_private_key': '', 'password': '<ask>', 'request_queue_size': 5, 'ssl_certificate': '', 'cronjob': False, 'plain': False, 'quiet': False, 'interfaces': None, 'minthreads': None, 'timeout': 10, 'numthreads': None, 'nobanner': False, 'pid_filename': 'httpserver.pid'}>"
p1298
asbasbasbag69
(g85
g71
NtRp1299
(dp1300
g74
(dp1301
sg83
g1204
sg76
(lp1302
g69
(g90
g71
NtRp1303
(dp1304
g74
(dp1305
g94
g95
ssg83
g1299
sg76
(lp1306
S'db_sessions'
p1307
asbag69
(g90
g71
NtRp1308
(dp1309
g74
(dp1310
g101
g102
ssg83
g1299
sg76
(lp1311
S':'
asbag69
(g90
g71
NtRp1312
(dp1313
g74
(dp1314
sg83
g1299
sg76
(lp1315
g69
(g70
g71
NtRp1316
(dp1317
g74
(dp1318
g82
I4
ssg83
g1312
sg76
(lp1319
S'set([])'
p1320
asbasbasbag69
(g85
g71
NtRp1321
(dp1322
g74
(dp1323
sg83
g1204
sg76
(lp1324
g69
(g90
g71
NtRp1325
(dp1326
g74
(dp1327
g94
g95
ssg83
g1321
sg76
(lp1328
S'debugging'
p1329
asbag69
(g90
g71
NtRp1330
(dp1331
g74
(dp1332
g101
g102
ssg83
g1321
sg76
(lp1333
S':'
asbag69
(g90
g71
NtRp1334
(dp1335
g74
(dp1336
sg83
g1321
sg76
(lp1337
g69
(g70
g71
NtRp1338
(dp1339
g74
(dp1340
g82
I4
ssg83
g1334
sg76
(lp1341
g112
asbasbasbag69
(g85
g71
NtRp1342
(dp1343
g74
(dp1344
sg83
g1204
sg76
(lp1345
g69
(g90
g71
NtRp1346
(dp1347
g74
(dp1348
g94
g95
ssg83
g1342
sg76
(lp1349
S'gluon_parent'
p1350
asbag69
(g90
g71
NtRp1351
(dp1352
g74
(dp1353
g101
g102
ssg83
g1342
sg76
(lp1354
S':'
asbag69
(g90
g71
NtRp1355
(dp1356
g74
(dp1357
sg83
g1342
sg76
(lp1358
g69
(g70
g71
NtRp1359
(dp1360
g74
(dp1361
g82
I4
ssg83
g1355
sg76
(lp1362
S'/usr/share/web2py'
p1363
asbasbasbag69
(g85
g71
NtRp1364
(dp1365
g74
(dp1366
sg83
g1204
sg76
(lp1367
g69
(g90
g71
NtRp1368
(dp1369
g74
(dp1370
g94
g95
ssg83
g1364
sg76
(lp1371
S'http_accept'
p1372
asbag69
(g90
g71
NtRp1373
(dp1374
g74
(dp1375
g101
g102
ssg83
g1364
sg76
(lp1376
S':'
asbag69
(g90
g71
NtRp1377
(dp1378
g74
(dp1379
sg83
g1364
sg76
(lp1380
g69
(g70
g71
NtRp1381
(dp1382
g74
(dp1383
g82
I4
ssg83
g1377
sg76
(lp1384
S'text/html,application/xhtml+xml,application/xml;q=0.9,image/webp,*/*;q=0.8'
p1385
asbasbasbag69
(g85
g71
NtRp1386
(dp1387
g74
(dp1388
sg83
g1204
sg76
(lp1389
g69
(g90
g71
NtRp1390
(dp1391
g74
(dp1392
g94
g95
ssg83
g1386
sg76
(lp1393
S'http_accept_encoding'
p1394
asbag69
(g90
g71
NtRp1395
(dp1396
g74
(dp1397
g101
g102
ssg83
g1386
sg76
(lp1398
S':'
asbag69
(g90
g71
NtRp1399
(dp1400
g74
(dp1401
sg83
g1386
sg76
(lp1402
g69
(g70
g71
NtRp1403
(dp1404
g74
(dp1405
g82
I4
ssg83
g1399
sg76
(lp1406
S'gzip, deflate, sdch'
p1407
asbasbasbag69
(g85
g71
NtRp1408
(dp1409
g74
(dp1410
sg83
g1204
sg76
(lp1411
g69
(g90
g71
NtRp1412
(dp1413
g74
(dp1414
g94
g95
ssg83
g1408
sg76
(lp1415
S'http_accept_language'
p1416
asbag69
(g90
g71
NtRp1417
(dp1418
g74
(dp1419
g101
g102
ssg83
g1408
sg76
(lp1420
S':'
asbag69
(g90
g71
NtRp1421
(dp1422
g74
(dp1423
sg83
g1408
sg76
(lp1424
g69
(g70
g71
NtRp1425
(dp1426
g74
(dp1427
g82
I4
ssg83
g1421
sg76
(lp1428
S'en-US,en;q=0.8'
p1429
asbasbasbag69
(g85
g71
NtRp1430
(dp1431
g74
(dp1432
sg83
g1204
sg76
(lp1433
g69
(g90
g71
NtRp1434
(dp1435
g74
(dp1436
g94
g95
ssg83
g1430
sg76
(lp1437
S'http_connection'
p1438
asbag69
(g90
g71
NtRp1439
(dp1440
g74
(dp1441
g101
g102
ssg83
g1430
sg76
(lp1442
S':'
asbag69
(g90
g71
NtRp1443
(dp1444
g74
(dp1445
sg83
g1430
sg76
(lp1446
g69
(g70
g71
NtRp1447
(dp1448
g74
(dp1449
g82
I4
ssg83
g1443
sg76
(lp1450
S'keep-alive'
p1451
asbasbasbag69
(g85
g71
NtRp1452
(dp1453
g74
(dp1454
sg83
g1204
sg76
(lp1455
g69
(g90
g71
NtRp1456
(dp1457
g74
(dp1458
g94
g95
ssg83
g1452
sg76
(lp1459
S'http_cookie'
p1460
asbag69
(g90
g71
NtRp1461
(dp1462
g74
(dp1463
g101
g102
ssg83
g1452
sg76
(lp1464
S':'
asbag69
(g90
g71
NtRp1465
(dp1466
g74
(dp1467
sg83
g1452
sg76
(lp1468
g69
(g70
g71
NtRp1469
(dp1470
g74
(dp1471
g82
I4
ssg83
g1465
sg76
(lp1472
S'_ga=GA1.1.1697046843.1457627657; session_id_welcome=127.0.0.1-0dc82c54-7998-46df-bc7a-ae551514715c; session_id_mukul=127.0.0.1-b7b05dec-9203-49b5-9563-65a37d4a5ab0; session_id_go_to_app=127.0.0.1-6a3d5a50-4cd5-43ec-b744-e6f1eb524265; session_id_admin=127.0.0.1-1ea48cdc-d855-42f3-8aa9-45e4bcc89244; session_id_blogpost=127.0.0.1-db0d4806-b3c3-4347-967a-d3847597ee73'
p1473
asbasbasbag69
(g85
g71
NtRp1474
(dp1475
g74
(dp1476
sg83
g1204
sg76
(lp1477
g69
(g90
g71
NtRp1478
(dp1479
g74
(dp1480
g94
g95
ssg83
g1474
sg76
(lp1481
S'http_host'
p1482
asbag69
(g90
g71
NtRp1483
(dp1484
g74
(dp1485
g101
g102
ssg83
g1474
sg76
(lp1486
S':'
asbag69
(g90
g71
NtRp1487
(dp1488
g74
(dp1489
sg83
g1474
sg76
(lp1490
g69
(g70
g71
NtRp1491
(dp1492
g74
(dp1493
g82
I4
ssg83
g1487
sg76
(lp1494
S'127.0.0.1:8000'
p1495
asbasbasbag69
(g85
g71
NtRp1496
(dp1497
g74
(dp1498
sg83
g1204
sg76
(lp1499
g69
(g90
g71
NtRp1500
(dp1501
g74
(dp1502
g94
g95
ssg83
g1496
sg76
(lp1503
S'http_upgrade_insecure_requests'
p1504
asbag69
(g90
g71
NtRp1505
(dp1506
g74
(dp1507
g101
g102
ssg83
g1496
sg76
(lp1508
S':'
asbag69
(g90
g71
NtRp1509
(dp1510
g74
(dp1511
sg83
g1496
sg76
(lp1512
g69
(g70
g71
NtRp1513
(dp1514
g74
(dp1515
g82
I4
ssg83
g1509
sg76
(lp1516
S'1'
asbasbasbag69
(g85
g71
NtRp1517
(dp1518
g74
(dp1519
sg83
g1204
sg76
(lp1520
g69
(g90
g71
NtRp1521
(dp1522
g74
(dp1523
g94
g95
ssg83
g1517
sg76
(lp1524
S'http_user_agent'
p1525
asbag69
(g90
g71
NtRp1526
(dp1527
g74
(dp1528
g101
g102
ssg83
g1517
sg76
(lp1529
S':'
asbag69
(g90
g71
NtRp1530
(dp1531
g74
(dp1532
sg83
g1517
sg76
(lp1533
g69
(g70
g71
NtRp1534
(dp1535
g74
(dp1536
g82
I4
ssg83
g1530
sg76
(lp1537
S'Mozilla/5.0 (X11; Linux i686) AppleWebKit/537.36 (KHTML, like Gecko) Chrome/48.0.2564.116 Safari/537.36'
p1538
asbasbasbag69
(g85
g71
NtRp1539
(dp1540
g74
(dp1541
sg83
g1204
sg76
(lp1542
g69
(g90
g71
NtRp1543
(dp1544
g74
(dp1545
g94
g95
ssg83
g1539
sg76
(lp1546
S'is_jython'
p1547
asbag69
(g90
g71
NtRp1548
(dp1549
g74
(dp1550
g101
g102
ssg83
g1539
sg76
(lp1551
S':'
asbag69
(g90
g71
NtRp1552
(dp1553
g74
(dp1554
sg83
g1539
sg76
(lp1555
g69
(g70
g71
NtRp1556
(dp1557
g74
(dp1558
g82
I4
ssg83
g1552
sg76
(lp1559
g112
asbasbasbag69
(g85
g71
NtRp1560
(dp1561
g74
(dp1562
sg83
g1204
sg76
(lp1563
g69
(g90
g71
NtRp1564
(dp1565
g74
(dp1566
g94
g95
ssg83
g1560
sg76
(lp1567
S'is_pypy'
p1568
asbag69
(g90
g71
NtRp1569
(dp1570
g74
(dp1571
g101
g102
ssg83
g1560
sg76
(lp1572
S':'
asbag69
(g90
g71
NtRp1573
(dp1574
g74
(dp1575
sg83
g1560
sg76
(lp1576
g69
(g70
g71
NtRp1577
(dp1578
g74
(dp1579
g82
I4
ssg83
g1573
sg76
(lp1580
g112
asbasbasbag69
(g85
g71
NtRp1581
(dp1582
g74
(dp1583
sg83
g1204
sg76
(lp1584
g69
(g90
g71
NtRp1585
(dp1586
g74
(dp1587
g94
g95
ssg83
g1581
sg76
(lp1588
S'path_info'
p1589
asbag69
(g90
g71
NtRp1590
(dp1591
g74
(dp1592
g101
g102
ssg83
g1581
sg76
(lp1593
S':'
asbag69
(g90
g71
NtRp1594
(dp1595
g74
(dp1596
sg83
g1581
sg76
(lp1597
g69
(g70
g71
NtRp1598
(dp1599
g74
(dp1600
g82
I4
ssg83
g1594
sg76
(lp1601
S'/blogpost/default/show'
p1602
asbasbasbag69
(g85
g71
NtRp1603
(dp1604
g74
(dp1605
sg83
g1204
sg76
(lp1606
g69
(g90
g71
NtRp1607
(dp1608
g74
(dp1609
g94
g95
ssg83
g1603
sg76
(lp1610
S'query_string'
p1611
asbag69
(g90
g71
NtRp1612
(dp1613
g74
(dp1614
g101
g102
ssg83
g1603
sg76
(lp1615
S':'
asbag69
(g90
g71
NtRp1616
(dp1617
g74
(dp1618
sg83
g1603
sg76
(lp1619
g69
(g70
g71
NtRp1620
(dp1621
g74
(dp1622
g82
I4
ssg83
g1616
sg76
(lp1623
S''
asbasbasbag69
(g85
g71
NtRp1624
(dp1625
g74
(dp1626
sg83
g1204
sg76
(lp1627
g69
(g90
g71
NtRp1628
(dp1629
g74
(dp1630
g94
g95
ssg83
g1624
sg76
(lp1631
S'remote_addr'
p1632
asbag69
(g90
g71
NtRp1633
(dp1634
g74
(dp1635
g101
g102
ssg83
g1624
sg76
(lp1636
S':'
asbag69
(g90
g71
NtRp1637
(dp1638
g74
(dp1639
sg83
g1624
sg76
(lp1640
g69
(g70
g71
NtRp1641
(dp1642
g74
(dp1643
g82
I4
ssg83
g1637
sg76
(lp1644
g202
asbasbasbag69
(g85
g71
NtRp1645
(dp1646
g74
(dp1647
sg83
g1204
sg76
(lp1648
g69
(g90
g71
NtRp1649
(dp1650
g74
(dp1651
g94
g95
ssg83
g1645
sg76
(lp1652
S'remote_port'
p1653
asbag69
(g90
g71
NtRp1654
(dp1655
g74
(dp1656
g101
g102
ssg83
g1645
sg76
(lp1657
S':'
asbag69
(g90
g71
NtRp1658
(dp1659
g74
(dp1660
sg83
g1645
sg76
(lp1661
g69
(g70
g71
NtRp1662
(dp1663
g74
(dp1664
g82
I4
ssg83
g1658
sg76
(lp1665
S'59316'
p1666
asbasbasbag69
(g85
g71
NtRp1667
(dp1668
g74
(dp1669
sg83
g1204
sg76
(lp1670
g69
(g90
g71
NtRp1671
(dp1672
g74
(dp1673
g94
g95
ssg83
g1667
sg76
(lp1674
S'request_method'
p1675
asbag69
(g90
g71
NtRp1676
(dp1677
g74
(dp1678
g101
g102
ssg83
g1667
sg76
(lp1679
S':'
asbag69
(g90
g71
NtRp1680
(dp1681
g74
(dp1682
sg83
g1667
sg76
(lp1683
g69
(g70
g71
NtRp1684
(dp1685
g74
(dp1686
g82
I4
ssg83
g1680
sg76
(lp1687
S'GET'
p1688
asbasbasbag69
(g85
g71
NtRp1689
(dp1690
g74
(dp1691
sg83
g1204
sg76
(lp1692
g69
(g90
g71
NtRp1693
(dp1694
g74
(dp1695
g94
g95
ssg83
g1689
sg76
(lp1696
S'script_name'
p1697
asbag69
(g90
g71
NtRp1698
(dp1699
g74
(dp1700
g101
g102
ssg83
g1689
sg76
(lp1701
S':'
asbag69
(g90
g71
NtRp1702
(dp1703
g74
(dp1704
sg83
g1689
sg76
(lp1705
g69
(g70
g71
NtRp1706
(dp1707
g74
(dp1708
g82
I4
ssg83
g1702
sg76
(lp1709
S''
asbasbasbag69
(g85
g71
NtRp1710
(dp1711
g74
(dp1712
sg83
g1204
sg76
(lp1713
g69
(g90
g71
NtRp1714
(dp1715
g74
(dp1716
g94
g95
ssg83
g1710
sg76
(lp1717
S'server_name'
p1718
asbag69
(g90
g71
NtRp1719
(dp1720
g74
(dp1721
g101
g102
ssg83
g1710
sg76
(lp1722
S':'
asbag69
(g90
g71
NtRp1723
(dp1724
g74
(dp1725
sg83
g1710
sg76
(lp1726
g69
(g70
g71
NtRp1727
(dp1728
g74
(dp1729
g82
I4
ssg83
g1723
sg76
(lp1730
S'mukul-INVALID'
p1731
asbasbasbag69
(g85
g71
NtRp1732
(dp1733
g74
(dp1734
sg83
g1204
sg76
(lp1735
g69
(g90
g71
NtRp1736
(dp1737
g74
(dp1738
g94
g95
ssg83
g1732
sg76
(lp1739
S'server_port'
p1740
asbag69
(g90
g71
NtRp1741
(dp1742
g74
(dp1743
g101
g102
ssg83
g1732
sg76
(lp1744
S':'
asbag69
(g90
g71
NtRp1745
(dp1746
g74
(dp1747
sg83
g1732
sg76
(lp1748
g69
(g70
g71
NtRp1749
(dp1750
g74
(dp1751
g82
I4
ssg83
g1745
sg76
(lp1752
S'8000'
p1753
asbasbasbag69
(g85
g71
NtRp1754
(dp1755
g74
(dp1756
sg83
g1204
sg76
(lp1757
g69
(g90
g71
NtRp1758
(dp1759
g74
(dp1760
g94
g95
ssg83
g1754
sg76
(lp1761
S'server_protocol'
p1762
asbag69
(g90
g71
NtRp1763
(dp1764
g74
(dp1765
g101
g102
ssg83
g1754
sg76
(lp1766
S':'
asbag69
(g90
g71
NtRp1767
(dp1768
g74
(dp1769
sg83
g1754
sg76
(lp1770
g69
(g70
g71
NtRp1771
(dp1772
g74
(dp1773
g82
I4
ssg83
g1767
sg76
(lp1774
S'HTTP/1.1'
p1775
asbasbasbag69
(g85
g71
NtRp1776
(dp1777
g74
(dp1778
sg83
g1204
sg76
(lp1779
g69
(g90
g71
NtRp1780
(dp1781
g74
(dp1782
g94
g95
ssg83
g1776
sg76
(lp1783
S'server_software'
p1784
asbag69
(g90
g71
NtRp1785
(dp1786
g74
(dp1787
g101
g102
ssg83
g1776
sg76
(lp1788
S':'
asbag69
(g90
g71
NtRp1789
(dp1790
g74
(dp1791
sg83
g1776
sg76
(lp1792
g69
(g70
g71
NtRp1793
(dp1794
g74
(dp1795
g82
I4
ssg83
g1789
sg76
(lp1796
S'Rocket 1.2.4'
p1797
asbasbasbag69
(g85
g71
NtRp1798
(dp1799
g74
(dp1800
sg83
g1204
sg76
(lp1801
g69
(g90
g71
NtRp1802
(dp1803
g74
(dp1804
g94
g95
ssg83
g1798
sg76
(lp1805
S'web2py_crontype'
p1806
asbag69
(g90
g71
NtRp1807
(dp1808
g74
(dp1809
g101
g102
ssg83
g1798
sg76
(lp1810
S':'
asbag69
(g90
g71
NtRp1811
(dp1812
g74
(dp1813
sg83
g1798
sg76
(lp1814
g69
(g70
g71
NtRp1815
(dp1816
g74
(dp1817
g82
I4
ssg83
g1811
sg76
(lp1818
S'hard'
p1819
asbasbasbag69
(g85
g71
NtRp1820
(dp1821
g74
(dp1822
sg83
g1204
sg76
(lp1823
g69
(g90
g71
NtRp1824
(dp1825
g74
(dp1826
g94
g95
ssg83
g1820
sg76
(lp1827
S'web2py_path'
p1828
asbag69
(g90
g71
NtRp1829
(dp1830
g74
(dp1831
g101
g102
ssg83
g1820
sg76
(lp1832
S':'
asbag69
(g90
g71
NtRp1833
(dp1834
g74
(dp1835
sg83
g1820
sg76
(lp1836
g69
(g70
g71
NtRp1837
(dp1838
g74
(dp1839
g82
I4
ssg83
g1833
sg76
(lp1840
g1251
asbasbasbag69
(g85
g71
NtRp1841
(dp1842
g74
(dp1843
sg83
g1204
sg76
(lp1844
g69
(g90
g71
NtRp1845
(dp1846
g74
(dp1847
g94
g95
ssg83
g1841
sg76
(lp1848
S'web2py_version'
p1849
asbag69
(g90
g71
NtRp1850
(dp1851
g74
(dp1852
g101
g102
ssg83
g1841
sg76
(lp1853
S':'
asbag69
(g90
g71
NtRp1854
(dp1855
g74
(dp1856
sg83
g1841
sg76
(lp1857
g69
(g70
g71
NtRp1858
(dp1859
g74
(dp1860
g82
I4
ssg83
g1854
sg76
(lp1861
g69
(g78
g71
NtRp1862
(dp1863
g74
(dp1864
g82
I3
ssg83
Nsg76
(lp1865
g69
(g85
g71
NtRp1866
(dp1867
g74
(dp1868
sg83
g1862
sg76
(lp1869
g69
(g90
g71
NtRp1870
(dp1871
g74
(dp1872
sg83
g1866
sg76
(lp1873
g69
(g70
g71
NtRp1874
(dp1875
g74
(dp1876
g82
I3
ssg83
g1870
sg76
(lp1877
S'1'
asbasbasbag69
(g85
g71
NtRp1878
(dp1879
g74
(dp1880
sg83
g1862
sg76
(lp1881
g69
(g90
g71
NtRp1882
(dp1883
g74
(dp1884
sg83
g1878
sg76
(lp1885
g69
(g70
g71
NtRp1886
(dp1887
g74
(dp1888
g82
I3
ssg83
g1882
sg76
(lp1889
S'99'
p1890
asbasbasbag69
(g85
g71
NtRp1891
(dp1892
g74
(dp1893
sg83
g1862
sg76
(lp1894
g69
(g90
g71
NtRp1895
(dp1896
g74
(dp1897
sg83
g1891
sg76
(lp1898
g69
(g70
g71
NtRp1899
(dp1900
g74
(dp1901
g82
I3
ssg83
g1895
sg76
(lp1902
S'4'
asbasbasbag69
(g85
g71
NtRp1903
(dp1904
g74
(dp1905
sg83
g1862
sg76
(lp1906
g69
(g90
g71
NtRp1907
(dp1908
g74
(dp1909
sg83
g1903
sg76
(lp1910
g69
(g70
g71
NtRp1911
(dp1912
g74
(dp1913
g82
I3
ssg83
g1907
sg76
(lp1914
S'datetime.datetime(2011, 12, 14, 14, 46, 14)'
p1915
asbasbasbag69
(g85
g71
NtRp1916
(dp1917
g74
(dp1918
sg83
g1862
sg76
(lp1919
g69
(g90
g71
NtRp1920
(dp1921
g74
(dp1922
sg83
g1916
sg76
(lp1923
g69
(g70
g71
NtRp1924
(dp1925
g74
(dp1926
g82
I3
ssg83
g1920
sg76
(lp1927
S'stable'
p1928
asbasbasbasbasbasbasbag69
(g85
g71
NtRp1929
(dp1930
g74
(dp1931
sg83
g1204
sg76
(lp1932
g69
(g90
g71
NtRp1933
(dp1934
g74
(dp1935
g94
g95
ssg83
g1929
sg76
(lp1936
S'wsgi_errors'
p1937
asbag69
(g90
g71
NtRp1938
(dp1939
g74
(dp1940
g101
g102
ssg83
g1929
sg76
(lp1941
S':'
asbag69
(g90
g71
NtRp1942
(dp1943
g74
(dp1944
sg83
g1929
sg76
(lp1945
g69
(g70
g71
NtRp1946
(dp1947
g74
(dp1948
g82
I4
ssg83
g1942
sg76
(lp1949
S"<open file '<stderr>', mode 'w' at 0xb73330d0>"
p1950
asbasbasbag69
(g85
g71
NtRp1951
(dp1952
g74
(dp1953
sg83
g1204
sg76
(lp1954
g69
(g90
g71
NtRp1955
(dp1956
g74
(dp1957
g94
g95
ssg83
g1951
sg76
(lp1958
S'wsgi_file_wrapper'
p1959
asbag69
(g90
g71
NtRp1960
(dp1961
g74
(dp1962
g101
g102
ssg83
g1951
sg76
(lp1963
S':'
asbag69
(g90
g71
NtRp1964
(dp1965
g74
(dp1966
sg83
g1951
sg76
(lp1967
g69
(g70
g71
NtRp1968
(dp1969
g74
(dp1970
g82
I4
ssg83
g1964
sg76
(lp1971
S'<class wsgiref.util.FileWrapper at 0x90d14dc>'
p1972
asbasbasbag69
(g85
g71
NtRp1973
(dp1974
g74
(dp1975
sg83
g1204
sg76
(lp1976
g69
(g90
g71
NtRp1977
(dp1978
g74
(dp1979
g94
g95
ssg83
g1973
sg76
(lp1980
S'wsgi_input'
p1981
asbag69
(g90
g71
NtRp1982
(dp1983
g74
(dp1984
g101
g102
ssg83
g1973
sg76
(lp1985
S':'
asbag69
(g90
g71
NtRp1986
(dp1987
g74
(dp1988
sg83
g1973
sg76
(lp1989
g69
(g70
g71
NtRp1990
(dp1991
g74
(dp1992
g82
I4
ssg83
g1986
sg76
(lp1993
S'<socket._fileobject object at 0xaa9cf06c>'
p1994
asbasbasbag69
(g85
g71
NtRp1995
(dp1996
g74
(dp1997
sg83
g1204
sg76
(lp1998
g69
(g90
g71
NtRp1999
(dp2000
g74
(dp2001
g94
g95
ssg83
g1995
sg76
(lp2002
S'wsgi_multiprocess'
p2003
asbag69
(g90
g71
NtRp2004
(dp2005
g74
(dp2006
g101
g102
ssg83
g1995
sg76
(lp2007
S':'
asbag69
(g90
g71
NtRp2008
(dp2009
g74
(dp2010
sg83
g1995
sg76
(lp2011
g69
(g70
g71
NtRp2012
(dp2013
g74
(dp2014
g82
I4
ssg83
g2008
sg76
(lp2015
g112
asbasbasbag69
(g85
g71
NtRp2016
(dp2017
g74
(dp2018
sg83
g1204
sg76
(lp2019
g69
(g90
g71
NtRp2020
(dp2021
g74
(dp2022
g94
g95
ssg83
g2016
sg76
(lp2023
S'wsgi_multithread'
p2024
asbag69
(g90
g71
NtRp2025
(dp2026
g74
(dp2027
g101
g102
ssg83
g2016
sg76
(lp2028
S':'
asbag69
(g90
g71
NtRp2029
(dp2030
g74
(dp2031
sg83
g2016
sg76
(lp2032
g69
(g70
g71
NtRp2033
(dp2034
g74
(dp2035
g82
I4
ssg83
g2029
sg76
(lp2036
S'True'
p2037
asbasbasbag69
(g85
g71
NtRp2038
(dp2039
g74
(dp2040
sg83
g1204
sg76
(lp2041
g69
(g90
g71
NtRp2042
(dp2043
g74
(dp2044
g94
g95
ssg83
g2038
sg76
(lp2045
S'wsgi_run_once'
p2046
asbag69
(g90
g71
NtRp2047
(dp2048
g74
(dp2049
g101
g102
ssg83
g2038
sg76
(lp2050
S':'
asbag69
(g90
g71
NtRp2051
(dp2052
g74
(dp2053
sg83
g2038
sg76
(lp2054
g69
(g70
g71
NtRp2055
(dp2056
g74
(dp2057
g82
I4
ssg83
g2051
sg76
(lp2058
g112
asbasbasbag69
(g85
g71
NtRp2059
(dp2060
g74
(dp2061
sg83
g1204
sg76
(lp2062
g69
(g90
g71
NtRp2063
(dp2064
g74
(dp2065
g94
g95
ssg83
g2059
sg76
(lp2066
S'wsgi_url_scheme'
p2067
asbag69
(g90
g71
NtRp2068
(dp2069
g74
(dp2070
g101
g102
ssg83
g2059
sg76
(lp2071
S':'
asbag69
(g90
g71
NtRp2072
(dp2073
g74
(dp2074
sg83
g2059
sg76
(lp2075
g69
(g70
g71
NtRp2076
(dp2077
g74
(dp2078
g82
I4
ssg83
g2072
sg76
(lp2079
S'http'
p2080
asbasbasbag69
(g85
g71
NtRp2081
(dp2082
g74
(dp2083
sg83
g1204
sg76
(lp2084
g69
(g90
g71
NtRp2085
(dp2086
g74
(dp2087
g94
g95
ssg83
g2081
sg76
(lp2088
S'wsgi_version'
p2089
asbag69
(g90
g71
NtRp2090
(dp2091
g74
(dp2092
g101
g102
ssg83
g2081
sg76
(lp2093
S':'
asbag69
(g90
g71
NtRp2094
(dp2095
g74
(dp2096
sg83
g2081
sg76
(lp2097
g69
(g70
g71
NtRp2098
(dp2099
g74
(dp2100
g82
I4
ssg83
g2094
sg76
(lp2101
g69
(g78
g71
NtRp2102
(dp2103
g74
(dp2104
g82
I3
ssg83
Nsg76
(lp2105
g69
(g85
g71
NtRp2106
(dp2107
g74
(dp2108
sg83
g2102
sg76
(lp2109
g69
(g90
g71
NtRp2110
(dp2111
g74
(dp2112
sg83
g2106
sg76
(lp2113
g69
(g70
g71
NtRp2114
(dp2115
g74
(dp2116
g82
I3
ssg83
g2110
sg76
(lp2117
S'1'
asbasbasbag69
(g85
g71
NtRp2118
(dp2119
g74
(dp2120
sg83
g2102
sg76
(lp2121
g69
(g90
g71
NtRp2122
(dp2123
g74
(dp2124
sg83
g2118
sg76
(lp2125
g69
(g70
g71
NtRp2126
(dp2127
g74
(dp2128
g82
I3
ssg83
g2122
sg76
(lp2129
S'0'
asbasbasbasbasbasbasbasbasbasbasbag69
(g85
g71
NtRp2130
(dp2131
g74
(dp2132
sg83
g79
sg76
(lp2133
g69
(g90
g71
NtRp2134
(dp2135
g74
(dp2136
g94
g95
ssg83
g2130
sg76
(lp2137
S'extension'
p2138
asbag69
(g90
g71
NtRp2139
(dp2140
g74
(dp2141
g101
g102
ssg83
g2130
sg76
(lp2142
S':'
asbag69
(g90
g71
NtRp2143
(dp2144
g74
(dp2145
sg83
g2130
sg76
(lp2146
g69
(g70
g71
NtRp2147
(dp2148
g74
(dp2149
g82
I5
ssg83
g2143
sg76
(lp2150
S'html'
p2151
asbasbasbag69
(g85
g71
NtRp2152
(dp2153
g74
(dp2154
sg83
g79
sg76
(lp2155
g69
(g90
g71
NtRp2156
(dp2157
g74
(dp2158
g94
g95
ssg83
g2152
sg76
(lp2159
S'folder'
p2160
asbag69
(g90
g71
NtRp2161
(dp2162
g74
(dp2163
g101
g102
ssg83
g2152
sg76
(lp2164
S':'
asbag69
(g90
g71
NtRp2165
(dp2166
g74
(dp2167
sg83
g2152
sg76
(lp2168
g69
(g70
g71
NtRp2169
(dp2170
g74
(dp2171
g82
I5
ssg83
g2165
sg76
(lp2172
S'/home/mukul/web2py/applications/blogpost/'
p2173
asbasbasbag69
(g85
g71
NtRp2174
(dp2175
g74
(dp2176
sg83
g79
sg76
(lp2177
g69
(g90
g71
NtRp2178
(dp2179
g74
(dp2180
g94
g95
ssg83
g2174
sg76
(lp2181
S'function'
p2182
asbag69
(g90
g71
NtRp2183
(dp2184
g74
(dp2185
g101
g102
ssg83
g2174
sg76
(lp2186
S':'
asbag69
(g90
g71
NtRp2187
(dp2188
g74
(dp2189
sg83
g2174
sg76
(lp2190
g69
(g70
g71
NtRp2191
(dp2192
g74
(dp2193
g82
I5
ssg83
g2187
sg76
(lp2194
S'show'
p2195
asbasbasbag69
(g85
g71
NtRp2196
(dp2197
g74
(dp2198
sg83
g79
sg76
(lp2199
g69
(g90
g71
NtRp2200
(dp2201
g74
(dp2202
g94
g95
ssg83
g2196
sg76
(lp2203
S'get_vars'
p2204
asbag69
(g90
g71
NtRp2205
(dp2206
g74
(dp2207
g101
g102
ssg83
g2196
sg76
(lp2208
S':'
asbag69
(g90
g71
NtRp2209
(dp2210
g74
(dp2211
sg83
g2196
sg76
(lp2212
g69
(g70
g71
NtRp2213
(dp2214
g74
(dp2215
g82
I5
ssg83
g2209
sg76
(lp2216
g69
(g78
g71
NtRp2217
(dp2218
g74
(dp2219
g82
I4
ssg83
Nsg76
(lp2220
sbasbasbasbag69
(g85
g71
NtRp2221
(dp2222
g74
(dp2223
sg83
g79
sg76
(lp2224
g69
(g90
g71
NtRp2225
(dp2226
g74
(dp2227
g94
g95
ssg83
g2221
sg76
(lp2228
S'global_settings'
p2229
asbag69
(g90
g71
NtRp2230
(dp2231
g74
(dp2232
g101
g102
ssg83
g2221
sg76
(lp2233
S':'
asbag69
(g90
g71
NtRp2234
(dp2235
g74
(dp2236
sg83
g2221
sg76
(lp2237
g69
(g70
g71
NtRp2238
(dp2239
g74
(dp2240
g82
I5
ssg83
g2234
sg76
(lp2241
g69
(g78
g71
NtRp2242
(dp2243
g74
(dp2244
g82
I4
ssg83
Nsg76
(lp2245
g69
(g85
g71
NtRp2246
(dp2247
g74
(dp2248
sg83
g2242
sg76
(lp2249
g69
(g90
g71
NtRp2250
(dp2251
g74
(dp2252
g94
g95
ssg83
g2246
sg76
(lp2253
g1216
asbag69
(g90
g71
NtRp2254
(dp2255
g74
(dp2256
g101
g102
ssg83
g2246
sg76
(lp2257
S':'
asbag69
(g90
g71
NtRp2258
(dp2259
g74
(dp2260
sg83
g2246
sg76
(lp2261
g69
(g70
g71
NtRp2262
(dp2263
g74
(dp2264
g82
I4
ssg83
g2258
sg76
(lp2265
S"set(['/home/mukul/web2py/applications/admin/', '/home/mukul/web2py/applications/blogpost/', '/home/mukul/web2py/applications/go_to_app/', '/home/mukul/web2py/applications/welcome/', '/home/mukul/web2py/applications/mukul/', '/home/mukul/web2py/applications/examples/'])"
p2266
asbasbasbag69
(g85
g71
NtRp2267
(dp2268
g74
(dp2269
sg83
g2242
sg76
(lp2270
g69
(g90
g71
NtRp2271
(dp2272
g74
(dp2273
g94
g95
ssg83
g2267
sg76
(lp2274
g1238
asbag69
(g90
g71
NtRp2275
(dp2276
g74
(dp2277
g101
g102
ssg83
g2267
sg76
(lp2278
S':'
asbag69
(g90
g71
NtRp2279
(dp2280
g74
(dp2281
sg83
g2267
sg76
(lp2282
g69
(g70
g71
NtRp2283
(dp2284
g74
(dp2285
g82
I4
ssg83
g2279
sg76
(lp2286
g1251
asbasbasbag69
(g85
g71
NtRp2287
(dp2288
g74
(dp2289
sg83
g2242
sg76
(lp2290
g69
(g90
g71
NtRp2291
(dp2292
g74
(dp2293
g94
g95
ssg83
g2287
sg76
(lp2294
g1260
asbag69
(g90
g71
NtRp2295
(dp2296
g74
(dp2297
g101
g102
ssg83
g2287
sg76
(lp2298
S':'
asbag69
(g90
g71
NtRp2299
(dp2300
g74
(dp2301
sg83
g2287
sg76
(lp2302
g69
(g70
g71
NtRp2303
(dp2304
g74
(dp2305
g82
I4
ssg83
g2299
sg76
(lp2306
g69
(g78
g71
NtRp2307
(dp2308
g74
(dp2309
g82
I3
ssg83
Nsg76
(lp2310
sbasbasbasbag69
(g85
g71
NtRp2311
(dp2312
g74
(dp2313
sg83
g2242
sg76
(lp2314
g69
(g90
g71
NtRp2315
(dp2316
g74
(dp2317
g94
g95
ssg83
g2311
sg76
(lp2318
g1285
asbag69
(g90
g71
NtRp2319
(dp2320
g74
(dp2321
g101
g102
ssg83
g2311
sg76
(lp2322
S':'
asbag69
(g90
g71
NtRp2323
(dp2324
g74
(dp2325
sg83
g2311
sg76
(lp2326
g69
(g70
g71
NtRp2327
(dp2328
g74
(dp2329
g82
I4
ssg83
g2323
sg76
(lp2330
S"<Values at 0x931178c: {'verbose': False, 'ip': '127.0.0.1', 'shutdown_timeout': 5, 'taskbar': False, 'port': 8000, 'maxthreads': None, 'softcron': False, 'server_name': 'mukul-INVALID', 'bpython': False, 'nogui': False, 'nocron': False, 'extcron': False, 'debuglevel': 30, 'test': None, 'folder': '/home/mukul/web2py', 'config': '', 'import_models': False, 'winservice': '', 'shell': None, 'run': '', 'log_filename': 'httpserver.log', 'args': [''], 'socket_timeout': 1, 'profiler_filename': None, 'ssl_private_key': '', 'password': '<ask>', 'request_queue_size': 5, 'ssl_certificate': '', 'cronjob': False, 'plain': False, 'quiet': False, 'interfaces': None, 'minthreads': None, 'timeout': 10, 'numthreads': None, 'nobanner': False, 'pid_filename': 'httpserver.pid'}>"
p2331
asbasbasbag69
(g85
g71
NtRp2332
(dp2333
g74
(dp2334
sg83
g2242
sg76
(lp2335
g69
(g90
g71
NtRp2336
(dp2337
g74
(dp2338
g94
g95
ssg83
g2332
sg76
(lp2339
g1307
asbag69
(g90
g71
NtRp2340
(dp2341
g74
(dp2342
g101
g102
ssg83
g2332
sg76
(lp2343
S':'
asbag69
(g90
g71
NtRp2344
(dp2345
g74
(dp2346
sg83
g2332
sg76
(lp2347
g69
(g70
g71
NtRp2348
(dp2349
g74
(dp2350
g82
I4
ssg83
g2344
sg76
(lp2351
S'set([])'
p2352
asbasbasbag69
(g85
g71
NtRp2353
(dp2354
g74
(dp2355
sg83
g2242
sg76
(lp2356
g69
(g90
g71
NtRp2357
(dp2358
g74
(dp2359
g94
g95
ssg83
g2353
sg76
(lp2360
g1329
asbag69
(g90
g71
NtRp2361
(dp2362
g74
(dp2363
g101
g102
ssg83
g2353
sg76
(lp2364
S':'
asbag69
(g90
g71
NtRp2365
(dp2366
g74
(dp2367
sg83
g2353
sg76
(lp2368
g69
(g70
g71
NtRp2369
(dp2370
g74
(dp2371
g82
I4
ssg83
g2365
sg76
(lp2372
g112
asbasbasbag69
(g85
g71
NtRp2373
(dp2374
g74
(dp2375
sg83
g2242
sg76
(lp2376
g69
(g90
g71
NtRp2377
(dp2378
g74
(dp2379
g94
g95
ssg83
g2373
sg76
(lp2380
g1350
asbag69
(g90
g71
NtRp2381
(dp2382
g74
(dp2383
g101
g102
ssg83
g2373
sg76
(lp2384
S':'
asbag69
(g90
g71
NtRp2385
(dp2386
g74
(dp2387
sg83
g2373
sg76
(lp2388
g69
(g70
g71
NtRp2389
(dp2390
g74
(dp2391
g82
I4
ssg83
g2385
sg76
(lp2392
g1363
asbasbasbag69
(g85
g71
NtRp2393
(dp2394
g74
(dp2395
sg83
g2242
sg76
(lp2396
g69
(g90
g71
NtRp2397
(dp2398
g74
(dp2399
g94
g95
ssg83
g2393
sg76
(lp2400
g1547
asbag69
(g90
g71
NtRp2401
(dp2402
g74
(dp2403
g101
g102
ssg83
g2393
sg76
(lp2404
S':'
asbag69
(g90
g71
NtRp2405
(dp2406
g74
(dp2407
sg83
g2393
sg76
(lp2408
g69
(g70
g71
NtRp2409
(dp2410
g74
(dp2411
g82
I4
ssg83
g2405
sg76
(lp2412
g112
asbasbasbag69
(g85
g71
NtRp2413
(dp2414
g74
(dp2415
sg83
g2242
sg76
(lp2416
g69
(g90
g71
NtRp2417
(dp2418
g74
(dp2419
g94
g95
ssg83
g2413
sg76
(lp2420
g1568
asbag69
(g90
g71
NtRp2421
(dp2422
g74
(dp2423
g101
g102
ssg83
g2413
sg76
(lp2424
S':'
asbag69
(g90
g71
NtRp2425
(dp2426
g74
(dp2427
sg83
g2413
sg76
(lp2428
g69
(g70
g71
NtRp2429
(dp2430
g74
(dp2431
g82
I4
ssg83
g2425
sg76
(lp2432
g112
asbasbasbag69
(g85
g71
NtRp2433
(dp2434
g74
(dp2435
sg83
g2242
sg76
(lp2436
g69
(g90
g71
NtRp2437
(dp2438
g74
(dp2439
g94
g95
ssg83
g2433
sg76
(lp2440
g1806
asbag69
(g90
g71
NtRp2441
(dp2442
g74
(dp2443
g101
g102
ssg83
g2433
sg76
(lp2444
S':'
asbag69
(g90
g71
NtRp2445
(dp2446
g74
(dp2447
sg83
g2433
sg76
(lp2448
g69
(g70
g71
NtRp2449
(dp2450
g74
(dp2451
g82
I4
ssg83
g2445
sg76
(lp2452
g1819
asbasbasbag69
(g85
g71
NtRp2453
(dp2454
g74
(dp2455
sg83
g2242
sg76
(lp2456
g69
(g90
g71
NtRp2457
(dp2458
g74
(dp2459
g94
g95
ssg83
g2453
sg76
(lp2460
g1849
asbag69
(g90
g71
NtRp2461
(dp2462
g74
(dp2463
g101
g102
ssg83
g2453
sg76
(lp2464
S':'
asbag69
(g90
g71
NtRp2465
(dp2466
g74
(dp2467
sg83
g2453
sg76
(lp2468
g69
(g70
g71
NtRp2469
(dp2470
g74
(dp2471
g82
I4
ssg83
g2465
sg76
(lp2472
g69
(g78
g71
NtRp2473
(dp2474
g74
(dp2475
g82
I3
ssg83
Nsg76
(lp2476
g69
(g85
g71
NtRp2477
(dp2478
g74
(dp2479
sg83
g2473
sg76
(lp2480
g69
(g90
g71
NtRp2481
(dp2482
g74
(dp2483
sg83
g2477
sg76
(lp2484
g69
(g70
g71
NtRp2485
(dp2486
g74
(dp2487
g82
I3
ssg83
g2481
sg76
(lp2488
S'1'
asbasbasbag69
(g85
g71
NtRp2489
(dp2490
g74
(dp2491
sg83
g2473
sg76
(lp2492
g69
(g90
g71
NtRp2493
(dp2494
g74
(dp2495
sg83
g2489
sg76
(lp2496
g69
(g70
g71
NtRp2497
(dp2498
g74
(dp2499
g82
I3
ssg83
g2493
sg76
(lp2500
S'99'
p2501
asbasbasbag69
(g85
g71
NtRp2502
(dp2503
g74
(dp2504
sg83
g2473
sg76
(lp2505
g69
(g90
g71
NtRp2506
(dp2507
g74
(dp2508
sg83
g2502
sg76
(lp2509
g69
(g70
g71
NtRp2510
(dp2511
g74
(dp2512
g82
I3
ssg83
g2506
sg76
(lp2513
S'4'
asbasbasbag69
(g85
g71
NtRp2514
(dp2515
g74
(dp2516
sg83
g2473
sg76
(lp2517
g69
(g90
g71
NtRp2518
(dp2519
g74
(dp2520
sg83
g2514
sg76
(lp2521
g69
(g70
g71
NtRp2522
(dp2523
g74
(dp2524
g82
I3
ssg83
g2518
sg76
(lp2525
S'datetime.datetime(2011, 12, 14, 14, 46, 14)'
p2526
asbasbasbag69
(g85
g71
NtRp2527
(dp2528
g74
(dp2529
sg83
g2473
sg76
(lp2530
g69
(g90
g71
NtRp2531
(dp2532
g74
(dp2533
sg83
g2527
sg76
(lp2534
g69
(g70
g71
NtRp2535
(dp2536
g74
(dp2537
g82
I3
ssg83
g2531
sg76
(lp2538
g1928
asbasbasbasbasbasbasbasbasbasbasbag69
(g85
g71
NtRp2539
(dp2540
g74
(dp2541
sg83
g79
sg76
(lp2542
g69
(g90
g71
NtRp2543
(dp2544
g74
(dp2545
g94
g95
ssg83
g2539
sg76
(lp2546
S'is_https'
p2547
asbag69
(g90
g71
NtRp2548
(dp2549
g74
(dp2550
g101
g102
ssg83
g2539
sg76
(lp2551
S':'
asbag69
(g90
g71
NtRp2552
(dp2553
g74
(dp2554
sg83
g2539
sg76
(lp2555
g69
(g70
g71
NtRp2556
(dp2557
g74
(dp2558
g82
I5
ssg83
g2552
sg76
(lp2559
g112
asbasbasbag69
(g85
g71
NtRp2560
(dp2561
g74
(dp2562
sg83
g79
sg76
(lp2563
g69
(g90
g71
NtRp2564
(dp2565
g74
(dp2566
g94
g95
ssg83
g2560
sg76
(lp2567
S'is_local'
p2568
asbag69
(g90
g71
NtRp2569
(dp2570
g74
(dp2571
g101
g102
ssg83
g2560
sg76
(lp2572
S':'
asbag69
(g90
g71
NtRp2573
(dp2574
g74
(dp2575
sg83
g2560
sg76
(lp2576
g69
(g70
g71
NtRp2577
(dp2578
g74
(dp2579
g82
I5
ssg83
g2573
sg76
(lp2580
g2037
asbasbasbag69
(g85
g71
NtRp2581
(dp2582
g74
(dp2583
sg83
g79
sg76
(lp2584
g69
(g90
g71
NtRp2585
(dp2586
g74
(dp2587
g94
g95
ssg83
g2581
sg76
(lp2588
S'is_restful'
p2589
asbag69
(g90
g71
NtRp2590
(dp2591
g74
(dp2592
g101
g102
ssg83
g2581
sg76
(lp2593
S':'
asbag69
(g90
g71
NtRp2594
(dp2595
g74
(dp2596
sg83
g2581
sg76
(lp2597
g69
(g70
g71
NtRp2598
(dp2599
g74
(dp2600
g82
I5
ssg83
g2594
sg76
(lp2601
g112
asbasbasbag69
(g85
g71
NtRp2602
(dp2603
g74
(dp2604
sg83
g79
sg76
(lp2605
g69
(g90
g71
NtRp2606
(dp2607
g74
(dp2608
g94
g95
ssg83
g2602
sg76
(lp2609
S'now'
p2610
asbag69
(g90
g71
NtRp2611
(dp2612
g74
(dp2613
g101
g102
ssg83
g2602
sg76
(lp2614
S':'
asbag69
(g90
g71
NtRp2615
(dp2616
g74
(dp2617
sg83
g2602
sg76
(lp2618
g69
(g70
g71
NtRp2619
(dp2620
g74
(dp2621
g82
I5
ssg83
g2615
sg76
(lp2622
S'datetime.datetime(2016, 5, 14, 20, 21, 3, 636159)'
p2623
asbasbasbag69
(g85
g71
NtRp2624
(dp2625
g74
(dp2626
sg83
g79
sg76
(lp2627
g69
(g90
g71
NtRp2628
(dp2629
g74
(dp2630
g94
g95
ssg83
g2624
sg76
(lp2631
S'post_vars'
p2632
asbag69
(g90
g71
NtRp2633
(dp2634
g74
(dp2635
g101
g102
ssg83
g2624
sg76
(lp2636
S':'
asbag69
(g90
g71
NtRp2637
(dp2638
g74
(dp2639
sg83
g2624
sg76
(lp2640
g69
(g70
g71
NtRp2641
(dp2642
g74
(dp2643
g82
I5
ssg83
g2637
sg76
(lp2644
g69
(g78
g71
NtRp2645
(dp2646
g74
(dp2647
g82
I4
ssg83
Nsg76
(lp2648
sbasbasbasbag69
(g85
g71
NtRp2649
(dp2650
g74
(dp2651
sg83
g79
sg76
(lp2652
g69
(g90
g71
NtRp2653
(dp2654
g74
(dp2655
g94
g95
ssg83
g2649
sg76
(lp2656
S'url'
p2657
asbag69
(g90
g71
NtRp2658
(dp2659
g74
(dp2660
g101
g102
ssg83
g2649
sg76
(lp2661
S':'
asbag69
(g90
g71
NtRp2662
(dp2663
g74
(dp2664
sg83
g2649
sg76
(lp2665
g69
(g70
g71
NtRp2666
(dp2667
g74
(dp2668
g82
I5
ssg83
g2662
sg76
(lp2669
S'/blogpost/default/show'
p2670
asbasbasbag69
(g85
g71
NtRp2671
(dp2672
g74
(dp2673
sg83
g79
sg76
(lp2674
g69
(g90
g71
NtRp2675
(dp2676
g74
(dp2677
g94
g95
ssg83
g2671
sg76
(lp2678
S'utcnow'
p2679
asbag69
(g90
g71
NtRp2680
(dp2681
g74
(dp2682
g101
g102
ssg83
g2671
sg76
(lp2683
S':'
asbag69
(g90
g71
NtRp2684
(dp2685
g74
(dp2686
sg83
g2671
sg76
(lp2687
g69
(g70
g71
NtRp2688
(dp2689
g74
(dp2690
g82
I5
ssg83
g2684
sg76
(lp2691
S'datetime.datetime(2016, 5, 14, 14, 51, 3, 636168)'
p2692
asbasbasbag69
(g85
g71
NtRp2693
(dp2694
g74
(dp2695
sg83
g79
sg76
(lp2696
g69
(g90
g71
NtRp2697
(dp2698
g74
(dp2699
g94
g95
ssg83
g2693
sg76
(lp2700
S'uuid'
p2701
asbag69
(g90
g71
NtRp2702
(dp2703
g74
(dp2704
g101
g102
ssg83
g2693
sg76
(lp2705
S':'
asbag69
(g90
g71
NtRp2706
(dp2707
g74
(dp2708
sg83
g2693
sg76
(lp2709
g69
(g70
g71
NtRp2710
(dp2711
g74
(dp2712
g82
I5
ssg83
g2706
sg76
(lp2713
S'blogpost/127.0.0.1.2016-05-14.20-21-03.b8dc617b-1603-42ec-975e-a1d65a713a2c'
p2714
asbasbasbag69
(g85
g71
NtRp2715
(dp2716
g74
(dp2717
sg83
g79
sg76
(lp2718
g69
(g90
g71
NtRp2719
(dp2720
g74
(dp2721
g94
g95
ssg83
g2715
sg76
(lp2722
S'vars'
p2723
asbag69
(g90
g71
NtRp2724
(dp2725
g74
(dp2726
g101
g102
ssg83
g2715
sg76
(lp2727
S':'
asbag69
(g90
g71
NtRp2728
(dp2729
g74
(dp2730
sg83
g2715
sg76
(lp2731
g69
(g70
g71
NtRp2732
(dp2733
g74
(dp2734
g82
I5
ssg83
g2728
sg76
(lp2735
g69
(g78
g71
NtRp2736
(dp2737
g74
(dp2738
g82
I4
ssg83
Nsg76
(lp2739
sbasbasbasbag69
(g85
g71
NtRp2740
(dp2741
g74
(dp2742
sg83
g79
sg76
(lp2743
g69
(g90
g71
NtRp2744
(dp2745
g74
(dp2746
g94
g95
ssg83
g2740
sg76
(lp2747
S'wsgi'
p2748
asbag69
(g90
g71
NtRp2749
(dp2750
g74
(dp2751
g101
g102
ssg83
g2740
sg76
(lp2752
S':'
asbag69
(g90
g71
NtRp2753
(dp2754
g74
(dp2755
sg83
g2740
sg76
(lp2756
g69
(g70
g71
NtRp2757
(dp2758
g74
(dp2759
g82
I5
ssg83
g2753
sg76
(lp2760
g69
(g78
g71
NtRp2761
(dp2762
g74
(dp2763
g82
I4
ssg83
Nsg76
(lp2764
g69
(g85
g71
NtRp2765
(dp2766
g74
(dp2767
sg83
g2761
sg76
(lp2768
g69
(g90
g71
NtRp2769
(dp2770
g74
(dp2771
g94
g95
ssg83
g2765
sg76
(lp2772
S'environ'
p2773
asbag69
(g90
g71
NtRp2774
(dp2775
g74
(dp2776
g101
g102
ssg83
g2765
sg76
(lp2777
S':'
asbag69
(g90
g71
NtRp2778
(dp2779
g74
(dp2780
sg83
g2765
sg76
(lp2781
g69
(g70
g71
NtRp2782
(dp2783
g74
(dp2784
g82
I4
ssg83
g2778
sg76
(lp2785
g69
(g78
g71
NtRp2786
(dp2787
g74
(dp2788
g82
I3
ssg83
Nsg76
(lp2789
g69
(g85
g71
NtRp2790
(dp2791
g74
(dp2792
sg83
g2786
sg76
(lp2793
g69
(g90
g71
NtRp2794
(dp2795
g74
(dp2796
g94
g95
ssg83
g2790
sg76
(lp2797
S'HTTP_ACCEPT'
p2798
asbag69
(g90
g71
NtRp2799
(dp2800
g74
(dp2801
g101
g102
ssg83
g2790
sg76
(lp2802
S':'
asbag69
(g90
g71
NtRp2803
(dp2804
g74
(dp2805
sg83
g2790
sg76
(lp2806
g69
(g70
g71
NtRp2807
(dp2808
g74
(dp2809
g82
I3
ssg83
g2803
sg76
(lp2810
g1385
asbasbasbag69
(g85
g71
NtRp2811
(dp2812
g74
(dp2813
sg83
g2786
sg76
(lp2814
g69
(g90
g71
NtRp2815
(dp2816
g74
(dp2817
g94
g95
ssg83
g2811
sg76
(lp2818
S'HTTP_ACCEPT_ENCODING'
p2819
asbag69
(g90
g71
NtRp2820
(dp2821
g74
(dp2822
g101
g102
ssg83
g2811
sg76
(lp2823
S':'
asbag69
(g90
g71
NtRp2824
(dp2825
g74
(dp2826
sg83
g2811
sg76
(lp2827
g69
(g70
g71
NtRp2828
(dp2829
g74
(dp2830
g82
I3
ssg83
g2824
sg76
(lp2831
g1407
asbasbasbag69
(g85
g71
NtRp2832
(dp2833
g74
(dp2834
sg83
g2786
sg76
(lp2835
g69
(g90
g71
NtRp2836
(dp2837
g74
(dp2838
g94
g95
ssg83
g2832
sg76
(lp2839
S'HTTP_ACCEPT_LANGUAGE'
p2840
asbag69
(g90
g71
NtRp2841
(dp2842
g74
(dp2843
g101
g102
ssg83
g2832
sg76
(lp2844
S':'
asbag69
(g90
g71
NtRp2845
(dp2846
g74
(dp2847
sg83
g2832
sg76
(lp2848
g69
(g70
g71
NtRp2849
(dp2850
g74
(dp2851
g82
I3
ssg83
g2845
sg76
(lp2852
g1429
asbasbasbag69
(g85
g71
NtRp2853
(dp2854
g74
(dp2855
sg83
g2786
sg76
(lp2856
g69
(g90
g71
NtRp2857
(dp2858
g74
(dp2859
g94
g95
ssg83
g2853
sg76
(lp2860
S'HTTP_CONNECTION'
p2861
asbag69
(g90
g71
NtRp2862
(dp2863
g74
(dp2864
g101
g102
ssg83
g2853
sg76
(lp2865
S':'
asbag69
(g90
g71
NtRp2866
(dp2867
g74
(dp2868
sg83
g2853
sg76
(lp2869
g69
(g70
g71
NtRp2870
(dp2871
g74
(dp2872
g82
I3
ssg83
g2866
sg76
(lp2873
g1451
asbasbasbag69
(g85
g71
NtRp2874
(dp2875
g74
(dp2876
sg83
g2786
sg76
(lp2877
g69
(g90
g71
NtRp2878
(dp2879
g74
(dp2880
g94
g95
ssg83
g2874
sg76
(lp2881
S'HTTP_COOKIE'
p2882
asbag69
(g90
g71
NtRp2883
(dp2884
g74
(dp2885
g101
g102
ssg83
g2874
sg76
(lp2886
S':'
asbag69
(g90
g71
NtRp2887
(dp2888
g74
(dp2889
sg83
g2874
sg76
(lp2890
g69
(g70
g71
NtRp2891
(dp2892
g74
(dp2893
g82
I3
ssg83
g2887
sg76
(lp2894
g1473
asbasbasbag69
(g85
g71
NtRp2895
(dp2896
g74
(dp2897
sg83
g2786
sg76
(lp2898
g69
(g90
g71
NtRp2899
(dp2900
g74
(dp2901
g94
g95
ssg83
g2895
sg76
(lp2902
S'HTTP_HOST'
p2903
asbag69
(g90
g71
NtRp2904
(dp2905
g74
(dp2906
g101
g102
ssg83
g2895
sg76
(lp2907
S':'
asbag69
(g90
g71
NtRp2908
(dp2909
g74
(dp2910
sg83
g2895
sg76
(lp2911
g69
(g70
g71
NtRp2912
(dp2913
g74
(dp2914
g82
I3
ssg83
g2908
sg76
(lp2915
g1495
asbasbasbag69
(g85
g71
NtRp2916
(dp2917
g74
(dp2918
sg83
g2786
sg76
(lp2919
g69
(g90
g71
NtRp2920
(dp2921
g74
(dp2922
g94
g95
ssg83
g2916
sg76
(lp2923
S'HTTP_UPGRADE_INSECURE_REQUESTS'
p2924
asbag69
(g90
g71
NtRp2925
(dp2926
g74
(dp2927
g101
g102
ssg83
g2916
sg76
(lp2928
S':'
asbag69
(g90
g71
NtRp2929
(dp2930
g74
(dp2931
sg83
g2916
sg76
(lp2932
g69
(g70
g71
NtRp2933
(dp2934
g74
(dp2935
g82
I3
ssg83
g2929
sg76
(lp2936
S'1'
asbasbasbag69
(g85
g71
NtRp2937
(dp2938
g74
(dp2939
sg83
g2786
sg76
(lp2940
g69
(g90
g71
NtRp2941
(dp2942
g74
(dp2943
g94
g95
ssg83
g2937
sg76
(lp2944
S'HTTP_USER_AGENT'
p2945
asbag69
(g90
g71
NtRp2946
(dp2947
g74
(dp2948
g101
g102
ssg83
g2937
sg76
(lp2949
S':'
asbag69
(g90
g71
NtRp2950
(dp2951
g74
(dp2952
sg83
g2937
sg76
(lp2953
g69
(g70
g71
NtRp2954
(dp2955
g74
(dp2956
g82
I3
ssg83
g2950
sg76
(lp2957
g1538
asbasbasbag69
(g85
g71
NtRp2958
(dp2959
g74
(dp2960
sg83
g2786
sg76
(lp2961
g69
(g90
g71
NtRp2962
(dp2963
g74
(dp2964
g94
g95
ssg83
g2958
sg76
(lp2965
S'PATH_INFO'
p2966
asbag69
(g90
g71
NtRp2967
(dp2968
g74
(dp2969
g101
g102
ssg83
g2958
sg76
(lp2970
S':'
asbag69
(g90
g71
NtRp2971
(dp2972
g74
(dp2973
sg83
g2958
sg76
(lp2974
g69
(g70
g71
NtRp2975
(dp2976
g74
(dp2977
g82
I3
ssg83
g2971
sg76
(lp2978
g1602
asbasbasbag69
(g85
g71
NtRp2979
(dp2980
g74
(dp2981
sg83
g2786
sg76
(lp2982
g69
(g90
g71
NtRp2983
(dp2984
g74
(dp2985
g94
g95
ssg83
g2979
sg76
(lp2986
S'QUERY_STRING'
p2987
asbag69
(g90
g71
NtRp2988
(dp2989
g74
(dp2990
g101
g102
ssg83
g2979
sg76
(lp2991
S':'
asbag69
(g90
g71
NtRp2992
(dp2993
g74
(dp2994
sg83
g2979
sg76
(lp2995
g69
(g70
g71
NtRp2996
(dp2997
g74
(dp2998
g82
I3
ssg83
g2992
sg76
(lp2999
S''
asbasbasbag69
(g85
g71
NtRp3000
(dp3001
g74
(dp3002
sg83
g2786
sg76
(lp3003
g69
(g90
g71
NtRp3004
(dp3005
g74
(dp3006
g94
g95
ssg83
g3000
sg76
(lp3007
S'REMOTE_ADDR'
p3008
asbag69
(g90
g71
NtRp3009
(dp3010
g74
(dp3011
g101
g102
ssg83
g3000
sg76
(lp3012
S':'
asbag69
(g90
g71
NtRp3013
(dp3014
g74
(dp3015
sg83
g3000
sg76
(lp3016
g69
(g70
g71
NtRp3017
(dp3018
g74
(dp3019
g82
I3
ssg83
g3013
sg76
(lp3020
g202
asbasbasbag69
(g85
g71
NtRp3021
(dp3022
g74
(dp3023
sg83
g2786
sg76
(lp3024
g69
(g90
g71
NtRp3025
(dp3026
g74
(dp3027
g94
g95
ssg83
g3021
sg76
(lp3028
S'REMOTE_PORT'
p3029
asbag69
(g90
g71
NtRp3030
(dp3031
g74
(dp3032
g101
g102
ssg83
g3021
sg76
(lp3033
S':'
asbag69
(g90
g71
NtRp3034
(dp3035
g74
(dp3036
sg83
g3021
sg76
(lp3037
g69
(g70
g71
NtRp3038
(dp3039
g74
(dp3040
g82
I3
ssg83
g3034
sg76
(lp3041
g1666
asbasbasbag69
(g85
g71
NtRp3042
(dp3043
g74
(dp3044
sg83
g2786
sg76
(lp3045
g69
(g90
g71
NtRp3046
(dp3047
g74
(dp3048
g94
g95
ssg83
g3042
sg76
(lp3049
S'REQUEST_METHOD'
p3050
asbag69
(g90
g71
NtRp3051
(dp3052
g74
(dp3053
g101
g102
ssg83
g3042
sg76
(lp3054
S':'
asbag69
(g90
g71
NtRp3055
(dp3056
g74
(dp3057
sg83
g3042
sg76
(lp3058
g69
(g70
g71
NtRp3059
(dp3060
g74
(dp3061
g82
I3
ssg83
g3055
sg76
(lp3062
g1688
asbasbasbag69
(g85
g71
NtRp3063
(dp3064
g74
(dp3065
sg83
g2786
sg76
(lp3066
g69
(g90
g71
NtRp3067
(dp3068
g74
(dp3069
g94
g95
ssg83
g3063
sg76
(lp3070
S'SCRIPT_NAME'
p3071
asbag69
(g90
g71
NtRp3072
(dp3073
g74
(dp3074
g101
g102
ssg83
g3063
sg76
(lp3075
S':'
asbag69
(g90
g71
NtRp3076
(dp3077
g74
(dp3078
sg83
g3063
sg76
(lp3079
g69
(g70
g71
NtRp3080
(dp3081
g74
(dp3082
g82
I3
ssg83
g3076
sg76
(lp3083
S''
asbasbasbag69
(g85
g71
NtRp3084
(dp3085
g74
(dp3086
sg83
g2786
sg76
(lp3087
g69
(g90
g71
NtRp3088
(dp3089
g74
(dp3090
g94
g95
ssg83
g3084
sg76
(lp3091
S'SERVER_NAME'
p3092
asbag69
(g90
g71
NtRp3093
(dp3094
g74
(dp3095
g101
g102
ssg83
g3084
sg76
(lp3096
S':'
asbag69
(g90
g71
NtRp3097
(dp3098
g74
(dp3099
sg83
g3084
sg76
(lp3100
g69
(g70
g71
NtRp3101
(dp3102
g74
(dp3103
g82
I3
ssg83
g3097
sg76
(lp3104
g1731
asbasbasbag69
(g85
g71
NtRp3105
(dp3106
g74
(dp3107
sg83
g2786
sg76
(lp3108
g69
(g90
g71
NtRp3109
(dp3110
g74
(dp3111
g94
g95
ssg83
g3105
sg76
(lp3112
S'SERVER_PORT'
p3113
asbag69
(g90
g71
NtRp3114
(dp3115
g74
(dp3116
g101
g102
ssg83
g3105
sg76
(lp3117
S':'
asbag69
(g90
g71
NtRp3118
(dp3119
g74
(dp3120
sg83
g3105
sg76
(lp3121
g69
(g70
g71
NtRp3122
(dp3123
g74
(dp3124
g82
I3
ssg83
g3118
sg76
(lp3125
g1753
asbasbasbag69
(g85
g71
NtRp3126
(dp3127
g74
(dp3128
sg83
g2786
sg76
(lp3129
g69
(g90
g71
NtRp3130
(dp3131
g74
(dp3132
g94
g95
ssg83
g3126
sg76
(lp3133
S'SERVER_PROTOCOL'
p3134
asbag69
(g90
g71
NtRp3135
(dp3136
g74
(dp3137
g101
g102
ssg83
g3126
sg76
(lp3138
S':'
asbag69
(g90
g71
NtRp3139
(dp3140
g74
(dp3141
sg83
g3126
sg76
(lp3142
g69
(g70
g71
NtRp3143
(dp3144
g74
(dp3145
g82
I3
ssg83
g3139
sg76
(lp3146
g1775
asbasbasbag69
(g85
g71
NtRp3147
(dp3148
g74
(dp3149
sg83
g2786
sg76
(lp3150
g69
(g90
g71
NtRp3151
(dp3152
g74
(dp3153
g94
g95
ssg83
g3147
sg76
(lp3154
S'SERVER_SOFTWARE'
p3155
asbag69
(g90
g71
NtRp3156
(dp3157
g74
(dp3158
g101
g102
ssg83
g3147
sg76
(lp3159
S':'
asbag69
(g90
g71
NtRp3160
(dp3161
g74
(dp3162
sg83
g3147
sg76
(lp3163
g69
(g70
g71
NtRp3164
(dp3165
g74
(dp3166
g82
I3
ssg83
g3160
sg76
(lp3167
g1797
asbasbasbag69
(g85
g71
NtRp3168
(dp3169
g74
(dp3170
sg83
g2786
sg76
(lp3171
g69
(g90
g71
NtRp3172
(dp3173
g74
(dp3174
g94
g95
ssg83
g3168
sg76
(lp3175
S'wsgi.errors'
p3176
asbag69
(g90
g71
NtRp3177
(dp3178
g74
(dp3179
g101
g102
ssg83
g3168
sg76
(lp3180
S':'
asbag69
(g90
g71
NtRp3181
(dp3182
g74
(dp3183
sg83
g3168
sg76
(lp3184
g69
(g70
g71
NtRp3185
(dp3186
g74
(dp3187
g82
I3
ssg83
g3181
sg76
(lp3188
S"<open file '<stderr>', mode 'w' at 0xb73330d0>"
p3189
asbasbasbag69
(g85
g71
NtRp3190
(dp3191
g74
(dp3192
sg83
g2786
sg76
(lp3193
g69
(g90
g71
NtRp3194
(dp3195
g74
(dp3196
g94
g95
ssg83
g3190
sg76
(lp3197
S'wsgi.file_wrapper'
p3198
asbag69
(g90
g71
NtRp3199
(dp3200
g74
(dp3201
g101
g102
ssg83
g3190
sg76
(lp3202
S':'
asbag69
(g90
g71
NtRp3203
(dp3204
g74
(dp3205
sg83
g3190
sg76
(lp3206
g69
(g70
g71
NtRp3207
(dp3208
g74
(dp3209
g82
I3
ssg83
g3203
sg76
(lp3210
S'<class wsgiref.util.FileWrapper at 0x90d14dc>'
p3211
asbasbasbag69
(g85
g71
NtRp3212
(dp3213
g74
(dp3214
sg83
g2786
sg76
(lp3215
g69
(g90
g71
NtRp3216
(dp3217
g74
(dp3218
g94
g95
ssg83
g3212
sg76
(lp3219
S'wsgi.input'
p3220
asbag69
(g90
g71
NtRp3221
(dp3222
g74
(dp3223
g101
g102
ssg83
g3212
sg76
(lp3224
S':'
asbag69
(g90
g71
NtRp3225
(dp3226
g74
(dp3227
sg83
g3212
sg76
(lp3228
g69
(g70
g71
NtRp3229
(dp3230
g74
(dp3231
g82
I3
ssg83
g3225
sg76
(lp3232
S'<cStringIO.StringO object at 0xaa0452e0>'
p3233
asbasbasbag69
(g85
g71
NtRp3234
(dp3235
g74
(dp3236
sg83
g2786
sg76
(lp3237
g69
(g90
g71
NtRp3238
(dp3239
g74
(dp3240
g94
g95
ssg83
g3234
sg76
(lp3241
S'wsgi.multiprocess'
p3242
asbag69
(g90
g71
NtRp3243
(dp3244
g74
(dp3245
g101
g102
ssg83
g3234
sg76
(lp3246
S':'
asbag69
(g90
g71
NtRp3247
(dp3248
g74
(dp3249
sg83
g3234
sg76
(lp3250
g69
(g70
g71
NtRp3251
(dp3252
g74
(dp3253
g82
I3
ssg83
g3247
sg76
(lp3254
g112
asbasbasbag69
(g85
g71
NtRp3255
(dp3256
g74
(dp3257
sg83
g2786
sg76
(lp3258
g69
(g90
g71
NtRp3259
(dp3260
g74
(dp3261
g94
g95
ssg83
g3255
sg76
(lp3262
S'wsgi.multithread'
p3263
asbag69
(g90
g71
NtRp3264
(dp3265
g74
(dp3266
g101
g102
ssg83
g3255
sg76
(lp3267
S':'
asbag69
(g90
g71
NtRp3268
(dp3269
g74
(dp3270
sg83
g3255
sg76
(lp3271
g69
(g70
g71
NtRp3272
(dp3273
g74
(dp3274
g82
I3
ssg83
g3268
sg76
(lp3275
g2037
asbasbasbag69
(g85
g71
NtRp3276
(dp3277
g74
(dp3278
sg83
g2786
sg76
(lp3279
g69
(g90
g71
NtRp3280
(dp3281
g74
(dp3282
g94
g95
ssg83
g3276
sg76
(lp3283
S'wsgi.run_once'
p3284
asbag69
(g90
g71
NtRp3285
(dp3286
g74
(dp3287
g101
g102
ssg83
g3276
sg76
(lp3288
S':'
asbag69
(g90
g71
NtRp3289
(dp3290
g74
(dp3291
sg83
g3276
sg76
(lp3292
g69
(g70
g71
NtRp3293
(dp3294
g74
(dp3295
g82
I3
ssg83
g3289
sg76
(lp3296
g112
asbasbasbag69
(g85
g71
NtRp3297
(dp3298
g74
(dp3299
sg83
g2786
sg76
(lp3300
g69
(g90
g71
NtRp3301
(dp3302
g74
(dp3303
g94
g95
ssg83
g3297
sg76
(lp3304
S'wsgi.url_scheme'
p3305
asbag69
(g90
g71
NtRp3306
(dp3307
g74
(dp3308
g101
g102
ssg83
g3297
sg76
(lp3309
S':'
asbag69
(g90
g71
NtRp3310
(dp3311
g74
(dp3312
sg83
g3297
sg76
(lp3313
g69
(g70
g71
NtRp3314
(dp3315
g74
(dp3316
g82
I3
ssg83
g3310
sg76
(lp3317
g2080
asbasbasbag69
(g85
g71
NtRp3318
(dp3319
g74
(dp3320
sg83
g2786
sg76
(lp3321
g69
(g90
g71
NtRp3322
(dp3323
g74
(dp3324
g94
g95
ssg83
g3318
sg76
(lp3325
S'wsgi.version'
p3326
asbag69
(g90
g71
NtRp3327
(dp3328
g74
(dp3329
g101
g102
ssg83
g3318
sg76
(lp3330
S':'
asbag69
(g90
g71
NtRp3331
(dp3332
g74
(dp3333
sg83
g3318
sg76
(lp3334
g69
(g70
g71
NtRp3335
(dp3336
g74
(dp3337
g82
I3
ssg83
g3331
sg76
(lp3338
S'1'
asbasbasbasbasbasbasbasbasbasbasbasbasbsS'frames'
p3339
(lp3340
(dp3341
S'file'
p3342
S'/usr/lib/pymodules/python2.7/gluon/restricted.py'
p3343
sS'dump'
p3344
(dp3345
S'code'
p3346
S'r"response.write(\'<!DOCTYPE html>\\n<!-- paulirish....ponse.write(\'\\n</body>\\n</html>\\n\', escape=False)"'
p3347
sS'layer'
p3348
S"'/home/mukul/web2py/applications/blogpost/views/default/show.html'"
p3349
sS'global compile2'
p3350
S'<function compile2>'
p3351
sS'ccode'
p3352
S'undefined'
p3353
ssS'lnum'
p3354
I203
sS'lines'
p3355
(dp3356
I198
S"    environment['__file__'] = layer"
p3357
sI199
S'    try:'
p3358
sI200
S'        if type(code) == types.CodeType:'
p3359
sI201
S'            ccode = code'
p3360
sI202
S'        else:'
p3361
sI203
S'            ccode = compile2(code,layer)'
p3362
sI204
S'        exec ccode in environment'
p3363
sI205
S'    except HTTP:'
p3364
sI206
S'        raise'
p3365
sI207
S'    except RestrictedError:'
p3366
ssS'call'
p3367
S'(code=r"response.write(\'<!DOCTYPE html>\\n<!-- paulirish....ponse.write(\'\\n</body>\\n</html>\\n\', escape=False)", environment={\'A\': <class \'gluon.html.A\'>, \'Auth\': <class \'gluon.tools.Auth\'>, \'B\': <class \'gluon.html.B\'>, \'BEAUTIFY\': <class \'gluon.html.BEAUTIFY\'>, \'BODY\': <class \'gluon.html.BODY\'>, \'BR\': <class \'gluon.html.BR\'>, \'BUTTON\': <class \'gluon.html.BUTTON\'>, \'CAT\': <class \'gluon.html.CAT\'>, \'CENTER\': <class \'gluon.html.CENTER\'>, \'CLEANUP\': <class \'gluon.validators.CLEANUP\'>, ...}, layer=\'/home/mukul/web2py/applications/blogpost/views/default/show.html\')'
p3368
sS'func'
p3369
S'restricted'
p3370
sa(dp3371
g3342
S'/usr/lib/pymodules/python2.7/gluon/restricted.py'
p3372
sg3344
(dp3373
S'builtincompile'
p3374
S'<built-in function compile>'
p3375
sS'code'
p3376
S'r"response.write(\'<!DOCTYPE html>\\n<!-- paulirish....ponse.write(\'\\n</body>\\n</html>\\n\', escape=False)"'
p3377
sS'code.rstrip'
p3378
S'<built-in method rstrip of str object>'
p3379
sS').replace'
p3380
g3353
sS'layer'
p3381
S"'/home/mukul/web2py/applications/blogpost/views/default/show.html'"
p3382
ssg3354
I189
sg3355
(dp3383
I192
S'    """'
p3384
sI193
S'    runs code in environment and returns the output. if an exception occurs'
p3385
sI184
S''
sI185
S'def compile2(code,layer):'
p3386
sI186
S'    """'
p3387
sI187
S"    The +'\\n' is necessary else compile fails when code ends in a comment."
p3388
sI188
S'    """'
p3389
sI189
S"    return compile(code.rstrip().replace('\\r\\n','\\n')+'\\n', layer, 'exec')"
p3390
sI190
S''
sI191
S"def restricted(code, environment=None, layer='Unknown'):"
p3391
ssg3367
S'(code=r"response.write(\'<!DOCTYPE html>\\n<!-- paulirish....ponse.write(\'\\n</body>\\n</html>\\n\', escape=False)", layer=\'/home/mukul/web2py/applications/blogpost/views/default/show.html\')'
p3392
sg3369
S'compile2'
p3393
sasS'pyver'
p3394
S'Python 2.7.3: /usr/bin/python'
p3395
sS'session'
p3396
g69
(g70
g71
NtRp3397
(dp3398
g74
(dp3399
sg76
(lp3400
g69
(g78
g71
NtRp3401
(dp3402
g74
(dp3403
g82
I5
ssg83
Nsg76
(lp3404
g69
(g85
g71
NtRp3405
(dp3406
g74
(dp3407
sg83
g3401
sg76
(lp3408
g69
(g90
g71
NtRp3409
(dp3410
g74
(dp3411
g94
g95
ssg83
g3405
sg76
(lp3412
S'auth'
p3413
asbag69
(g90
g71
NtRp3414
(dp3415
g74
(dp3416
g101
g102
ssg83
g3405
sg76
(lp3417
S':'
asbag69
(g90
g71
NtRp3418
(dp3419
g74
(dp3420
sg83
g3405
sg76
(lp3421
g69
(g70
g71
NtRp3422
(dp3423
g74
(dp3424
g82
I5
ssg83
g3418
sg76
(lp3425
g69
(g78
g71
NtRp3426
(dp3427
g74
(dp3428
g82
I4
ssg83
Nsg76
(lp3429
g69
(g85
g71
NtRp3430
(dp3431
g74
(dp3432
sg83
g3426
sg76
(lp3433
g69
(g90
g71
NtRp3434
(dp3435
g74
(dp3436
g94
g95
ssg83
g3430
sg76
(lp3437
S'expiration'
p3438
asbag69
(g90
g71
NtRp3439
(dp3440
g74
(dp3441
g101
g102
ssg83
g3430
sg76
(lp3442
S':'
asbag69
(g90
g71
NtRp3443
(dp3444
g74
(dp3445
sg83
g3430
sg76
(lp3446
g69
(g70
g71
NtRp3447
(dp3448
g74
(dp3449
g82
I4
ssg83
g3443
sg76
(lp3450
S'3600'
p3451
asbasbasbag69
(g85
g71
NtRp3452
(dp3453
g74
(dp3454
sg83
g3426
sg76
(lp3455
g69
(g90
g71
NtRp3456
(dp3457
g74
(dp3458
g94
g95
ssg83
g3452
sg76
(lp3459
S'hmac_key'
p3460
asbag69
(g90
g71
NtRp3461
(dp3462
g74
(dp3463
g101
g102
ssg83
g3452
sg76
(lp3464
S':'
asbag69
(g90
g71
NtRp3465
(dp3466
g74
(dp3467
sg83
g3452
sg76
(lp3468
g69
(g70
g71
NtRp3469
(dp3470
g74
(dp3471
g82
I4
ssg83
g3465
sg76
(lp3472
S'58e4f6da-e68c-4006-9681-e7cdf60f71ad'
p3473
asbasbasbag69
(g85
g71
NtRp3474
(dp3475
g74
(dp3476
sg83
g3426
sg76
(lp3477
g69
(g90
g71
NtRp3478
(dp3479
g74
(dp3480
g94
g95
ssg83
g3474
sg76
(lp3481
S'last_visit'
p3482
asbag69
(g90
g71
NtRp3483
(dp3484
g74
(dp3485
g101
g102
ssg83
g3474
sg76
(lp3486
S':'
asbag69
(g90
g71
NtRp3487
(dp3488
g74
(dp3489
sg83
g3474
sg76
(lp3490
g69
(g70
g71
NtRp3491
(dp3492
g74
(dp3493
g82
I4
ssg83
g3487
sg76
(lp3494
S'datetime.datetime(2016, 5, 14, 20, 16, 6, 547115)'
p3495
asbasbasbag69
(g85
g71
NtRp3496
(dp3497
g74
(dp3498
sg83
g3426
sg76
(lp3499
g69
(g90
g71
NtRp3500
(dp3501
g74
(dp3502
g94
g95
ssg83
g3496
sg76
(lp3503
S'user'
p3504
asbag69
(g90
g71
NtRp3505
(dp3506
g74
(dp3507
g101
g102
ssg83
g3496
sg76
(lp3508
S':'
asbag69
(g90
g71
NtRp3509
(dp3510
g74
(dp3511
sg83
g3496
sg76
(lp3512
g69
(g70
g71
NtRp3513
(dp3514
g74
(dp3515
g82
I4
ssg83
g3509
sg76
(lp3516
g69
(g78
g71
NtRp3517
(dp3518
g74
(dp3519
g82
I3
ssg83
Nsg76
(lp3520
g69
(g85
g71
NtRp3521
(dp3522
g74
(dp3523
sg83
g3517
sg76
(lp3524
g69
(g90
g71
NtRp3525
(dp3526
g74
(dp3527
g94
g95
ssg83
g3521
sg76
(lp3528
S'email'
p3529
asbag69
(g90
g71
NtRp3530
(dp3531
g74
(dp3532
g101
g102
ssg83
g3521
sg76
(lp3533
S':'
asbag69
(g90
g71
NtRp3534
(dp3535
g74
(dp3536
sg83
g3521
sg76
(lp3537
g69
(g70
g71
NtRp3538
(dp3539
g74
(dp3540
g82
I3
ssg83
g3534
sg76
(lp3541
S'mukulkathpalia@gmail.com'
p3542
asbasbasbag69
(g85
g71
NtRp3543
(dp3544
g74
(dp3545
sg83
g3517
sg76
(lp3546
g69
(g90
g71
NtRp3547
(dp3548
g74
(dp3549
g94
g95
ssg83
g3543
sg76
(lp3550
S'first_name'
p3551
asbag69
(g90
g71
NtRp3552
(dp3553
g74
(dp3554
g101
g102
ssg83
g3543
sg76
(lp3555
S':'
asbag69
(g90
g71
NtRp3556
(dp3557
g74
(dp3558
sg83
g3543
sg76
(lp3559
g69
(g70
g71
NtRp3560
(dp3561
g74
(dp3562
g82
I3
ssg83
g3556
sg76
(lp3563
S'mukul'
p3564
asbasbasbag69
(g85
g71
NtRp3565
(dp3566
g74
(dp3567
sg83
g3517
sg76
(lp3568
g69
(g90
g71
NtRp3569
(dp3570
g74
(dp3571
g94
g95
ssg83
g3565
sg76
(lp3572
S'id'
p3573
asbag69
(g90
g71
NtRp3574
(dp3575
g74
(dp3576
g101
g102
ssg83
g3565
sg76
(lp3577
S':'
asbag69
(g90
g71
NtRp3578
(dp3579
g74
(dp3580
sg83
g3565
sg76
(lp3581
g69
(g70
g71
NtRp3582
(dp3583
g74
(dp3584
g82
I3
ssg83
g3578
sg76
(lp3585
S'1'
asbasbasbag69
(g85
g71
NtRp3586
(dp3587
g74
(dp3588
sg83
g3517
sg76
(lp3589
g69
(g90
g71
NtRp3590
(dp3591
g74
(dp3592
g94
g95
ssg83
g3586
sg76
(lp3593
S'last_name'
p3594
asbag69
(g90
g71
NtRp3595
(dp3596
g74
(dp3597
g101
g102
ssg83
g3586
sg76
(lp3598
S':'
asbag69
(g90
g71
NtRp3599
(dp3600
g74
(dp3601
sg83
g3586
sg76
(lp3602
g69
(g70
g71
NtRp3603
(dp3604
g74
(dp3605
g82
I3
ssg83
g3599
sg76
(lp3606
S'kathpalia'
p3607
asbasbasbag69
(g85
g71
NtRp3608
(dp3609
g74
(dp3610
sg83
g3517
sg76
(lp3611
g69
(g90
g71
NtRp3612
(dp3613
g74
(dp3614
g94
g95
ssg83
g3608
sg76
(lp3615
S'password'
p3616
asbag69
(g90
g71
NtRp3617
(dp3618
g74
(dp3619
g101
g102
ssg83
g3608
sg76
(lp3620
S':'
asbag69
(g90
g71
NtRp3621
(dp3622
g74
(dp3623
sg83
g3608
sg76
(lp3624
g69
(g70
g71
NtRp3625
(dp3626
g74
(dp3627
g82
I3
ssg83
g3621
sg76
(lp3628
S'80aeb2ab48c122c2c0b4eeef2ef83fb4'
p3629
asbasbasbag69
(g85
g71
NtRp3630
(dp3631
g74
(dp3632
sg83
g3517
sg76
(lp3633
g69
(g90
g71
NtRp3634
(dp3635
g74
(dp3636
g94
g95
ssg83
g3630
sg76
(lp3637
S'registration_id'
p3638
asbag69
(g90
g71
NtRp3639
(dp3640
g74
(dp3641
g101
g102
ssg83
g3630
sg76
(lp3642
S':'
asbag69
(g90
g71
NtRp3643
(dp3644
g74
(dp3645
sg83
g3630
sg76
(lp3646
g69
(g70
g71
NtRp3647
(dp3648
g74
(dp3649
g82
I3
ssg83
g3643
sg76
(lp3650
S''
asbasbasbag69
(g85
g71
NtRp3651
(dp3652
g74
(dp3653
sg83
g3517
sg76
(lp3654
g69
(g90
g71
NtRp3655
(dp3656
g74
(dp3657
g94
g95
ssg83
g3651
sg76
(lp3658
S'registration_key'
p3659
asbag69
(g90
g71
NtRp3660
(dp3661
g74
(dp3662
g101
g102
ssg83
g3651
sg76
(lp3663
S':'
asbag69
(g90
g71
NtRp3664
(dp3665
g74
(dp3666
sg83
g3651
sg76
(lp3667
g69
(g70
g71
NtRp3668
(dp3669
g74
(dp3670
g82
I3
ssg83
g3664
sg76
(lp3671
S''
asbasbasbag69
(g85
g71
NtRp3672
(dp3673
g74
(dp3674
sg83
g3517
sg76
(lp3675
g69
(g90
g71
NtRp3676
(dp3677
g74
(dp3678
g94
g95
ssg83
g3672
sg76
(lp3679
S'reset_password_key'
p3680
asbag69
(g90
g71
NtRp3681
(dp3682
g74
(dp3683
g101
g102
ssg83
g3672
sg76
(lp3684
S':'
asbag69
(g90
g71
NtRp3685
(dp3686
g74
(dp3687
sg83
g3672
sg76
(lp3688
g69
(g70
g71
NtRp3689
(dp3690
g74
(dp3691
g82
I3
ssg83
g3685
sg76
(lp3692
S''
asbasbasbasbasbasbasbasbasbasbasbag69
(g85
g71
NtRp3693
(dp3694
g74
(dp3695
sg83
g3401
sg76
(lp3696
g69
(g90
g71
NtRp3697
(dp3698
g74
(dp3699
g94
g95
ssg83
g3693
sg76
(lp3700
S'last_query'
p3701
asbag69
(g90
g71
NtRp3702
(dp3703
g74
(dp3704
g101
g102
ssg83
g3693
sg76
(lp3705
S':'
asbag69
(g90
g71
NtRp3706
(dp3707
g74
(dp3708
sg83
g3693
sg76
(lp3709
g69
(g70
g71
NtRp3710
(dp3711
g74
(dp3712
g82
I5
ssg83
g3706
sg76
(lp3713
S'db.content.id>0'
p3714
asbasbasbasbasbsS'etype'
p3715
S"<type 'exceptions.SyntaxError'>"
p3716
sS'date'
p3717
S'Sat May 14 20:21:03 2016'
p3718
sS'response'
p3719
g69
(g70
g71
NtRp3720
(dp3721
g74
(dp3722
sg76
(lp3723
g69
(g78
g71
NtRp3724
(dp3725
g74
(dp3726
g82
I5
ssg83
Nsg76
(lp3727
g69
(g85
g71
NtRp3728
(dp3729
g74
(dp3730
sg83
g3724
sg76
(lp3731
g69
(g90
g71
NtRp3732
(dp3733
g74
(dp3734
g94
g95
ssg83
g3728
sg76
(lp3735
g167
asbag69
(g90
g71
NtRp3736
(dp3737
g74
(dp3738
g101
g102
ssg83
g3728
sg76
(lp3739
S':'
asbag69
(g90
g71
NtRp3740
(dp3741
g74
(dp3742
sg83
g3728
sg76
(lp3743
g69
(g70
g71
NtRp3744
(dp3745
g74
(dp3746
g82
I5
ssg83
g3740
sg76
(lp3747
S'<cStringIO.StringO object at 0x9997e20>'
p3748
asbasbasbag69
(g85
g71
NtRp3749
(dp3750
g74
(dp3751
sg83
g3724
sg76
(lp3752
g69
(g90
g71
NtRp3753
(dp3754
g74
(dp3755
g94
g95
ssg83
g3749
sg76
(lp3756
g233
asbag69
(g90
g71
NtRp3757
(dp3758
g74
(dp3759
g101
g102
ssg83
g3749
sg76
(lp3760
S':'
asbag69
(g90
g71
NtRp3761
(dp3762
g74
(dp3763
sg83
g3749
sg76
(lp3764
g69
(g70
g71
NtRp3765
(dp3766
g74
(dp3767
g82
I5
ssg83
g3761
sg76
(lp3768
g69
(g78
g71
NtRp3769
(dp3770
g74
(dp3771
g82
I4
ssg83
Nsg76
(lp3772
g69
(g85
g71
NtRp3773
(dp3774
g74
(dp3775
sg83
g3769
sg76
(lp3776
g69
(g90
g71
NtRp3777
(dp3778
g74
(dp3779
g94
g95
ssg83
g3773
sg76
(lp3780
S'session_id_blogpost'
p3781
asbag69
(g90
g71
NtRp3782
(dp3783
g74
(dp3784
g101
g102
ssg83
g3773
sg76
(lp3785
S':'
asbag69
(g90
g71
NtRp3786
(dp3787
g74
(dp3788
sg83
g3773
sg76
(lp3789
g69
(g70
g71
NtRp3790
(dp3791
g74
(dp3792
g82
I4
ssg83
g3786
sg76
(lp3793
g69
(g78
g71
NtRp3794
(dp3795
g74
(dp3796
g82
I3
ssg83
Nsg76
(lp3797
g69
(g85
g71
NtRp3798
(dp3799
g74
(dp3800
sg83
g3794
sg76
(lp3801
g69
(g90
g71
NtRp3802
(dp3803
g74
(dp3804
g94
g95
ssg83
g3798
sg76
(lp3805
g283
asbag69
(g90
g71
NtRp3806
(dp3807
g74
(dp3808
g101
g102
ssg83
g3798
sg76
(lp3809
S':'
asbag69
(g90
g71
NtRp3810
(dp3811
g74
(dp3812
sg83
g3798
sg76
(lp3813
g69
(g70
g71
NtRp3814
(dp3815
g74
(dp3816
g82
I3
ssg83
g3810
sg76
(lp3817
S''
asbasbasbag69
(g85
g71
NtRp3818
(dp3819
g74
(dp3820
sg83
g3794
sg76
(lp3821
g69
(g90
g71
NtRp3822
(dp3823
g74
(dp3824
g94
g95
ssg83
g3818
sg76
(lp3825
g304
asbag69
(g90
g71
NtRp3826
(dp3827
g74
(dp3828
g101
g102
ssg83
g3818
sg76
(lp3829
S':'
asbag69
(g90
g71
NtRp3830
(dp3831
g74
(dp3832
sg83
g3818
sg76
(lp3833
g69
(g70
g71
NtRp3834
(dp3835
g74
(dp3836
g82
I3
ssg83
g3830
sg76
(lp3837
S''
asbasbasbag69
(g85
g71
NtRp3838
(dp3839
g74
(dp3840
sg83
g3794
sg76
(lp3841
g69
(g90
g71
NtRp3842
(dp3843
g74
(dp3844
g94
g95
ssg83
g3838
sg76
(lp3845
g325
asbag69
(g90
g71
NtRp3846
(dp3847
g74
(dp3848
g101
g102
ssg83
g3838
sg76
(lp3849
S':'
asbag69
(g90
g71
NtRp3850
(dp3851
g74
(dp3852
sg83
g3838
sg76
(lp3853
g69
(g70
g71
NtRp3854
(dp3855
g74
(dp3856
g82
I3
ssg83
g3850
sg76
(lp3857
S''
asbasbasbag69
(g85
g71
NtRp3858
(dp3859
g74
(dp3860
sg83
g3794
sg76
(lp3861
g69
(g90
g71
NtRp3862
(dp3863
g74
(dp3864
g94
g95
ssg83
g3858
sg76
(lp3865
g346
asbag69
(g90
g71
NtRp3866
(dp3867
g74
(dp3868
g101
g102
ssg83
g3858
sg76
(lp3869
S':'
asbag69
(g90
g71
NtRp3870
(dp3871
g74
(dp3872
sg83
g3858
sg76
(lp3873
g69
(g70
g71
NtRp3874
(dp3875
g74
(dp3876
g82
I3
ssg83
g3870
sg76
(lp3877
S''
asbasbasbag69
(g85
g71
NtRp3878
(dp3879
g74
(dp3880
sg83
g3794
sg76
(lp3881
g69
(g90
g71
NtRp3882
(dp3883
g74
(dp3884
g94
g95
ssg83
g3878
sg76
(lp3885
g367
asbag69
(g90
g71
NtRp3886
(dp3887
g74
(dp3888
g101
g102
ssg83
g3878
sg76
(lp3889
S':'
asbag69
(g90
g71
NtRp3890
(dp3891
g74
(dp3892
sg83
g3878
sg76
(lp3893
g69
(g70
g71
NtRp3894
(dp3895
g74
(dp3896
g82
I3
ssg83
g3890
sg76
(lp3897
S''
asbasbasbag69
(g85
g71
NtRp3898
(dp3899
g74
(dp3900
sg83
g3794
sg76
(lp3901
g69
(g90
g71
NtRp3902
(dp3903
g74
(dp3904
g94
g95
ssg83
g3898
sg76
(lp3905
g388
asbag69
(g90
g71
NtRp3906
(dp3907
g74
(dp3908
g101
g102
ssg83
g3898
sg76
(lp3909
S':'
asbag69
(g90
g71
NtRp3910
(dp3911
g74
(dp3912
sg83
g3898
sg76
(lp3913
g69
(g70
g71
NtRp3914
(dp3915
g74
(dp3916
g82
I3
ssg83
g3910
sg76
(lp3917
S'/'
asbasbasbag69
(g85
g71
NtRp3918
(dp3919
g74
(dp3920
sg83
g3794
sg76
(lp3921
g69
(g90
g71
NtRp3922
(dp3923
g74
(dp3924
g94
g95
ssg83
g3918
sg76
(lp3925
g409
asbag69
(g90
g71
NtRp3926
(dp3927
g74
(dp3928
g101
g102
ssg83
g3918
sg76
(lp3929
S':'
asbag69
(g90
g71
NtRp3930
(dp3931
g74
(dp3932
sg83
g3918
sg76
(lp3933
g69
(g70
g71
NtRp3934
(dp3935
g74
(dp3936
g82
I3
ssg83
g3930
sg76
(lp3937
S''
asbasbasbag69
(g85
g71
NtRp3938
(dp3939
g74
(dp3940
sg83
g3794
sg76
(lp3941
g69
(g90
g71
NtRp3942
(dp3943
g74
(dp3944
g94
g95
ssg83
g3938
sg76
(lp3945
g430
asbag69
(g90
g71
NtRp3946
(dp3947
g74
(dp3948
g101
g102
ssg83
g3938
sg76
(lp3949
S':'
asbag69
(g90
g71
NtRp3950
(dp3951
g74
(dp3952
sg83
g3938
sg76
(lp3953
g69
(g70
g71
NtRp3954
(dp3955
g74
(dp3956
g82
I3
ssg83
g3950
sg76
(lp3957
S''
asbasbasbasbasbasbasbasbasbasbasbag69
(g85
g71
NtRp3958
(dp3959
g74
(dp3960
sg83
g3724
sg76
(lp3961
g69
(g90
g71
NtRp3962
(dp3963
g74
(dp3964
g94
g95
ssg83
g3958
sg76
(lp3965
S'files'
p3966
asbag69
(g90
g71
NtRp3967
(dp3968
g74
(dp3969
g101
g102
ssg83
g3958
sg76
(lp3970
S':'
asbag69
(g90
g71
NtRp3971
(dp3972
g74
(dp3973
sg83
g3958
sg76
(lp3974
g69
(g70
g71
NtRp3975
(dp3976
g74
(dp3977
g82
I5
ssg83
g3971
sg76
(lp3978
g69
(g78
g71
NtRp3979
(dp3980
g74
(dp3981
g82
I4
ssg83
Nsg76
(lp3982
sbasbasbasbag69
(g85
g71
NtRp3983
(dp3984
g74
(dp3985
sg83
g3724
sg76
(lp3986
g69
(g90
g71
NtRp3987
(dp3988
g74
(dp3989
g94
g95
ssg83
g3983
sg76
(lp3990
S'flash'
p3991
asbag69
(g90
g71
NtRp3992
(dp3993
g74
(dp3994
g101
g102
ssg83
g3983
sg76
(lp3995
S':'
asbag69
(g90
g71
NtRp3996
(dp3997
g74
(dp3998
sg83
g3983
sg76
(lp3999
g69
(g70
g71
NtRp4000
(dp4001
g74
(dp4002
g82
I5
ssg83
g3996
sg76
(lp4003
S''
asbasbasbag69
(g85
g71
NtRp4004
(dp4005
g74
(dp4006
sg83
g3724
sg76
(lp4007
g69
(g90
g71
NtRp4008
(dp4009
g74
(dp4010
g94
g95
ssg83
g4004
sg76
(lp4011
S'generic_patterns'
p4012
asbag69
(g90
g71
NtRp4013
(dp4014
g74
(dp4015
g101
g102
ssg83
g4004
sg76
(lp4016
S':'
asbag69
(g90
g71
NtRp4017
(dp4018
g74
(dp4019
sg83
g4004
sg76
(lp4020
g69
(g70
g71
NtRp4021
(dp4022
g74
(dp4023
g82
I5
ssg83
g4017
sg76
(lp4024
g69
(g78
g71
NtRp4025
(dp4026
g74
(dp4027
g82
I4
ssg83
Nsg76
(lp4028
g69
(g85
g71
NtRp4029
(dp4030
g74
(dp4031
sg83
g4025
sg76
(lp4032
g69
(g90
g71
NtRp4033
(dp4034
g74
(dp4035
sg83
g4029
sg76
(lp4036
g69
(g70
g71
NtRp4037
(dp4038
g74
(dp4039
g82
I4
ssg83
g4033
sg76
(lp4040
S'*'
asbasbasbasbasbasbasbag69
(g85
g71
NtRp4041
(dp4042
g74
(dp4043
sg83
g3724
sg76
(lp4044
g69
(g90
g71
NtRp4045
(dp4046
g74
(dp4047
g94
g95
ssg83
g4041
sg76
(lp4048
S'headers'
p4049
asbag69
(g90
g71
NtRp4050
(dp4051
g74
(dp4052
g101
g102
ssg83
g4041
sg76
(lp4053
S':'
asbag69
(g90
g71
NtRp4054
(dp4055
g74
(dp4056
sg83
g4041
sg76
(lp4057
g69
(g70
g71
NtRp4058
(dp4059
g74
(dp4060
g82
I5
ssg83
g4054
sg76
(lp4061
g69
(g78
g71
NtRp4062
(dp4063
g74
(dp4064
g82
I4
ssg83
Nsg76
(lp4065
g69
(g85
g71
NtRp4066
(dp4067
g74
(dp4068
sg83
g4062
sg76
(lp4069
g69
(g90
g71
NtRp4070
(dp4071
g74
(dp4072
g94
g95
ssg83
g4066
sg76
(lp4073
S'Cache-Control'
p4074
asbag69
(g90
g71
NtRp4075
(dp4076
g74
(dp4077
g101
g102
ssg83
g4066
sg76
(lp4078
S':'
asbag69
(g90
g71
NtRp4079
(dp4080
g74
(dp4081
sg83
g4066
sg76
(lp4082
g69
(g70
g71
NtRp4083
(dp4084
g74
(dp4085
g82
I4
ssg83
g4079
sg76
(lp4086
S'no-store, no-cache, must-revalidate, post-check=0, pre-check=0'
p4087
asbasbasbag69
(g85
g71
NtRp4088
(dp4089
g74
(dp4090
sg83
g4062
sg76
(lp4091
g69
(g90
g71
NtRp4092
(dp4093
g74
(dp4094
g94
g95
ssg83
g4088
sg76
(lp4095
S'Content-Type'
p4096
asbag69
(g90
g71
NtRp4097
(dp4098
g74
(dp4099
g101
g102
ssg83
g4088
sg76
(lp4100
S':'
asbag69
(g90
g71
NtRp4101
(dp4102
g74
(dp4103
sg83
g4088
sg76
(lp4104
g69
(g70
g71
NtRp4105
(dp4106
g74
(dp4107
g82
I4
ssg83
g4101
sg76
(lp4108
S'text/html; charset=utf-8'
p4109
asbasbasbag69
(g85
g71
NtRp4110
(dp4111
g74
(dp4112
sg83
g4062
sg76
(lp4113
g69
(g90
g71
NtRp4114
(dp4115
g74
(dp4116
g94
g95
ssg83
g4110
sg76
(lp4117
S'Expires'
p4118
asbag69
(g90
g71
NtRp4119
(dp4120
g74
(dp4121
g101
g102
ssg83
g4110
sg76
(lp4122
S':'
asbag69
(g90
g71
NtRp4123
(dp4124
g74
(dp4125
sg83
g4110
sg76
(lp4126
g69
(g70
g71
NtRp4127
(dp4128
g74
(dp4129
g82
I4
ssg83
g4123
sg76
(lp4130
S'Sat, 14 May 2016 14:51:03 GMT'
p4131
asbasbasbag69
(g85
g71
NtRp4132
(dp4133
g74
(dp4134
sg83
g4062
sg76
(lp4135
g69
(g90
g71
NtRp4136
(dp4137
g74
(dp4138
g94
g95
ssg83
g4132
sg76
(lp4139
S'Pragma'
p4140
asbag69
(g90
g71
NtRp4141
(dp4142
g74
(dp4143
g101
g102
ssg83
g4132
sg76
(lp4144
S':'
asbag69
(g90
g71
NtRp4145
(dp4146
g74
(dp4147
sg83
g4132
sg76
(lp4148
g69
(g70
g71
NtRp4149
(dp4150
g74
(dp4151
g82
I4
ssg83
g4145
sg76
(lp4152
S'no-cache'
p4153
asbasbasbag69
(g85
g71
NtRp4154
(dp4155
g74
(dp4156
sg83
g4062
sg76
(lp4157
g69
(g90
g71
NtRp4158
(dp4159
g74
(dp4160
g94
g95
ssg83
g4154
sg76
(lp4161
S'X-Powered-By'
p4162
asbag69
(g90
g71
NtRp4163
(dp4164
g74
(dp4165
g101
g102
ssg83
g4154
sg76
(lp4166
S':'
asbag69
(g90
g71
NtRp4167
(dp4168
g74
(dp4169
sg83
g4154
sg76
(lp4170
g69
(g70
g71
NtRp4171
(dp4172
g74
(dp4173
g82
I4
ssg83
g4167
sg76
(lp4174
S'web2py'
p4175
asbasbasbasbasbasbasbag69
(g85
g71
NtRp4176
(dp4177
g74
(dp4178
sg83
g3724
sg76
(lp4179
g69
(g90
g71
NtRp4180
(dp4181
g74
(dp4182
g94
g95
ssg83
g4176
sg76
(lp4183
S'menu'
p4184
asbag69
(g90
g71
NtRp4185
(dp4186
g74
(dp4187
g101
g102
ssg83
g4176
sg76
(lp4188
S':'
asbag69
(g90
g71
NtRp4189
(dp4190
g74
(dp4191
sg83
g4176
sg76
(lp4192
g69
(g70
g71
NtRp4193
(dp4194
g74
(dp4195
g82
I5
ssg83
g4189
sg76
(lp4196
g69
(g78
g71
NtRp4197
(dp4198
g74
(dp4199
g82
I4
ssg83
Nsg76
(lp4200
g69
(g85
g71
NtRp4201
(dp4202
g74
(dp4203
sg83
g4197
sg76
(lp4204
g69
(g90
g71
NtRp4205
(dp4206
g74
(dp4207
sg83
g4201
sg76
(lp4208
g69
(g70
g71
NtRp4209
(dp4210
g74
(dp4211
g82
I4
ssg83
g4205
sg76
(lp4212
g69
(g78
g71
NtRp4213
(dp4214
g74
(dp4215
g82
I3
ssg83
Nsg76
(lp4216
g69
(g85
g71
NtRp4217
(dp4218
g74
(dp4219
sg83
g4213
sg76
(lp4220
g69
(g90
g71
NtRp4221
(dp4222
g74
(dp4223
sg83
g4217
sg76
(lp4224
g69
(g70
g71
NtRp4225
(dp4226
g74
(dp4227
g82
I3
ssg83
g4221
sg76
(lp4228
cgluon.languages
lazyT_unpickle
p4229
(S't\x04\x00\x00\x00Home'
tRp4230
asbasbasbag69
(g85
g71
NtRp4231
(dp4232
g74
(dp4233
sg83
g4213
sg76
(lp4234
g69
(g90
g71
NtRp4235
(dp4236
g74
(dp4237
sg83
g4231
sg76
(lp4238
g69
(g70
g71
NtRp4239
(dp4240
g74
(dp4241
g82
I3
ssg83
g4235
sg76
(lp4242
g112
asbasbasbag69
(g85
g71
NtRp4243
(dp4244
g74
(dp4245
sg83
g4213
sg76
(lp4246
g69
(g90
g71
NtRp4247
(dp4248
g74
(dp4249
sg83
g4243
sg76
(lp4250
g69
(g70
g71
NtRp4251
(dp4252
g74
(dp4253
g82
I3
ssg83
g4247
sg76
(lp4254
S'/blogpost/default/index'
p4255
asbasbasbag69
(g85
g71
NtRp4256
(dp4257
g74
(dp4258
sg83
g4213
sg76
(lp4259
g69
(g90
g71
NtRp4260
(dp4261
g74
(dp4262
sg83
g4256
sg76
(lp4263
g69
(g70
g71
NtRp4264
(dp4265
g74
(dp4266
g82
I3
ssg83
g4260
sg76
(lp4267
g69
(g78
g71
NtRp4268
(dp4269
g74
(dp4270
g82
I2
ssg83
Nsg76
(lp4271
sbasbasbasbasbasbasbasbag69
(g85
g71
NtRp4272
(dp4273
g74
(dp4274
sg83
g4197
sg76
(lp4275
g69
(g90
g71
NtRp4276
(dp4277
g74
(dp4278
sg83
g4272
sg76
(lp4279
g69
(g70
g71
NtRp4280
(dp4281
g74
(dp4282
g82
I4
ssg83
g4276
sg76
(lp4283
g69
(g78
g71
NtRp4284
(dp4285
g74
(dp4286
g82
I3
ssg83
Nsg76
(lp4287
g69
(g85
g71
NtRp4288
(dp4289
g74
(dp4290
sg83
g4284
sg76
(lp4291
g69
(g90
g71
NtRp4292
(dp4293
g74
(dp4294
sg83
g4288
sg76
(lp4295
g69
(g70
g71
NtRp4296
(dp4297
g74
(dp4298
g82
I3
ssg83
g4292
sg76
(lp4299
g69
(cgluon.html
SPAN
p4300
g71
NtRp4301
(dp4302
g74
(dp4303
g94
S'color:yellow'
p4304
ssg83
Nsg76
(lp4305
g4175
asbasbasbasbag69
(g85
g71
NtRp4306
(dp4307
g74
(dp4308
sg83
g4284
sg76
(lp4309
g69
(g90
g71
NtRp4310
(dp4311
g74
(dp4312
sg83
g4306
sg76
(lp4313
g69
(g70
g71
NtRp4314
(dp4315
g74
(dp4316
g82
I3
ssg83
g4310
sg76
(lp4317
g112
asbasbasbag69
(g85
g71
NtRp4318
(dp4319
g74
(dp4320
sg83
g4284
sg76
(lp4321
g69
(g90
g71
NtRp4322
(dp4323
g74
(dp4324
sg83
g4318
sg76
(lp4325
g69
(g70
g71
NtRp4326
(dp4327
g74
(dp4328
g82
I3
ssg83
g4322
sg76
(lp4329
S'None'
p4330
asbasbasbag69
(g85
g71
NtRp4331
(dp4332
g74
(dp4333
sg83
g4284
sg76
(lp4334
g69
(g90
g71
NtRp4335
(dp4336
g74
(dp4337
sg83
g4331
sg76
(lp4338
g69
(g70
g71
NtRp4339
(dp4340
g74
(dp4341
g82
I3
ssg83
g4335
sg76
(lp4342
g69
(g78
g71
NtRp4343
(dp4344
g74
(dp4345
g82
I2
ssg83
Nsg76
(lp4346
g69
(g85
g71
NtRp4347
(dp4348
g74
(dp4349
sg83
g4343
sg76
(lp4350
g69
(g90
g71
NtRp4351
(dp4352
g74
(dp4353
sg83
g4347
sg76
(lp4354
g69
(g70
g71
NtRp4355
(dp4356
g74
(dp4357
g82
I2
ssg83
g4351
sg76
(lp4358
g69
(g78
g71
NtRp4359
(dp4360
g74
(dp4361
g82
I1
ssg83
Nsg76
(lp4362
g69
(g85
g71
NtRp4363
(dp4364
g74
(dp4365
sg83
g4359
sg76
(lp4366
g69
(g90
g71
NtRp4367
(dp4368
g74
(dp4369
sg83
g4363
sg76
(lp4370
g69
(g70
g71
NtRp4371
(dp4372
g74
(dp4373
g82
I1
ssg83
g4367
sg76
(lp4374
g4229
(S's\x08\x00\x00\x00My Sites'
tRp4375
asbasbasbag69
(g85
g71
NtRp4376
(dp4377
g74
(dp4378
sg83
g4359
sg76
(lp4379
g69
(g90
g71
NtRp4380
(dp4381
g74
(dp4382
sg83
g4376
sg76
(lp4383
g69
(g70
g71
NtRp4384
(dp4385
g74
(dp4386
g82
I1
ssg83
g4380
sg76
(lp4387
I00
asbasbasbag69
(g85
g71
NtRp4388
(dp4389
g74
(dp4390
sg83
g4359
sg76
(lp4391
g69
(g90
g71
NtRp4392
(dp4393
g74
(dp4394
sg83
g4388
sg76
(lp4395
g69
(g70
g71
NtRp4396
(dp4397
g74
(dp4398
g82
I1
ssg83
g4392
sg76
(lp4399
S'/admin/default/site'
p4400
asbasbasbasbasbasbasbag69
(g85
g71
NtRp4401
(dp4402
g74
(dp4403
sg83
g4343
sg76
(lp4404
g69
(g90
g71
NtRp4405
(dp4406
g74
(dp4407
sg83
g4401
sg76
(lp4408
g69
(g70
g71
NtRp4409
(dp4410
g74
(dp4411
g82
I2
ssg83
g4405
sg76
(lp4412
g69
(g78
g71
NtRp4413
(dp4414
g74
(dp4415
g82
I1
ssg83
Nsg76
(lp4416
g69
(g85
g71
NtRp4417
(dp4418
g74
(dp4419
sg83
g4413
sg76
(lp4420
g69
(g90
g71
NtRp4421
(dp4422
g74
(dp4423
sg83
g4417
sg76
(lp4424
g69
(g70
g71
NtRp4425
(dp4426
g74
(dp4427
g82
I1
ssg83
g4421
sg76
(lp4428
g4229
(S's\x08\x00\x00\x00This App'
tRp4429
asbasbasbag69
(g85
g71
NtRp4430
(dp4431
g74
(dp4432
sg83
g4413
sg76
(lp4433
g69
(g90
g71
NtRp4434
(dp4435
g74
(dp4436
sg83
g4430
sg76
(lp4437
g69
(g70
g71
NtRp4438
(dp4439
g74
(dp4440
g82
I1
ssg83
g4434
sg76
(lp4441
I00
asbasbasbag69
(g85
g71
NtRp4442
(dp4443
g74
(dp4444
sg83
g4413
sg76
(lp4445
g69
(g90
g71
NtRp4446
(dp4447
g74
(dp4448
sg83
g4442
sg76
(lp4449
g69
(g70
g71
NtRp4450
(dp4451
g74
(dp4452
g82
I1
ssg83
g4446
sg76
(lp4453
S'/admin/default/design/blogpost'
p4454
asbasbasbag69
(g85
g71
NtRp4455
(dp4456
g74
(dp4457
sg83
g4413
sg76
(lp4458
g69
(g90
g71
NtRp4459
(dp4460
g74
(dp4461
sg83
g4455
sg76
(lp4462
g69
(g70
g71
NtRp4463
(dp4464
g74
(dp4465
g82
I1
ssg83
g4459
sg76
(lp4466
(lp4467
(g4229
(S't\n\x00\x00\x00Controller'
tRp4468
I00
S'/admin/default/edit/blogpost/controllers/default.py'
tp4469
a(g4229
(S't\x04\x00\x00\x00View'
tRp4470
I00
S'/admin/default/edit/blogpost/views/default/show.html'
tp4471
a(g4229
(S't\x06\x00\x00\x00Layout'
tRp4472
I00
S'/admin/default/edit/blogpost/views/layout.html'
tp4473
a(g4229
(S't\n\x00\x00\x00Stylesheet'
tRp4474
I00
S'/admin/default/edit/blogpost/static/css/web2py.css'
tp4475
a(g4229
(S's\x08\x00\x00\x00DB Model'
tRp4476
I00
S'/admin/default/edit/blogpost/models/db.py'
tp4477
a(g4229
(S's\n\x00\x00\x00Menu Model'
tRp4478
I00
S'/admin/default/edit/blogpost/models/menu.py'
tp4479
a(g4229
(S't\x08\x00\x00\x00Database'
tRp4480
I00
S'/blogpost/appadmin/index'
tp4481
a(g4229
(S't\x06\x00\x00\x00Errors'
tRp4482
I00
S'/admin/default/errors/blogpost'
tp4483
a(g4229
(S't\x05\x00\x00\x00About'
tRp4484
I00
S'/admin/default/about/blogpost'
tp4485
aasbasbasbasbasbasbasbag69
(g85
g71
NtRp4486
(dp4487
g74
(dp4488
sg83
g4343
sg76
(lp4489
g69
(g90
g71
NtRp4490
(dp4491
g74
(dp4492
sg83
g4486
sg76
(lp4493
g69
(g70
g71
NtRp4494
(dp4495
g74
(dp4496
g82
I2
ssg83
g4490
sg76
(lp4497
g69
(g78
g71
NtRp4498
(dp4499
g74
(dp4500
g82
I1
ssg83
Nsg76
(lp4501
g69
(g85
g71
NtRp4502
(dp4503
g74
(dp4504
sg83
g4498
sg76
(lp4505
g69
(g90
g71
NtRp4506
(dp4507
g74
(dp4508
sg83
g4502
sg76
(lp4509
g69
(g70
g71
NtRp4510
(dp4511
g74
(dp4512
g82
I1
ssg83
g4506
sg76
(lp4513
S'web2py.com'
p4514
asbasbasbag69
(g85
g71
NtRp4515
(dp4516
g74
(dp4517
sg83
g4498
sg76
(lp4518
g69
(g90
g71
NtRp4519
(dp4520
g74
(dp4521
sg83
g4515
sg76
(lp4522
g69
(g70
g71
NtRp4523
(dp4524
g74
(dp4525
g82
I1
ssg83
g4519
sg76
(lp4526
I00
asbasbasbag69
(g85
g71
NtRp4527
(dp4528
g74
(dp4529
sg83
g4498
sg76
(lp4530
g69
(g90
g71
NtRp4531
(dp4532
g74
(dp4533
sg83
g4527
sg76
(lp4534
g69
(g70
g71
NtRp4535
(dp4536
g74
(dp4537
g82
I1
ssg83
g4531
sg76
(lp4538
S'http://www.web2py.com'
p4539
asbasbasbag69
(g85
g71
NtRp4540
(dp4541
g74
(dp4542
sg83
g4498
sg76
(lp4543
g69
(g90
g71
NtRp4544
(dp4545
g74
(dp4546
sg83
g4540
sg76
(lp4547
g69
(g70
g71
NtRp4548
(dp4549
g74
(dp4550
g82
I1
ssg83
g4544
sg76
(lp4551
(lp4552
(g4229
(S't\x08\x00\x00\x00Download'
tRp4553
I00
S'http://www.web2py.com/examples/default/download'
p4554
tp4555
a(g4229
(S't\x07\x00\x00\x00Support'
tRp4556
I00
S'http://www.web2py.com/examples/default/support'
p4557
tp4558
a(g4229
(S't\x04\x00\x00\x00Demo'
tRp4559
I00
S'http://web2py.com/demo_admin'
p4560
tp4561
a(g4229
(S's\x0e\x00\x00\x00Quick Examples'
tRp4562
I00
S'http://web2py.com/examples/default/examples'
p4563
tp4564
a(g4229
(S't\x03\x00\x00\x00FAQ'
tRp4565
I00
S'http://web2py.com/AlterEgo'
p4566
tp4567
a(g4229
(S't\x06\x00\x00\x00Videos'
tRp4568
I00
S'http://www.web2py.com/examples/default/videos/'
p4569
tp4570
a(g4229
(S's\x11\x00\x00\x00Free Applications'
tRp4571
I00
S'http://web2py.com/appliances'
p4572
tp4573
a(g4229
(S't\x07\x00\x00\x00Plugins'
tRp4574
I00
S'http://web2py.com/plugins'
p4575
tp4576
a(g4229
(S't\x07\x00\x00\x00Layouts'
tRp4577
I00
S'http://web2py.com/layouts'
p4578
tp4579
a(g4229
(S't\x07\x00\x00\x00Recipes'
tRp4580
I00
S'http://web2pyslices.com/'
p4581
tp4582
a(g4229
(S't\x08\x00\x00\x00Semantic'
tRp4583
I00
S'http://web2py.com/semantic'
p4584
tp4585
aasbasbasbasbasbasbasbag69
(g85
g71
NtRp4586
(dp4587
g74
(dp4588
sg83
g4343
sg76
(lp4589
g69
(g90
g71
NtRp4590
(dp4591
g74
(dp4592
sg83
g4586
sg76
(lp4593
g69
(g70
g71
NtRp4594
(dp4595
g74
(dp4596
g82
I2
ssg83
g4590
sg76
(lp4597
g69
(g78
g71
NtRp4598
(dp4599
g74
(dp4600
g82
I1
ssg83
Nsg76
(lp4601
g69
(g85
g71
NtRp4602
(dp4603
g74
(dp4604
sg83
g4598
sg76
(lp4605
g69
(g90
g71
NtRp4606
(dp4607
g74
(dp4608
sg83
g4602
sg76
(lp4609
g69
(g70
g71
NtRp4610
(dp4611
g74
(dp4612
g82
I1
ssg83
g4606
sg76
(lp4613
g4229
(S't\r\x00\x00\x00Documentation'
tRp4614
asbasbasbag69
(g85
g71
NtRp4615
(dp4616
g74
(dp4617
sg83
g4598
sg76
(lp4618
g69
(g90
g71
NtRp4619
(dp4620
g74
(dp4621
sg83
g4615
sg76
(lp4622
g69
(g70
g71
NtRp4623
(dp4624
g74
(dp4625
g82
I1
ssg83
g4619
sg76
(lp4626
I00
asbasbasbag69
(g85
g71
NtRp4627
(dp4628
g74
(dp4629
sg83
g4598
sg76
(lp4630
g69
(g90
g71
NtRp4631
(dp4632
g74
(dp4633
sg83
g4627
sg76
(lp4634
g69
(g70
g71
NtRp4635
(dp4636
g74
(dp4637
g82
I1
ssg83
g4631
sg76
(lp4638
S'http://www.web2py.com/book'
p4639
asbasbasbag69
(g85
g71
NtRp4640
(dp4641
g74
(dp4642
sg83
g4598
sg76
(lp4643
g69
(g90
g71
NtRp4644
(dp4645
g74
(dp4646
sg83
g4640
sg76
(lp4647
g69
(g70
g71
NtRp4648
(dp4649
g74
(dp4650
g82
I1
ssg83
g4644
sg76
(lp4651
(lp4652
(g4229
(S't\x07\x00\x00\x00Preface'
tRp4653
I00
S'http://www.web2py.com/book/default/chapter/00'
p4654
tp4655
a(g4229
(S't\x0c\x00\x00\x00Introduction'
tRp4656
I00
S'http://www.web2py.com/book/default/chapter/01'
p4657
tp4658
a(g4229
(S't\x06\x00\x00\x00Python'
tRp4659
I00
S'http://www.web2py.com/book/default/chapter/02'
p4660
tp4661
a(g4229
(S't\x08\x00\x00\x00Overview'
tRp4662
I00
S'http://www.web2py.com/book/default/chapter/03'
p4663
tp4664
a(g4229
(S's\x08\x00\x00\x00The Core'
tRp4665
I00
S'http://www.web2py.com/book/default/chapter/04'
p4666
tp4667
a(g4229
(S's\t\x00\x00\x00The Views'
tRp4668
I00
S'http://www.web2py.com/book/default/chapter/05'
p4669
tp4670
a(g4229
(S't\x08\x00\x00\x00Database'
tRp4671
I00
S'http://www.web2py.com/book/default/chapter/06'
p4672
tp4673
a(g4229
(S's\x14\x00\x00\x00Forms and Validators'
tRp4674
I00
S'http://www.web2py.com/book/default/chapter/07'
p4675
tp4676
a(g4229
(S's\r\x00\x00\x00Email and SMS'
tRp4677
I00
S'http://www.web2py.com/book/default/chapter/08'
p4678
tp4679
a(g4229
(S's\x0e\x00\x00\x00Access Control'
tRp4680
I00
S'http://www.web2py.com/book/default/chapter/09'
p4681
tp4682
a(g4229
(S't\x08\x00\x00\x00Services'
tRp4683
I00
S'http://www.web2py.com/book/default/chapter/10'
p4684
tp4685
a(g4229
(S's\x0c\x00\x00\x00Ajax Recipes'
tRp4686
I00
S'http://www.web2py.com/book/default/chapter/11'
p4687
tp4688
a(g4229
(S's\x16\x00\x00\x00Components and Plugins'
tRp4689
I00
S'http://www.web2py.com/book/default/chapter/12'
p4690
tp4691
a(g4229
(S's\x12\x00\x00\x00Deployment Recipes'
tRp4692
I00
S'http://www.web2py.com/book/default/chapter/13'
p4693
tp4694
a(g4229
(S's\r\x00\x00\x00Other Recipes'
tRp4695
I00
S'http://www.web2py.com/book/default/chapter/14'
p4696
tp4697
a(g4229
(S's\r\x00\x00\x00Buy this book'
tRp4698
I00
S'http://stores.lulu.com/web2py'
p4699
tp4700
aasbasbasbasbasbasbasbag69
(g85
g71
NtRp4701
(dp4702
g74
(dp4703
sg83
g4343
sg76
(lp4704
g69
(g90
g71
NtRp4705
(dp4706
g74
(dp4707
sg83
g4701
sg76
(lp4708
g69
(g70
g71
NtRp4709
(dp4710
g74
(dp4711
g82
I2
ssg83
g4705
sg76
(lp4712
g69
(g78
g71
NtRp4713
(dp4714
g74
(dp4715
g82
I1
ssg83
Nsg76
(lp4716
g69
(g85
g71
NtRp4717
(dp4718
g74
(dp4719
sg83
g4713
sg76
(lp4720
g69
(g90
g71
NtRp4721
(dp4722
g74
(dp4723
sg83
g4717
sg76
(lp4724
g69
(g70
g71
NtRp4725
(dp4726
g74
(dp4727
g82
I1
ssg83
g4721
sg76
(lp4728
g4229
(S't\t\x00\x00\x00Community'
tRp4729
asbasbasbag69
(g85
g71
NtRp4730
(dp4731
g74
(dp4732
sg83
g4713
sg76
(lp4733
g69
(g90
g71
NtRp4734
(dp4735
g74
(dp4736
sg83
g4730
sg76
(lp4737
g69
(g70
g71
NtRp4738
(dp4739
g74
(dp4740
g82
I1
ssg83
g4734
sg76
(lp4741
I00
asbasbasbag69
(g85
g71
NtRp4742
(dp4743
g74
(dp4744
sg83
g4713
sg76
(lp4745
g69
(g90
g71
NtRp4746
(dp4747
g74
(dp4748
sg83
g4742
sg76
(lp4749
g69
(g70
g71
NtRp4750
(dp4751
g74
(dp4752
g82
I1
ssg83
g4746
sg76
(lp4753
Nasbasbasbag69
(g85
g71
NtRp4754
(dp4755
g74
(dp4756
sg83
g4713
sg76
(lp4757
g69
(g90
g71
NtRp4758
(dp4759
g74
(dp4760
sg83
g4754
sg76
(lp4761
g69
(g70
g71
NtRp4762
(dp4763
g74
(dp4764
g82
I1
ssg83
g4758
sg76
(lp4765
(lp4766
(g4229
(S't\x06\x00\x00\x00Groups'
tRp4767
I00
S'http://www.web2py.com/examples/default/usergroups'
p4768
tp4769
a(g4229
(S't\x07\x00\x00\x00Twitter'
tRp4770
I00
S'http://twitter.com/web2py'
p4771
tp4772
a(g4229
(S's\t\x00\x00\x00Live Chat'
tRp4773
I00
S'http://webchat.freenode.net/?channels=web2py'
p4774
tp4775
aasbasbasbasbasbasbasbag69
(g85
g71
NtRp4776
(dp4777
g74
(dp4778
sg83
g4343
sg76
(lp4779
g69
(g90
g71
NtRp4780
(dp4781
g74
(dp4782
sg83
g4776
sg76
(lp4783
g69
(g70
g71
NtRp4784
(dp4785
g74
(dp4786
g82
I2
ssg83
g4780
sg76
(lp4787
g69
(g78
g71
NtRp4788
(dp4789
g74
(dp4790
g82
I1
ssg83
Nsg76
(lp4791
g69
(g85
g71
NtRp4792
(dp4793
g74
(dp4794
sg83
g4788
sg76
(lp4795
g69
(g90
g71
NtRp4796
(dp4797
g74
(dp4798
sg83
g4792
sg76
(lp4799
g69
(g70
g71
NtRp4800
(dp4801
g74
(dp4802
g82
I1
ssg83
g4796
sg76
(lp4803
g4229
(S't\x07\x00\x00\x00Plugins'
tRp4804
asbasbasbag69
(g85
g71
NtRp4805
(dp4806
g74
(dp4807
sg83
g4788
sg76
(lp4808
g69
(g90
g71
NtRp4809
(dp4810
g74
(dp4811
sg83
g4805
sg76
(lp4812
g69
(g70
g71
NtRp4813
(dp4814
g74
(dp4815
g82
I1
ssg83
g4809
sg76
(lp4816
I00
asbasbasbag69
(g85
g71
NtRp4817
(dp4818
g74
(dp4819
sg83
g4788
sg76
(lp4820
g69
(g90
g71
NtRp4821
(dp4822
g74
(dp4823
sg83
g4817
sg76
(lp4824
g69
(g70
g71
NtRp4825
(dp4826
g74
(dp4827
g82
I1
ssg83
g4821
sg76
(lp4828
Nasbasbasbag69
(g85
g71
NtRp4829
(dp4830
g74
(dp4831
sg83
g4788
sg76
(lp4832
g69
(g90
g71
NtRp4833
(dp4834
g74
(dp4835
sg83
g4829
sg76
(lp4836
g69
(g70
g71
NtRp4837
(dp4838
g74
(dp4839
g82
I1
ssg83
g4833
sg76
(lp4840
(lp4841
(S'plugin_wiki'
p4842
I00
S'http://web2py.com/examples/default/download'
p4843
tp4844
a(g4229
(S's\r\x00\x00\x00Other Plugins'
tRp4845
I00
g4575
tp4846
a(g4229
(S's\x0e\x00\x00\x00Layout Plugins'
tRp4847
I00
g4578
tp4848
aasbasbasbasbasbasbasbasbasbasbasbasbasbasbasbasbasbasbasbag69
(g85
g71
NtRp4849
(dp4850
g74
(dp4851
sg83
g3724
sg76
(lp4852
g69
(g90
g71
NtRp4853
(dp4854
g74
(dp4855
g94
g95
ssg83
g4849
sg76
(lp4856
S'meta'
p4857
asbag69
(g90
g71
NtRp4858
(dp4859
g74
(dp4860
g101
g102
ssg83
g4849
sg76
(lp4861
S':'
asbag69
(g90
g71
NtRp4862
(dp4863
g74
(dp4864
sg83
g4849
sg76
(lp4865
g69
(g70
g71
NtRp4866
(dp4867
g74
(dp4868
g82
I5
ssg83
g4862
sg76
(lp4869
g69
(g78
g71
NtRp4870
(dp4871
g74
(dp4872
g82
I4
ssg83
Nsg76
(lp4873
g69
(g85
g71
NtRp4874
(dp4875
g74
(dp4876
sg83
g4870
sg76
(lp4877
g69
(g90
g71
NtRp4878
(dp4879
g74
(dp4880
g94
g95
ssg83
g4874
sg76
(lp4881
S'author'
p4882
asbag69
(g90
g71
NtRp4883
(dp4884
g74
(dp4885
g101
g102
ssg83
g4874
sg76
(lp4886
S':'
asbag69
(g90
g71
NtRp4887
(dp4888
g74
(dp4889
sg83
g4874
sg76
(lp4890
g69
(g70
g71
NtRp4891
(dp4892
g74
(dp4893
g82
I4
ssg83
g4887
sg76
(lp4894
S'Your Name <you@example.com>'
p4895
asbasbasbag69
(g85
g71
NtRp4896
(dp4897
g74
(dp4898
sg83
g4870
sg76
(lp4899
g69
(g90
g71
NtRp4900
(dp4901
g74
(dp4902
g94
g95
ssg83
g4896
sg76
(lp4903
S'copyright'
p4904
asbag69
(g90
g71
NtRp4905
(dp4906
g74
(dp4907
g101
g102
ssg83
g4896
sg76
(lp4908
S':'
asbag69
(g90
g71
NtRp4909
(dp4910
g74
(dp4911
sg83
g4896
sg76
(lp4912
g69
(g70
g71
NtRp4913
(dp4914
g74
(dp4915
g82
I4
ssg83
g4909
sg76
(lp4916
S'Copyright 2011'
p4917
asbasbasbag69
(g85
g71
NtRp4918
(dp4919
g74
(dp4920
sg83
g4870
sg76
(lp4921
g69
(g90
g71
NtRp4922
(dp4923
g74
(dp4924
g94
g95
ssg83
g4918
sg76
(lp4925
S'description'
p4926
asbag69
(g90
g71
NtRp4927
(dp4928
g74
(dp4929
g101
g102
ssg83
g4918
sg76
(lp4930
S':'
asbag69
(g90
g71
NtRp4931
(dp4932
g74
(dp4933
sg83
g4918
sg76
(lp4934
g69
(g70
g71
NtRp4935
(dp4936
g74
(dp4937
g82
I4
ssg83
g4931
sg76
(lp4938
S'a cool new app'
p4939
asbasbasbag69
(g85
g71
NtRp4940
(dp4941
g74
(dp4942
sg83
g4870
sg76
(lp4943
g69
(g90
g71
NtRp4944
(dp4945
g74
(dp4946
g94
g95
ssg83
g4940
sg76
(lp4947
S'generator'
p4948
asbag69
(g90
g71
NtRp4949
(dp4950
g74
(dp4951
g101
g102
ssg83
g4940
sg76
(lp4952
S':'
asbag69
(g90
g71
NtRp4953
(dp4954
g74
(dp4955
sg83
g4940
sg76
(lp4956
g69
(g70
g71
NtRp4957
(dp4958
g74
(dp4959
g82
I4
ssg83
g4953
sg76
(lp4960
S'Web2py Web Framework'
p4961
asbasbasbag69
(g85
g71
NtRp4962
(dp4963
g74
(dp4964
sg83
g4870
sg76
(lp4965
g69
(g90
g71
NtRp4966
(dp4967
g74
(dp4968
g94
g95
ssg83
g4962
sg76
(lp4969
S'keywords'
p4970
asbag69
(g90
g71
NtRp4971
(dp4972
g74
(dp4973
g101
g102
ssg83
g4962
sg76
(lp4974
S':'
asbag69
(g90
g71
NtRp4975
(dp4976
g74
(dp4977
sg83
g4962
sg76
(lp4978
g69
(g70
g71
NtRp4979
(dp4980
g74
(dp4981
g82
I4
ssg83
g4975
sg76
(lp4982
S'web2py, python, framework'
p4983
asbasbasbasbasbasbasbag69
(g85
g71
NtRp4984
(dp4985
g74
(dp4986
sg83
g3724
sg76
(lp4987
g69
(g90
g71
NtRp4988
(dp4989
g74
(dp4990
g94
g95
ssg83
g4984
sg76
(lp4991
S'postprocessing'
p4992
asbag69
(g90
g71
NtRp4993
(dp4994
g74
(dp4995
g101
g102
ssg83
g4984
sg76
(lp4996
S':'
asbag69
(g90
g71
NtRp4997
(dp4998
g74
(dp4999
sg83
g4984
sg76
(lp5000
g69
(g70
g71
NtRp5001
(dp5002
g74
(dp5003
g82
I5
ssg83
g4997
sg76
(lp5004
g69
(g78
g71
NtRp5005
(dp5006
g74
(dp5007
g82
I4
ssg83
Nsg76
(lp5008
sbasbasbasbag69
(g85
g71
NtRp5009
(dp5010
g74
(dp5011
sg83
g3724
sg76
(lp5012
g69
(g90
g71
NtRp5013
(dp5014
g74
(dp5015
g94
g95
ssg83
g5009
sg76
(lp5016
S'session_file'
p5017
asbag69
(g90
g71
NtRp5018
(dp5019
g74
(dp5020
g101
g102
ssg83
g5009
sg76
(lp5021
S':'
asbag69
(g90
g71
NtRp5022
(dp5023
g74
(dp5024
sg83
g5009
sg76
(lp5025
g69
(g70
g71
NtRp5026
(dp5027
g74
(dp5028
g82
I5
ssg83
g5022
sg76
(lp5029
S"<open file '/home/mukul/web2py/applications/blogpost/sessions/127.0.0.1-db0d4806-b3c3-4347-967a-d3847597ee73', mode 'rb+' at 0xaa94ff40>"
p5030
asbasbasbag69
(g85
g71
NtRp5031
(dp5032
g74
(dp5033
sg83
g3724
sg76
(lp5034
g69
(g90
g71
NtRp5035
(dp5036
g74
(dp5037
g94
g95
ssg83
g5031
sg76
(lp5038
S'session_filename'
p5039
asbag69
(g90
g71
NtRp5040
(dp5041
g74
(dp5042
g101
g102
ssg83
g5031
sg76
(lp5043
S':'
asbag69
(g90
g71
NtRp5044
(dp5045
g74
(dp5046
sg83
g5031
sg76
(lp5047
g69
(g70
g71
NtRp5048
(dp5049
g74
(dp5050
g82
I5
ssg83
g5044
sg76
(lp5051
S'/home/mukul/web2py/applications/blogpost/sessions/127.0.0.1-db0d4806-b3c3-4347-967a-d3847597ee73'
p5052
asbasbasbag69
(g85
g71
NtRp5053
(dp5054
g74
(dp5055
sg83
g3724
sg76
(lp5056
g69
(g90
g71
NtRp5057
(dp5058
g74
(dp5059
g94
g95
ssg83
g5053
sg76
(lp5060
S'session_id'
p5061
asbag69
(g90
g71
NtRp5062
(dp5063
g74
(dp5064
g101
g102
ssg83
g5053
sg76
(lp5065
S':'
asbag69
(g90
g71
NtRp5066
(dp5067
g74
(dp5068
sg83
g5053
sg76
(lp5069
g69
(g70
g71
NtRp5070
(dp5071
g74
(dp5072
g82
I5
ssg83
g5066
sg76
(lp5073
S'127.0.0.1-db0d4806-b3c3-4347-967a-d3847597ee73'
p5074
asbasbasbag69
(g85
g71
NtRp5075
(dp5076
g74
(dp5077
sg83
g3724
sg76
(lp5078
g69
(g90
g71
NtRp5079
(dp5080
g74
(dp5081
g94
g95
ssg83
g5075
sg76
(lp5082
S'session_id_name'
p5083
asbag69
(g90
g71
NtRp5084
(dp5085
g74
(dp5086
g101
g102
ssg83
g5075
sg76
(lp5087
S':'
asbag69
(g90
g71
NtRp5088
(dp5089
g74
(dp5090
sg83
g5075
sg76
(lp5091
g69
(g70
g71
NtRp5092
(dp5093
g74
(dp5094
g82
I5
ssg83
g5088
sg76
(lp5095
g3781
asbasbasbag69
(g85
g71
NtRp5096
(dp5097
g74
(dp5098
sg83
g3724
sg76
(lp5099
g69
(g90
g71
NtRp5100
(dp5101
g74
(dp5102
g94
g95
ssg83
g5096
sg76
(lp5103
S'session_locked'
p5104
asbag69
(g90
g71
NtRp5105
(dp5106
g74
(dp5107
g101
g102
ssg83
g5096
sg76
(lp5108
S':'
asbag69
(g90
g71
NtRp5109
(dp5110
g74
(dp5111
sg83
g5096
sg76
(lp5112
g69
(g70
g71
NtRp5113
(dp5114
g74
(dp5115
g82
I5
ssg83
g5109
sg76
(lp5116
g2037
asbasbasbag69
(g85
g71
NtRp5117
(dp5118
g74
(dp5119
sg83
g3724
sg76
(lp5120
g69
(g90
g71
NtRp5121
(dp5122
g74
(dp5123
g94
g95
ssg83
g5117
sg76
(lp5124
S'session_new'
p5125
asbag69
(g90
g71
NtRp5126
(dp5127
g74
(dp5128
g101
g102
ssg83
g5117
sg76
(lp5129
S':'
asbag69
(g90
g71
NtRp5130
(dp5131
g74
(dp5132
sg83
g5117
sg76
(lp5133
g69
(g70
g71
NtRp5134
(dp5135
g74
(dp5136
g82
I5
ssg83
g5130
sg76
(lp5137
g112
asbasbasbag69
(g85
g71
NtRp5138
(dp5139
g74
(dp5140
sg83
g3724
sg76
(lp5141
g69
(g90
g71
NtRp5142
(dp5143
g74
(dp5144
g94
g95
ssg83
g5138
sg76
(lp5145
S'status'
p5146
asbag69
(g90
g71
NtRp5147
(dp5148
g74
(dp5149
g101
g102
ssg83
g5138
sg76
(lp5150
S':'
asbag69
(g90
g71
NtRp5151
(dp5152
g74
(dp5153
sg83
g5138
sg76
(lp5154
g69
(g70
g71
NtRp5155
(dp5156
g74
(dp5157
g82
I5
ssg83
g5151
sg76
(lp5158
S'200'
p5159
asbasbasbag69
(g85
g71
NtRp5160
(dp5161
g74
(dp5162
sg83
g3724
sg76
(lp5163
g69
(g90
g71
NtRp5164
(dp5165
g74
(dp5166
g94
g95
ssg83
g5160
sg76
(lp5167
S'subtitle'
p5168
asbag69
(g90
g71
NtRp5169
(dp5170
g74
(dp5171
g101
g102
ssg83
g5160
sg76
(lp5172
S':'
asbag69
(g90
g71
NtRp5173
(dp5174
g74
(dp5175
sg83
g5160
sg76
(lp5176
g69
(g70
g71
NtRp5177
(dp5178
g74
(dp5179
g82
I5
ssg83
g5173
sg76
(lp5180
g4229
(S's\r\x00\x00\x00customize me!'
tRp5181
asbasbasbag69
(g85
g71
NtRp5182
(dp5183
g74
(dp5184
sg83
g3724
sg76
(lp5185
g69
(g90
g71
NtRp5186
(dp5187
g74
(dp5188
g94
g95
ssg83
g5182
sg76
(lp5189
S'title'
p5190
asbag69
(g90
g71
NtRp5191
(dp5192
g74
(dp5193
g101
g102
ssg83
g5182
sg76
(lp5194
S':'
asbag69
(g90
g71
NtRp5195
(dp5196
g74
(dp5197
sg83
g5182
sg76
(lp5198
g69
(g70
g71
NtRp5199
(dp5200
g74
(dp5201
g82
I5
ssg83
g5195
sg76
(lp5202
S'Blogpost'
p5203
asbasbasbag69
(g85
g71
NtRp5204
(dp5205
g74
(dp5206
sg83
g3724
sg76
(lp5207
g69
(g90
g71
NtRp5208
(dp5209
g74
(dp5210
g94
g95
ssg83
g5204
sg76
(lp5211
g2701
asbag69
(g90
g71
NtRp5212
(dp5213
g74
(dp5214
g101
g102
ssg83
g5204
sg76
(lp5215
S':'
asbag69
(g90
g71
NtRp5216
(dp5217
g74
(dp5218
sg83
g5204
sg76
(lp5219
g69
(g70
g71
NtRp5220
(dp5221
g74
(dp5222
g82
I5
ssg83
g5216
sg76
(lp5223
g2714
asbasbasbag69
(g85
g71
NtRp5224
(dp5225
g74
(dp5226
sg83
g3724
sg76
(lp5227
g69
(g90
g71
NtRp5228
(dp5229
g74
(dp5230
g94
g95
ssg83
g5224
sg76
(lp5231
S'view'
p5232
asbag69
(g90
g71
NtRp5233
(dp5234
g74
(dp5235
g101
g102
ssg83
g5224
sg76
(lp5236
S':'
asbag69
(g90
g71
NtRp5237
(dp5238
g74
(dp5239
sg83
g5224
sg76
(lp5240
g69
(g70
g71
NtRp5241
(dp5242
g74
(dp5243
g82
I5
ssg83
g5237
sg76
(lp5244
S'default/show.html'
p5245
asbasbasbasbasbsS'locals'
p5246
(dp5247
g4
S"'/home/mukul/web2py/applications/blogpost/views/default/show.html'"
p5248
sg6
S'r"response.write(\'<!DOCTYPE html>\\n<!-- paulirish....ponse.write(\'\\n</body>\\n</html>\\n\', escape=False)"'
p5249
sssS'traceback'
p5250
S'Traceback (most recent call last):\n  File "/usr/lib/pymodules/python2.7/gluon/restricted.py", line 203, in restricted\n    ccode = compile2(code,layer)\n  File "/usr/lib/pymodules/python2.7/gluon/restricted.py", line 189, in compile2\n    return compile(code.rstrip().replace(\'\\r\\n\',\'\\n\')+\'\\n\', layer, \'exec\')\n  File "/home/mukul/web2py/applications/blogpost/views/default/show.html", line 76\n    for row in imag\n                  ^\nSyntaxError: invalid syntax\n'
p5251
s.