(dp1
S'output'
p2
S"<type 'exceptions.SyntaxError'> Object exists and cannot be redefined: title"
p3
sS'layer'
p4
S'/home/mukul/web2py/applications/blogpost/models/db.py'
p5
sS'code'
p6
S"# -*- coding: utf-8 -*-\n\n#########################################################################\n## This scaffolding model makes your app work on Google App Engine too\n## File is released under public domain and you can use without limitations\n#########################################################################\n\n## if SSL/HTTPS is properly configured and you want all HTTP requests to\n## be redirected to HTTPS, uncomment the line below:\n# request.requires_https()\n\nif not request.env.web2py_runtime_gae:\n    ## if NOT running on Google App Engine use SQLite or other DB\n    db = DAL('sqlite://storage.sqlite')\nelse:\n    ## connect to Google BigTable (optional 'google:datastore://namespace')\n    db = DAL('google:datastore')\n    ## store sessions and tickets there\n    session.connect(request, response, db = db)\n    ## or store session in Memcache, Redis, etc.\n    ## from gluon.contrib.memdb import MEMDB\n    ## from google.appengine.api.memcache import Client\n    ## session.connect(request, response, db = MEMDB(Client()))\n\n## by default give a view/generic.extension to all actions from localhost\n## none otherwise. a pattern can be 'controller/function.extension'\nresponse.generic_patterns = ['*'] if request.is_local else []\n## (optional) optimize handling of static files\n# response.optimize_css = 'concat,minify,inline'\n# response.optimize_js = 'concat,minify,inline'\n\n#########################################################################\n## Here is sample code if you need for\n## - email capabilities\n## - authentication (registration, login, logout, ... )\n## - authorization (role based authorization)\n## - services (xml, csv, json, xmlrpc, jsonrpc, amf, rss)\n## - old style crud actions\n## (more options discussed in gluon/tools.py)\n#########################################################################\n\nfrom gluon.tools import Auth, Crud, Service, PluginManager, prettydate\nauth = Auth(db, hmac_key=Auth.get_or_create_key())\ncrud, service, plugins = Crud(db), Service(), PluginManager()\n\n## create all tables needed by auth if not custom tables\nauth.define_tables()\n\n## configure email\nmail=auth.settings.mailer\nmail.settings.server = 'logging' or 'smtp.gmail.com:587'\nmail.settings.sender = 'you@gmail.com'\nmail.settings.login = 'username:password'\n\n## configure auth policy\nauth.settings.registration_requires_verification = False\nauth.settings.registration_requires_approval = False\nauth.settings.reset_password_requires_verification = True\n\n## if you need to use OpenID, Facebook, MySpace, Twitter, Linkedin, etc.\n## register with janrain.com, write your domain:api_key in private/janrain.key\nfrom gluon.contrib.login_methods.rpx_account import use_janrain\nuse_janrain(auth,filename='private/janrain.key')\n\n#########################################################################\n## Define your tables below (or better in another model file) for example\n##\n## >>> db.define_table('mytable',Field('myfield','string'))\n##\n## Fields can be 'string','text','password','integer','double','boolean'\n##       'date','time','datetime','blob','upload', 'reference TABLENAME'\n## There is an implicit 'id integer autoincrement' field\n## Consult manual for more options, validators, etc.\n##\n## More API examples for controllers:\n##\n## >>> db.mytable.insert(myfield='value')\n## >>> rows=db(db.mytable.myfield=='value').select(db.mytable.ALL)\n## >>> for row in rows: print row.id, row.myfield\n#########################################################################\nfrom gluon.tools import Auth\nauth = Auth(db)\nauth.define_tables(username=True)\n\n\n\n\ndb.define_table('content',\n                         \n                         Field('title','string'),\n                         Field('video','string'),\n                         Field('data','text'),\n                         Field('date_time','datetime'),\n                         )\n\ndb.content.title=IS_NOT_EMPTY()\n\ndb.content.video=IS_NOT_EMPTY()\n\n\ndb.content.data=IS_NOT_EMPTY()\n\n                         \ndb.define_table('comment',\n                  Field('blog_id','reference content'),\n                  Field('data','text'))\n"
p7
sS'snapshot'
p8
(dp9
S'exception'
p10
(dp11
S'__getslice__'
p12
S"<method-wrapper '__getslice__' of exceptions.SyntaxError object>"
p13
sS'text'
p14
S'None'
p15
sS'__str__'
p16
S"<method-wrapper '__str__' of exceptions.SyntaxError object>"
p17
sS'__reduce__'
p18
S'<built-in method __reduce__ of exceptions.SyntaxError object>'
p19
sS'__dict__'
p20
S'{}'
p21
sS'__sizeof__'
p22
S'<built-in method __sizeof__ of exceptions.SyntaxError object>'
p23
sS'__init__'
p24
S"<method-wrapper '__init__' of exceptions.SyntaxError object>"
p25
sS'__setattr__'
p26
S"<method-wrapper '__setattr__' of exceptions.SyntaxError object>"
p27
sS'__reduce_ex__'
p28
S'<built-in method __reduce_ex__ of exceptions.SyntaxError object>'
p29
sS'__new__'
p30
S'<built-in method __new__ of type object>'
p31
sS'__format__'
p32
S'<built-in method __format__ of exceptions.SyntaxError object>'
p33
sS'__class__'
p34
S"<type 'exceptions.SyntaxError'>"
p35
sS'filename'
p36
S'None'
p37
sS'lineno'
p38
S'None'
p39
sS'msg'
p40
S"'Object exists and cannot be redefined: title'"
p41
sS'__doc__'
p42
S"'Invalid syntax.'"
p43
sS'__getitem__'
p44
S"<method-wrapper '__getitem__' of exceptions.SyntaxError object>"
p45
sS'__setstate__'
p46
S'<built-in method __setstate__ of exceptions.SyntaxError object>'
p47
sS'__getattribute__'
p48
S"<method-wrapper '__getattribute__' of exceptions.SyntaxError object>"
p49
sS'print_file_and_line'
p50
S'None'
p51
sS'args'
p52
S"('Object exists and cannot be redefined: title',)"
p53
sS'__subclasshook__'
p54
S'<built-in method __subclasshook__ of type object>'
p55
sS'offset'
p56
S'None'
p57
sS'__unicode__'
p58
S'<built-in method __unicode__ of exceptions.SyntaxError object>'
p59
sS'__delattr__'
p60
S"<method-wrapper '__delattr__' of exceptions.SyntaxError object>"
p61
sS'__repr__'
p62
S"<method-wrapper '__repr__' of exceptions.SyntaxError object>"
p63
sS'__hash__'
p64
S"<method-wrapper '__hash__' of exceptions.SyntaxError object>"
p65
ssS'evalue'
p66
S'Object exists and cannot be redefined: title'
p67
sS'request'
p68
ccopy_reg
_reconstructor
p69
(cgluon.html
BEAUTIFY
p70
c__builtin__
object
p71
NtRp72
(dp73
S'attributes'
p74
(dp75
sS'components'
p76
(lp77
g69
(cgluon.html
TABLE
p78
g71
NtRp79
(dp80
g74
(dp81
S'level'
p82
I5
ssS'parent'
p83
Nsg76
(lp84
g69
(cgluon.html
TR
p85
g71
NtRp86
(dp87
g74
(dp88
sg83
g79
sg76
(lp89
g69
(cgluon.html
TD
p90
g71
NtRp91
(dp92
g74
(dp93
S'_style'
p94
S'font-weight:bold;vertical-align:top'
p95
ssg83
g86
sg76
(lp96
S'ajax'
p97
asbag69
(g90
g71
NtRp98
(dp99
g74
(dp100
S'_valign'
p101
S'top'
p102
ssg83
g86
sg76
(lp103
S':'
asbag69
(g90
g71
NtRp104
(dp105
g74
(dp106
sg83
g86
sg76
(lp107
g69
(g70
g71
NtRp108
(dp109
g74
(dp110
g82
I5
ssg83
g104
sg76
(lp111
S'False'
p112
asbasbasbag69
(g85
g71
NtRp113
(dp114
g74
(dp115
sg83
g79
sg76
(lp116
g69
(g90
g71
NtRp117
(dp118
g74
(dp119
g94
g95
ssg83
g113
sg76
(lp120
S'application'
p121
asbag69
(g90
g71
NtRp122
(dp123
g74
(dp124
g101
g102
ssg83
g113
sg76
(lp125
S':'
asbag69
(g90
g71
NtRp126
(dp127
g74
(dp128
sg83
g113
sg76
(lp129
g69
(g70
g71
NtRp130
(dp131
g74
(dp132
g82
I5
ssg83
g126
sg76
(lp133
S'blogpost'
p134
asbasbasbag69
(g85
g71
NtRp135
(dp136
g74
(dp137
sg83
g79
sg76
(lp138
g69
(g90
g71
NtRp139
(dp140
g74
(dp141
g94
g95
ssg83
g135
sg76
(lp142
g52
asbag69
(g90
g71
NtRp143
(dp144
g74
(dp145
g101
g102
ssg83
g135
sg76
(lp146
S':'
asbag69
(g90
g71
NtRp147
(dp148
g74
(dp149
sg83
g135
sg76
(lp150
g69
(g70
g71
NtRp151
(dp152
g74
(dp153
g82
I5
ssg83
g147
sg76
(lp154
g69
(g78
g71
NtRp155
(dp156
g74
(dp157
g82
I4
ssg83
Nsg76
(lp158
g69
(g85
g71
NtRp159
(dp160
g74
(dp161
sg83
g155
sg76
(lp162
g69
(g90
g71
NtRp163
(dp164
g74
(dp165
sg83
g159
sg76
(lp166
g69
(g70
g71
NtRp167
(dp168
g74
(dp169
g82
I4
ssg83
g163
sg76
(lp170
S'db'
p171
asbasbasbasbasbasbasbag69
(g85
g71
NtRp172
(dp173
g74
(dp174
sg83
g79
sg76
(lp175
g69
(g90
g71
NtRp176
(dp177
g74
(dp178
g94
g95
ssg83
g172
sg76
(lp179
S'body'
p180
asbag69
(g90
g71
NtRp181
(dp182
g74
(dp183
g101
g102
ssg83
g172
sg76
(lp184
S':'
asbag69
(g90
g71
NtRp185
(dp186
g74
(dp187
sg83
g172
sg76
(lp188
g69
(g70
g71
NtRp189
(dp190
g74
(dp191
g82
I5
ssg83
g185
sg76
(lp192
S'<cStringIO.StringO object at 0xa3b0ae0>'
p193
asbasbasbag69
(g85
g71
NtRp194
(dp195
g74
(dp196
sg83
g79
sg76
(lp197
g69
(g90
g71
NtRp198
(dp199
g74
(dp200
g94
g95
ssg83
g194
sg76
(lp201
S'client'
p202
asbag69
(g90
g71
NtRp203
(dp204
g74
(dp205
g101
g102
ssg83
g194
sg76
(lp206
S':'
asbag69
(g90
g71
NtRp207
(dp208
g74
(dp209
sg83
g194
sg76
(lp210
g69
(g70
g71
NtRp211
(dp212
g74
(dp213
g82
I5
ssg83
g207
sg76
(lp214
S'127.0.0.1'
p215
asbasbasbag69
(g85
g71
NtRp216
(dp217
g74
(dp218
sg83
g79
sg76
(lp219
g69
(g90
g71
NtRp220
(dp221
g74
(dp222
g94
g95
ssg83
g216
sg76
(lp223
S'controller'
p224
asbag69
(g90
g71
NtRp225
(dp226
g74
(dp227
g101
g102
ssg83
g216
sg76
(lp228
S':'
asbag69
(g90
g71
NtRp229
(dp230
g74
(dp231
sg83
g216
sg76
(lp232
g69
(g70
g71
NtRp233
(dp234
g74
(dp235
g82
I5
ssg83
g229
sg76
(lp236
S'appadmin'
p237
asbasbasbag69
(g85
g71
NtRp238
(dp239
g74
(dp240
sg83
g79
sg76
(lp241
g69
(g90
g71
NtRp242
(dp243
g74
(dp244
g94
g95
ssg83
g238
sg76
(lp245
S'cookies'
p246
asbag69
(g90
g71
NtRp247
(dp248
g74
(dp249
g101
g102
ssg83
g238
sg76
(lp250
S':'
asbag69
(g90
g71
NtRp251
(dp252
g74
(dp253
sg83
g238
sg76
(lp254
g69
(g70
g71
NtRp255
(dp256
g74
(dp257
g82
I5
ssg83
g251
sg76
(lp258
g69
(g78
g71
NtRp259
(dp260
g74
(dp261
g82
I4
ssg83
Nsg76
(lp262
g69
(g85
g71
NtRp263
(dp264
g74
(dp265
sg83
g259
sg76
(lp266
g69
(g90
g71
NtRp267
(dp268
g74
(dp269
g94
g95
ssg83
g263
sg76
(lp270
S'session_id_admin'
p271
asbag69
(g90
g71
NtRp272
(dp273
g74
(dp274
g101
g102
ssg83
g263
sg76
(lp275
S':'
asbag69
(g90
g71
NtRp276
(dp277
g74
(dp278
sg83
g263
sg76
(lp279
g69
(g70
g71
NtRp280
(dp281
g74
(dp282
g82
I4
ssg83
g276
sg76
(lp283
g69
(g78
g71
NtRp284
(dp285
g74
(dp286
g82
I3
ssg83
Nsg76
(lp287
g69
(g85
g71
NtRp288
(dp289
g74
(dp290
sg83
g284
sg76
(lp291
g69
(g90
g71
NtRp292
(dp293
g74
(dp294
g94
g95
ssg83
g288
sg76
(lp295
S'comment'
p296
asbag69
(g90
g71
NtRp297
(dp298
g74
(dp299
g101
g102
ssg83
g288
sg76
(lp300
S':'
asbag69
(g90
g71
NtRp301
(dp302
g74
(dp303
sg83
g288
sg76
(lp304
g69
(g70
g71
NtRp305
(dp306
g74
(dp307
g82
I3
ssg83
g301
sg76
(lp308
S''
asbasbasbag69
(g85
g71
NtRp309
(dp310
g74
(dp311
sg83
g284
sg76
(lp312
g69
(g90
g71
NtRp313
(dp314
g74
(dp315
g94
g95
ssg83
g309
sg76
(lp316
S'domain'
p317
asbag69
(g90
g71
NtRp318
(dp319
g74
(dp320
g101
g102
ssg83
g309
sg76
(lp321
S':'
asbag69
(g90
g71
NtRp322
(dp323
g74
(dp324
sg83
g309
sg76
(lp325
g69
(g70
g71
NtRp326
(dp327
g74
(dp328
g82
I3
ssg83
g322
sg76
(lp329
S''
asbasbasbag69
(g85
g71
NtRp330
(dp331
g74
(dp332
sg83
g284
sg76
(lp333
g69
(g90
g71
NtRp334
(dp335
g74
(dp336
g94
g95
ssg83
g330
sg76
(lp337
S'expires'
p338
asbag69
(g90
g71
NtRp339
(dp340
g74
(dp341
g101
g102
ssg83
g330
sg76
(lp342
S':'
asbag69
(g90
g71
NtRp343
(dp344
g74
(dp345
sg83
g330
sg76
(lp346
g69
(g70
g71
NtRp347
(dp348
g74
(dp349
g82
I3
ssg83
g343
sg76
(lp350
S''
asbasbasbag69
(g85
g71
NtRp351
(dp352
g74
(dp353
sg83
g284
sg76
(lp354
g69
(g90
g71
NtRp355
(dp356
g74
(dp357
g94
g95
ssg83
g351
sg76
(lp358
S'httponly'
p359
asbag69
(g90
g71
NtRp360
(dp361
g74
(dp362
g101
g102
ssg83
g351
sg76
(lp363
S':'
asbag69
(g90
g71
NtRp364
(dp365
g74
(dp366
sg83
g351
sg76
(lp367
g69
(g70
g71
NtRp368
(dp369
g74
(dp370
g82
I3
ssg83
g364
sg76
(lp371
S''
asbasbasbag69
(g85
g71
NtRp372
(dp373
g74
(dp374
sg83
g284
sg76
(lp375
g69
(g90
g71
NtRp376
(dp377
g74
(dp378
g94
g95
ssg83
g372
sg76
(lp379
S'max-age'
p380
asbag69
(g90
g71
NtRp381
(dp382
g74
(dp383
g101
g102
ssg83
g372
sg76
(lp384
S':'
asbag69
(g90
g71
NtRp385
(dp386
g74
(dp387
sg83
g372
sg76
(lp388
g69
(g70
g71
NtRp389
(dp390
g74
(dp391
g82
I3
ssg83
g385
sg76
(lp392
S''
asbasbasbag69
(g85
g71
NtRp393
(dp394
g74
(dp395
sg83
g284
sg76
(lp396
g69
(g90
g71
NtRp397
(dp398
g74
(dp399
g94
g95
ssg83
g393
sg76
(lp400
S'path'
p401
asbag69
(g90
g71
NtRp402
(dp403
g74
(dp404
g101
g102
ssg83
g393
sg76
(lp405
S':'
asbag69
(g90
g71
NtRp406
(dp407
g74
(dp408
sg83
g393
sg76
(lp409
g69
(g70
g71
NtRp410
(dp411
g74
(dp412
g82
I3
ssg83
g406
sg76
(lp413
S''
asbasbasbag69
(g85
g71
NtRp414
(dp415
g74
(dp416
sg83
g284
sg76
(lp417
g69
(g90
g71
NtRp418
(dp419
g74
(dp420
g94
g95
ssg83
g414
sg76
(lp421
S'secure'
p422
asbag69
(g90
g71
NtRp423
(dp424
g74
(dp425
g101
g102
ssg83
g414
sg76
(lp426
S':'
asbag69
(g90
g71
NtRp427
(dp428
g74
(dp429
sg83
g414
sg76
(lp430
g69
(g70
g71
NtRp431
(dp432
g74
(dp433
g82
I3
ssg83
g427
sg76
(lp434
S''
asbasbasbag69
(g85
g71
NtRp435
(dp436
g74
(dp437
sg83
g284
sg76
(lp438
g69
(g90
g71
NtRp439
(dp440
g74
(dp441
g94
g95
ssg83
g435
sg76
(lp442
S'version'
p443
asbag69
(g90
g71
NtRp444
(dp445
g74
(dp446
g101
g102
ssg83
g435
sg76
(lp447
S':'
asbag69
(g90
g71
NtRp448
(dp449
g74
(dp450
sg83
g435
sg76
(lp451
g69
(g70
g71
NtRp452
(dp453
g74
(dp454
g82
I3
ssg83
g448
sg76
(lp455
S''
asbasbasbasbasbasbasbag69
(g85
g71
NtRp456
(dp457
g74
(dp458
sg83
g259
sg76
(lp459
g69
(g90
g71
NtRp460
(dp461
g74
(dp462
g94
g95
ssg83
g456
sg76
(lp463
S'session_id_blogpost'
p464
asbag69
(g90
g71
NtRp465
(dp466
g74
(dp467
g101
g102
ssg83
g456
sg76
(lp468
S':'
asbag69
(g90
g71
NtRp469
(dp470
g74
(dp471
sg83
g456
sg76
(lp472
g69
(g70
g71
NtRp473
(dp474
g74
(dp475
g82
I4
ssg83
g469
sg76
(lp476
g69
(g78
g71
NtRp477
(dp478
g74
(dp479
g82
I3
ssg83
Nsg76
(lp480
g69
(g85
g71
NtRp481
(dp482
g74
(dp483
sg83
g477
sg76
(lp484
g69
(g90
g71
NtRp485
(dp486
g74
(dp487
g94
g95
ssg83
g481
sg76
(lp488
g296
asbag69
(g90
g71
NtRp489
(dp490
g74
(dp491
g101
g102
ssg83
g481
sg76
(lp492
S':'
asbag69
(g90
g71
NtRp493
(dp494
g74
(dp495
sg83
g481
sg76
(lp496
g69
(g70
g71
NtRp497
(dp498
g74
(dp499
g82
I3
ssg83
g493
sg76
(lp500
S''
asbasbasbag69
(g85
g71
NtRp501
(dp502
g74
(dp503
sg83
g477
sg76
(lp504
g69
(g90
g71
NtRp505
(dp506
g74
(dp507
g94
g95
ssg83
g501
sg76
(lp508
g317
asbag69
(g90
g71
NtRp509
(dp510
g74
(dp511
g101
g102
ssg83
g501
sg76
(lp512
S':'
asbag69
(g90
g71
NtRp513
(dp514
g74
(dp515
sg83
g501
sg76
(lp516
g69
(g70
g71
NtRp517
(dp518
g74
(dp519
g82
I3
ssg83
g513
sg76
(lp520
S''
asbasbasbag69
(g85
g71
NtRp521
(dp522
g74
(dp523
sg83
g477
sg76
(lp524
g69
(g90
g71
NtRp525
(dp526
g74
(dp527
g94
g95
ssg83
g521
sg76
(lp528
g338
asbag69
(g90
g71
NtRp529
(dp530
g74
(dp531
g101
g102
ssg83
g521
sg76
(lp532
S':'
asbag69
(g90
g71
NtRp533
(dp534
g74
(dp535
sg83
g521
sg76
(lp536
g69
(g70
g71
NtRp537
(dp538
g74
(dp539
g82
I3
ssg83
g533
sg76
(lp540
S''
asbasbasbag69
(g85
g71
NtRp541
(dp542
g74
(dp543
sg83
g477
sg76
(lp544
g69
(g90
g71
NtRp545
(dp546
g74
(dp547
g94
g95
ssg83
g541
sg76
(lp548
g359
asbag69
(g90
g71
NtRp549
(dp550
g74
(dp551
g101
g102
ssg83
g541
sg76
(lp552
S':'
asbag69
(g90
g71
NtRp553
(dp554
g74
(dp555
sg83
g541
sg76
(lp556
g69
(g70
g71
NtRp557
(dp558
g74
(dp559
g82
I3
ssg83
g553
sg76
(lp560
S''
asbasbasbag69
(g85
g71
NtRp561
(dp562
g74
(dp563
sg83
g477
sg76
(lp564
g69
(g90
g71
NtRp565
(dp566
g74
(dp567
g94
g95
ssg83
g561
sg76
(lp568
g380
asbag69
(g90
g71
NtRp569
(dp570
g74
(dp571
g101
g102
ssg83
g561
sg76
(lp572
S':'
asbag69
(g90
g71
NtRp573
(dp574
g74
(dp575
sg83
g561
sg76
(lp576
g69
(g70
g71
NtRp577
(dp578
g74
(dp579
g82
I3
ssg83
g573
sg76
(lp580
S''
asbasbasbag69
(g85
g71
NtRp581
(dp582
g74
(dp583
sg83
g477
sg76
(lp584
g69
(g90
g71
NtRp585
(dp586
g74
(dp587
g94
g95
ssg83
g581
sg76
(lp588
g401
asbag69
(g90
g71
NtRp589
(dp590
g74
(dp591
g101
g102
ssg83
g581
sg76
(lp592
S':'
asbag69
(g90
g71
NtRp593
(dp594
g74
(dp595
sg83
g581
sg76
(lp596
g69
(g70
g71
NtRp597
(dp598
g74
(dp599
g82
I3
ssg83
g593
sg76
(lp600
S''
asbasbasbag69
(g85
g71
NtRp601
(dp602
g74
(dp603
sg83
g477
sg76
(lp604
g69
(g90
g71
NtRp605
(dp606
g74
(dp607
g94
g95
ssg83
g601
sg76
(lp608
g422
asbag69
(g90
g71
NtRp609
(dp610
g74
(dp611
g101
g102
ssg83
g601
sg76
(lp612
S':'
asbag69
(g90
g71
NtRp613
(dp614
g74
(dp615
sg83
g601
sg76
(lp616
g69
(g70
g71
NtRp617
(dp618
g74
(dp619
g82
I3
ssg83
g613
sg76
(lp620
S''
asbasbasbag69
(g85
g71
NtRp621
(dp622
g74
(dp623
sg83
g477
sg76
(lp624
g69
(g90
g71
NtRp625
(dp626
g74
(dp627
g94
g95
ssg83
g621
sg76
(lp628
g443
asbag69
(g90
g71
NtRp629
(dp630
g74
(dp631
g101
g102
ssg83
g621
sg76
(lp632
S':'
asbag69
(g90
g71
NtRp633
(dp634
g74
(dp635
sg83
g621
sg76
(lp636
g69
(g70
g71
NtRp637
(dp638
g74
(dp639
g82
I3
ssg83
g633
sg76
(lp640
S''
asbasbasbasbasbasbasbag69
(g85
g71
NtRp641
(dp642
g74
(dp643
sg83
g259
sg76
(lp644
g69
(g90
g71
NtRp645
(dp646
g74
(dp647
g94
g95
ssg83
g641
sg76
(lp648
S'session_id_welcome'
p649
asbag69
(g90
g71
NtRp650
(dp651
g74
(dp652
g101
g102
ssg83
g641
sg76
(lp653
S':'
asbag69
(g90
g71
NtRp654
(dp655
g74
(dp656
sg83
g641
sg76
(lp657
g69
(g70
g71
NtRp658
(dp659
g74
(dp660
g82
I4
ssg83
g654
sg76
(lp661
g69
(g78
g71
NtRp662
(dp663
g74
(dp664
g82
I3
ssg83
Nsg76
(lp665
g69
(g85
g71
NtRp666
(dp667
g74
(dp668
sg83
g662
sg76
(lp669
g69
(g90
g71
NtRp670
(dp671
g74
(dp672
g94
g95
ssg83
g666
sg76
(lp673
g296
asbag69
(g90
g71
NtRp674
(dp675
g74
(dp676
g101
g102
ssg83
g666
sg76
(lp677
S':'
asbag69
(g90
g71
NtRp678
(dp679
g74
(dp680
sg83
g666
sg76
(lp681
g69
(g70
g71
NtRp682
(dp683
g74
(dp684
g82
I3
ssg83
g678
sg76
(lp685
S''
asbasbasbag69
(g85
g71
NtRp686
(dp687
g74
(dp688
sg83
g662
sg76
(lp689
g69
(g90
g71
NtRp690
(dp691
g74
(dp692
g94
g95
ssg83
g686
sg76
(lp693
g317
asbag69
(g90
g71
NtRp694
(dp695
g74
(dp696
g101
g102
ssg83
g686
sg76
(lp697
S':'
asbag69
(g90
g71
NtRp698
(dp699
g74
(dp700
sg83
g686
sg76
(lp701
g69
(g70
g71
NtRp702
(dp703
g74
(dp704
g82
I3
ssg83
g698
sg76
(lp705
S''
asbasbasbag69
(g85
g71
NtRp706
(dp707
g74
(dp708
sg83
g662
sg76
(lp709
g69
(g90
g71
NtRp710
(dp711
g74
(dp712
g94
g95
ssg83
g706
sg76
(lp713
g338
asbag69
(g90
g71
NtRp714
(dp715
g74
(dp716
g101
g102
ssg83
g706
sg76
(lp717
S':'
asbag69
(g90
g71
NtRp718
(dp719
g74
(dp720
sg83
g706
sg76
(lp721
g69
(g70
g71
NtRp722
(dp723
g74
(dp724
g82
I3
ssg83
g718
sg76
(lp725
S''
asbasbasbag69
(g85
g71
NtRp726
(dp727
g74
(dp728
sg83
g662
sg76
(lp729
g69
(g90
g71
NtRp730
(dp731
g74
(dp732
g94
g95
ssg83
g726
sg76
(lp733
g359
asbag69
(g90
g71
NtRp734
(dp735
g74
(dp736
g101
g102
ssg83
g726
sg76
(lp737
S':'
asbag69
(g90
g71
NtRp738
(dp739
g74
(dp740
sg83
g726
sg76
(lp741
g69
(g70
g71
NtRp742
(dp743
g74
(dp744
g82
I3
ssg83
g738
sg76
(lp745
S''
asbasbasbag69
(g85
g71
NtRp746
(dp747
g74
(dp748
sg83
g662
sg76
(lp749
g69
(g90
g71
NtRp750
(dp751
g74
(dp752
g94
g95
ssg83
g746
sg76
(lp753
g380
asbag69
(g90
g71
NtRp754
(dp755
g74
(dp756
g101
g102
ssg83
g746
sg76
(lp757
S':'
asbag69
(g90
g71
NtRp758
(dp759
g74
(dp760
sg83
g746
sg76
(lp761
g69
(g70
g71
NtRp762
(dp763
g74
(dp764
g82
I3
ssg83
g758
sg76
(lp765
S''
asbasbasbag69
(g85
g71
NtRp766
(dp767
g74
(dp768
sg83
g662
sg76
(lp769
g69
(g90
g71
NtRp770
(dp771
g74
(dp772
g94
g95
ssg83
g766
sg76
(lp773
g401
asbag69
(g90
g71
NtRp774
(dp775
g74
(dp776
g101
g102
ssg83
g766
sg76
(lp777
S':'
asbag69
(g90
g71
NtRp778
(dp779
g74
(dp780
sg83
g766
sg76
(lp781
g69
(g70
g71
NtRp782
(dp783
g74
(dp784
g82
I3
ssg83
g778
sg76
(lp785
S''
asbasbasbag69
(g85
g71
NtRp786
(dp787
g74
(dp788
sg83
g662
sg76
(lp789
g69
(g90
g71
NtRp790
(dp791
g74
(dp792
g94
g95
ssg83
g786
sg76
(lp793
g422
asbag69
(g90
g71
NtRp794
(dp795
g74
(dp796
g101
g102
ssg83
g786
sg76
(lp797
S':'
asbag69
(g90
g71
NtRp798
(dp799
g74
(dp800
sg83
g786
sg76
(lp801
g69
(g70
g71
NtRp802
(dp803
g74
(dp804
g82
I3
ssg83
g798
sg76
(lp805
S''
asbasbasbag69
(g85
g71
NtRp806
(dp807
g74
(dp808
sg83
g662
sg76
(lp809
g69
(g90
g71
NtRp810
(dp811
g74
(dp812
g94
g95
ssg83
g806
sg76
(lp813
g443
asbag69
(g90
g71
NtRp814
(dp815
g74
(dp816
g101
g102
ssg83
g806
sg76
(lp817
S':'
asbag69
(g90
g71
NtRp818
(dp819
g74
(dp820
sg83
g806
sg76
(lp821
g69
(g70
g71
NtRp822
(dp823
g74
(dp824
g82
I3
ssg83
g818
sg76
(lp825
S''
asbasbasbasbasbasbasbasbasbasbasbag69
(g85
g71
NtRp826
(dp827
g74
(dp828
sg83
g79
sg76
(lp829
g69
(g90
g71
NtRp830
(dp831
g74
(dp832
g94
g95
ssg83
g826
sg76
(lp833
S'env'
p834
asbag69
(g90
g71
NtRp835
(dp836
g74
(dp837
g101
g102
ssg83
g826
sg76
(lp838
S':'
asbag69
(g90
g71
NtRp839
(dp840
g74
(dp841
sg83
g826
sg76
(lp842
g69
(g70
g71
NtRp843
(dp844
g74
(dp845
g82
I5
ssg83
g839
sg76
(lp846
g69
(g78
g71
NtRp847
(dp848
g74
(dp849
g82
I4
ssg83
Nsg76
(lp850
g69
(g85
g71
NtRp851
(dp852
g74
(dp853
sg83
g847
sg76
(lp854
g69
(g90
g71
NtRp855
(dp856
g74
(dp857
g94
g95
ssg83
g851
sg76
(lp858
S'app_folders'
p859
asbag69
(g90
g71
NtRp860
(dp861
g74
(dp862
g101
g102
ssg83
g851
sg76
(lp863
S':'
asbag69
(g90
g71
NtRp864
(dp865
g74
(dp866
sg83
g851
sg76
(lp867
g69
(g70
g71
NtRp868
(dp869
g74
(dp870
g82
I4
ssg83
g864
sg76
(lp871
S"set(['/home/mukul/web2py/applications/admin/', '/home/mukul/web2py/applications/blogpost/', '/home/mukul/web2py/applications/welcome/'])"
p872
asbasbasbag69
(g85
g71
NtRp873
(dp874
g74
(dp875
sg83
g847
sg76
(lp876
g69
(g90
g71
NtRp877
(dp878
g74
(dp879
g94
g95
ssg83
g873
sg76
(lp880
S'applications_parent'
p881
asbag69
(g90
g71
NtRp882
(dp883
g74
(dp884
g101
g102
ssg83
g873
sg76
(lp885
S':'
asbag69
(g90
g71
NtRp886
(dp887
g74
(dp888
sg83
g873
sg76
(lp889
g69
(g70
g71
NtRp890
(dp891
g74
(dp892
g82
I4
ssg83
g886
sg76
(lp893
S'/home/mukul/web2py'
p894
asbasbasbag69
(g85
g71
NtRp895
(dp896
g74
(dp897
sg83
g847
sg76
(lp898
g69
(g90
g71
NtRp899
(dp900
g74
(dp901
g94
g95
ssg83
g895
sg76
(lp902
S'cmd_args'
p903
asbag69
(g90
g71
NtRp904
(dp905
g74
(dp906
g101
g102
ssg83
g895
sg76
(lp907
S':'
asbag69
(g90
g71
NtRp908
(dp909
g74
(dp910
sg83
g895
sg76
(lp911
g69
(g70
g71
NtRp912
(dp913
g74
(dp914
g82
I4
ssg83
g908
sg76
(lp915
g69
(g78
g71
NtRp916
(dp917
g74
(dp918
g82
I3
ssg83
Nsg76
(lp919
sbasbasbasbag69
(g85
g71
NtRp920
(dp921
g74
(dp922
sg83
g847
sg76
(lp923
g69
(g90
g71
NtRp924
(dp925
g74
(dp926
g94
g95
ssg83
g920
sg76
(lp927
S'cmd_options'
p928
asbag69
(g90
g71
NtRp929
(dp930
g74
(dp931
g101
g102
ssg83
g920
sg76
(lp932
S':'
asbag69
(g90
g71
NtRp933
(dp934
g74
(dp935
sg83
g920
sg76
(lp936
g69
(g70
g71
NtRp937
(dp938
g74
(dp939
g82
I4
ssg83
g933
sg76
(lp940
S"<Values at 0xa3b678c: {'verbose': False, 'ip': '127.0.0.1', 'shutdown_timeout': 5, 'taskbar': False, 'port': 8000, 'maxthreads': None, 'softcron': False, 'server_name': 'mukul-INVALID', 'bpython': False, 'nogui': False, 'nocron': False, 'extcron': False, 'debuglevel': 30, 'test': None, 'folder': '/home/mukul/web2py', 'config': '', 'import_models': False, 'winservice': '', 'shell': None, 'run': '', 'log_filename': 'httpserver.log', 'args': [''], 'socket_timeout': 1, 'profiler_filename': None, 'ssl_private_key': '', 'password': '<ask>', 'request_queue_size': 5, 'ssl_certificate': '', 'cronjob': False, 'plain': False, 'quiet': False, 'interfaces': None, 'minthreads': None, 'timeout': 10, 'numthreads': None, 'nobanner': False, 'pid_filename': 'httpserver.pid'}>"
p941
asbasbasbag69
(g85
g71
NtRp942
(dp943
g74
(dp944
sg83
g847
sg76
(lp945
g69
(g90
g71
NtRp946
(dp947
g74
(dp948
g94
g95
ssg83
g942
sg76
(lp949
S'db_sessions'
p950
asbag69
(g90
g71
NtRp951
(dp952
g74
(dp953
g101
g102
ssg83
g942
sg76
(lp954
S':'
asbag69
(g90
g71
NtRp955
(dp956
g74
(dp957
sg83
g942
sg76
(lp958
g69
(g70
g71
NtRp959
(dp960
g74
(dp961
g82
I4
ssg83
g955
sg76
(lp962
S'set([])'
p963
asbasbasbag69
(g85
g71
NtRp964
(dp965
g74
(dp966
sg83
g847
sg76
(lp967
g69
(g90
g71
NtRp968
(dp969
g74
(dp970
g94
g95
ssg83
g964
sg76
(lp971
S'debugging'
p972
asbag69
(g90
g71
NtRp973
(dp974
g74
(dp975
g101
g102
ssg83
g964
sg76
(lp976
S':'
asbag69
(g90
g71
NtRp977
(dp978
g74
(dp979
sg83
g964
sg76
(lp980
g69
(g70
g71
NtRp981
(dp982
g74
(dp983
g82
I4
ssg83
g977
sg76
(lp984
g112
asbasbasbag69
(g85
g71
NtRp985
(dp986
g74
(dp987
sg83
g847
sg76
(lp988
g69
(g90
g71
NtRp989
(dp990
g74
(dp991
g94
g95
ssg83
g985
sg76
(lp992
S'gluon_parent'
p993
asbag69
(g90
g71
NtRp994
(dp995
g74
(dp996
g101
g102
ssg83
g985
sg76
(lp997
S':'
asbag69
(g90
g71
NtRp998
(dp999
g74
(dp1000
sg83
g985
sg76
(lp1001
g69
(g70
g71
NtRp1002
(dp1003
g74
(dp1004
g82
I4
ssg83
g998
sg76
(lp1005
S'/usr/share/web2py'
p1006
asbasbasbag69
(g85
g71
NtRp1007
(dp1008
g74
(dp1009
sg83
g847
sg76
(lp1010
g69
(g90
g71
NtRp1011
(dp1012
g74
(dp1013
g94
g95
ssg83
g1007
sg76
(lp1014
S'http_accept'
p1015
asbag69
(g90
g71
NtRp1016
(dp1017
g74
(dp1018
g101
g102
ssg83
g1007
sg76
(lp1019
S':'
asbag69
(g90
g71
NtRp1020
(dp1021
g74
(dp1022
sg83
g1007
sg76
(lp1023
g69
(g70
g71
NtRp1024
(dp1025
g74
(dp1026
g82
I4
ssg83
g1020
sg76
(lp1027
S'text/html,application/xhtml+xml,application/xml;q=0.9,image/webp,*/*;q=0.8'
p1028
asbasbasbag69
(g85
g71
NtRp1029
(dp1030
g74
(dp1031
sg83
g847
sg76
(lp1032
g69
(g90
g71
NtRp1033
(dp1034
g74
(dp1035
g94
g95
ssg83
g1029
sg76
(lp1036
S'http_accept_encoding'
p1037
asbag69
(g90
g71
NtRp1038
(dp1039
g74
(dp1040
g101
g102
ssg83
g1029
sg76
(lp1041
S':'
asbag69
(g90
g71
NtRp1042
(dp1043
g74
(dp1044
sg83
g1029
sg76
(lp1045
g69
(g70
g71
NtRp1046
(dp1047
g74
(dp1048
g82
I4
ssg83
g1042
sg76
(lp1049
S'gzip, deflate, sdch'
p1050
asbasbasbag69
(g85
g71
NtRp1051
(dp1052
g74
(dp1053
sg83
g847
sg76
(lp1054
g69
(g90
g71
NtRp1055
(dp1056
g74
(dp1057
g94
g95
ssg83
g1051
sg76
(lp1058
S'http_accept_language'
p1059
asbag69
(g90
g71
NtRp1060
(dp1061
g74
(dp1062
g101
g102
ssg83
g1051
sg76
(lp1063
S':'
asbag69
(g90
g71
NtRp1064
(dp1065
g74
(dp1066
sg83
g1051
sg76
(lp1067
g69
(g70
g71
NtRp1068
(dp1069
g74
(dp1070
g82
I4
ssg83
g1064
sg76
(lp1071
S'en-US,en;q=0.8'
p1072
asbasbasbag69
(g85
g71
NtRp1073
(dp1074
g74
(dp1075
sg83
g847
sg76
(lp1076
g69
(g90
g71
NtRp1077
(dp1078
g74
(dp1079
g94
g95
ssg83
g1073
sg76
(lp1080
S'http_connection'
p1081
asbag69
(g90
g71
NtRp1082
(dp1083
g74
(dp1084
g101
g102
ssg83
g1073
sg76
(lp1085
S':'
asbag69
(g90
g71
NtRp1086
(dp1087
g74
(dp1088
sg83
g1073
sg76
(lp1089
g69
(g70
g71
NtRp1090
(dp1091
g74
(dp1092
g82
I4
ssg83
g1086
sg76
(lp1093
S'keep-alive'
p1094
asbasbasbag69
(g85
g71
NtRp1095
(dp1096
g74
(dp1097
sg83
g847
sg76
(lp1098
g69
(g90
g71
NtRp1099
(dp1100
g74
(dp1101
g94
g95
ssg83
g1095
sg76
(lp1102
S'http_cookie'
p1103
asbag69
(g90
g71
NtRp1104
(dp1105
g74
(dp1106
g101
g102
ssg83
g1095
sg76
(lp1107
S':'
asbag69
(g90
g71
NtRp1108
(dp1109
g74
(dp1110
sg83
g1095
sg76
(lp1111
g69
(g70
g71
NtRp1112
(dp1113
g74
(dp1114
g82
I4
ssg83
g1108
sg76
(lp1115
S'_ga=GA1.1.1697046843.1457627657; session_id_welcome=127.0.0.1-676725f2-2e5a-49d5-aec2-76b767f355a8; session_id_blogpost=127.0.0.1-bcd64a48-cdf0-42c4-b6ce-38fdcd520e45; session_id_admin=127.0.0.1-e0a50ab9-35ba-48b7-b46b-eaa7cdf00edd'
p1116
asbasbasbag69
(g85
g71
NtRp1117
(dp1118
g74
(dp1119
sg83
g847
sg76
(lp1120
g69
(g90
g71
NtRp1121
(dp1122
g74
(dp1123
g94
g95
ssg83
g1117
sg76
(lp1124
S'http_host'
p1125
asbag69
(g90
g71
NtRp1126
(dp1127
g74
(dp1128
g101
g102
ssg83
g1117
sg76
(lp1129
S':'
asbag69
(g90
g71
NtRp1130
(dp1131
g74
(dp1132
sg83
g1117
sg76
(lp1133
g69
(g70
g71
NtRp1134
(dp1135
g74
(dp1136
g82
I4
ssg83
g1130
sg76
(lp1137
S'127.0.0.1:8000'
p1138
asbasbasbag69
(g85
g71
NtRp1139
(dp1140
g74
(dp1141
sg83
g847
sg76
(lp1142
g69
(g90
g71
NtRp1143
(dp1144
g74
(dp1145
g94
g95
ssg83
g1139
sg76
(lp1146
S'http_referer'
p1147
asbag69
(g90
g71
NtRp1148
(dp1149
g74
(dp1150
g101
g102
ssg83
g1139
sg76
(lp1151
S':'
asbag69
(g90
g71
NtRp1152
(dp1153
g74
(dp1154
sg83
g1139
sg76
(lp1155
g69
(g70
g71
NtRp1156
(dp1157
g74
(dp1158
g82
I4
ssg83
g1152
sg76
(lp1159
S'http://127.0.0.1:8000/blogpost/appadmin/index'
p1160
asbasbasbag69
(g85
g71
NtRp1161
(dp1162
g74
(dp1163
sg83
g847
sg76
(lp1164
g69
(g90
g71
NtRp1165
(dp1166
g74
(dp1167
g94
g95
ssg83
g1161
sg76
(lp1168
S'http_upgrade_insecure_requests'
p1169
asbag69
(g90
g71
NtRp1170
(dp1171
g74
(dp1172
g101
g102
ssg83
g1161
sg76
(lp1173
S':'
asbag69
(g90
g71
NtRp1174
(dp1175
g74
(dp1176
sg83
g1161
sg76
(lp1177
g69
(g70
g71
NtRp1178
(dp1179
g74
(dp1180
g82
I4
ssg83
g1174
sg76
(lp1181
S'1'
asbasbasbag69
(g85
g71
NtRp1182
(dp1183
g74
(dp1184
sg83
g847
sg76
(lp1185
g69
(g90
g71
NtRp1186
(dp1187
g74
(dp1188
g94
g95
ssg83
g1182
sg76
(lp1189
S'http_user_agent'
p1190
asbag69
(g90
g71
NtRp1191
(dp1192
g74
(dp1193
g101
g102
ssg83
g1182
sg76
(lp1194
S':'
asbag69
(g90
g71
NtRp1195
(dp1196
g74
(dp1197
sg83
g1182
sg76
(lp1198
g69
(g70
g71
NtRp1199
(dp1200
g74
(dp1201
g82
I4
ssg83
g1195
sg76
(lp1202
S'Mozilla/5.0 (X11; Linux i686) AppleWebKit/537.36 (KHTML, like Gecko) Chrome/48.0.2564.116 Safari/537.36'
p1203
asbasbasbag69
(g85
g71
NtRp1204
(dp1205
g74
(dp1206
sg83
g847
sg76
(lp1207
g69
(g90
g71
NtRp1208
(dp1209
g74
(dp1210
g94
g95
ssg83
g1204
sg76
(lp1211
S'is_jython'
p1212
asbag69
(g90
g71
NtRp1213
(dp1214
g74
(dp1215
g101
g102
ssg83
g1204
sg76
(lp1216
S':'
asbag69
(g90
g71
NtRp1217
(dp1218
g74
(dp1219
sg83
g1204
sg76
(lp1220
g69
(g70
g71
NtRp1221
(dp1222
g74
(dp1223
g82
I4
ssg83
g1217
sg76
(lp1224
g112
asbasbasbag69
(g85
g71
NtRp1225
(dp1226
g74
(dp1227
sg83
g847
sg76
(lp1228
g69
(g90
g71
NtRp1229
(dp1230
g74
(dp1231
g94
g95
ssg83
g1225
sg76
(lp1232
S'is_pypy'
p1233
asbag69
(g90
g71
NtRp1234
(dp1235
g74
(dp1236
g101
g102
ssg83
g1225
sg76
(lp1237
S':'
asbag69
(g90
g71
NtRp1238
(dp1239
g74
(dp1240
sg83
g1225
sg76
(lp1241
g69
(g70
g71
NtRp1242
(dp1243
g74
(dp1244
g82
I4
ssg83
g1238
sg76
(lp1245
g112
asbasbasbag69
(g85
g71
NtRp1246
(dp1247
g74
(dp1248
sg83
g847
sg76
(lp1249
g69
(g90
g71
NtRp1250
(dp1251
g74
(dp1252
g94
g95
ssg83
g1246
sg76
(lp1253
S'path_info'
p1254
asbag69
(g90
g71
NtRp1255
(dp1256
g74
(dp1257
g101
g102
ssg83
g1246
sg76
(lp1258
S':'
asbag69
(g90
g71
NtRp1259
(dp1260
g74
(dp1261
sg83
g1246
sg76
(lp1262
g69
(g70
g71
NtRp1263
(dp1264
g74
(dp1265
g82
I4
ssg83
g1259
sg76
(lp1266
S'/blogpost/appadmin/select/db'
p1267
asbasbasbag69
(g85
g71
NtRp1268
(dp1269
g74
(dp1270
sg83
g847
sg76
(lp1271
g69
(g90
g71
NtRp1272
(dp1273
g74
(dp1274
g94
g95
ssg83
g1268
sg76
(lp1275
S'query_string'
p1276
asbag69
(g90
g71
NtRp1277
(dp1278
g74
(dp1279
g101
g102
ssg83
g1268
sg76
(lp1280
S':'
asbag69
(g90
g71
NtRp1281
(dp1282
g74
(dp1283
sg83
g1268
sg76
(lp1284
g69
(g70
g71
NtRp1285
(dp1286
g74
(dp1287
g82
I4
ssg83
g1281
sg76
(lp1288
S'query=db.comment.id%3E0'
p1289
asbasbasbag69
(g85
g71
NtRp1290
(dp1291
g74
(dp1292
sg83
g847
sg76
(lp1293
g69
(g90
g71
NtRp1294
(dp1295
g74
(dp1296
g94
g95
ssg83
g1290
sg76
(lp1297
S'remote_addr'
p1298
asbag69
(g90
g71
NtRp1299
(dp1300
g74
(dp1301
g101
g102
ssg83
g1290
sg76
(lp1302
S':'
asbag69
(g90
g71
NtRp1303
(dp1304
g74
(dp1305
sg83
g1290
sg76
(lp1306
g69
(g70
g71
NtRp1307
(dp1308
g74
(dp1309
g82
I4
ssg83
g1303
sg76
(lp1310
g215
asbasbasbag69
(g85
g71
NtRp1311
(dp1312
g74
(dp1313
sg83
g847
sg76
(lp1314
g69
(g90
g71
NtRp1315
(dp1316
g74
(dp1317
g94
g95
ssg83
g1311
sg76
(lp1318
S'remote_port'
p1319
asbag69
(g90
g71
NtRp1320
(dp1321
g74
(dp1322
g101
g102
ssg83
g1311
sg76
(lp1323
S':'
asbag69
(g90
g71
NtRp1324
(dp1325
g74
(dp1326
sg83
g1311
sg76
(lp1327
g69
(g70
g71
NtRp1328
(dp1329
g74
(dp1330
g82
I4
ssg83
g1324
sg76
(lp1331
S'45550'
p1332
asbasbasbag69
(g85
g71
NtRp1333
(dp1334
g74
(dp1335
sg83
g847
sg76
(lp1336
g69
(g90
g71
NtRp1337
(dp1338
g74
(dp1339
g94
g95
ssg83
g1333
sg76
(lp1340
S'request_method'
p1341
asbag69
(g90
g71
NtRp1342
(dp1343
g74
(dp1344
g101
g102
ssg83
g1333
sg76
(lp1345
S':'
asbag69
(g90
g71
NtRp1346
(dp1347
g74
(dp1348
sg83
g1333
sg76
(lp1349
g69
(g70
g71
NtRp1350
(dp1351
g74
(dp1352
g82
I4
ssg83
g1346
sg76
(lp1353
S'GET'
p1354
asbasbasbag69
(g85
g71
NtRp1355
(dp1356
g74
(dp1357
sg83
g847
sg76
(lp1358
g69
(g90
g71
NtRp1359
(dp1360
g74
(dp1361
g94
g95
ssg83
g1355
sg76
(lp1362
S'script_name'
p1363
asbag69
(g90
g71
NtRp1364
(dp1365
g74
(dp1366
g101
g102
ssg83
g1355
sg76
(lp1367
S':'
asbag69
(g90
g71
NtRp1368
(dp1369
g74
(dp1370
sg83
g1355
sg76
(lp1371
g69
(g70
g71
NtRp1372
(dp1373
g74
(dp1374
g82
I4
ssg83
g1368
sg76
(lp1375
S''
asbasbasbag69
(g85
g71
NtRp1376
(dp1377
g74
(dp1378
sg83
g847
sg76
(lp1379
g69
(g90
g71
NtRp1380
(dp1381
g74
(dp1382
g94
g95
ssg83
g1376
sg76
(lp1383
S'server_name'
p1384
asbag69
(g90
g71
NtRp1385
(dp1386
g74
(dp1387
g101
g102
ssg83
g1376
sg76
(lp1388
S':'
asbag69
(g90
g71
NtRp1389
(dp1390
g74
(dp1391
sg83
g1376
sg76
(lp1392
g69
(g70
g71
NtRp1393
(dp1394
g74
(dp1395
g82
I4
ssg83
g1389
sg76
(lp1396
S'mukul-INVALID'
p1397
asbasbasbag69
(g85
g71
NtRp1398
(dp1399
g74
(dp1400
sg83
g847
sg76
(lp1401
g69
(g90
g71
NtRp1402
(dp1403
g74
(dp1404
g94
g95
ssg83
g1398
sg76
(lp1405
S'server_port'
p1406
asbag69
(g90
g71
NtRp1407
(dp1408
g74
(dp1409
g101
g102
ssg83
g1398
sg76
(lp1410
S':'
asbag69
(g90
g71
NtRp1411
(dp1412
g74
(dp1413
sg83
g1398
sg76
(lp1414
g69
(g70
g71
NtRp1415
(dp1416
g74
(dp1417
g82
I4
ssg83
g1411
sg76
(lp1418
S'8000'
p1419
asbasbasbag69
(g85
g71
NtRp1420
(dp1421
g74
(dp1422
sg83
g847
sg76
(lp1423
g69
(g90
g71
NtRp1424
(dp1425
g74
(dp1426
g94
g95
ssg83
g1420
sg76
(lp1427
S'server_protocol'
p1428
asbag69
(g90
g71
NtRp1429
(dp1430
g74
(dp1431
g101
g102
ssg83
g1420
sg76
(lp1432
S':'
asbag69
(g90
g71
NtRp1433
(dp1434
g74
(dp1435
sg83
g1420
sg76
(lp1436
g69
(g70
g71
NtRp1437
(dp1438
g74
(dp1439
g82
I4
ssg83
g1433
sg76
(lp1440
S'HTTP/1.1'
p1441
asbasbasbag69
(g85
g71
NtRp1442
(dp1443
g74
(dp1444
sg83
g847
sg76
(lp1445
g69
(g90
g71
NtRp1446
(dp1447
g74
(dp1448
g94
g95
ssg83
g1442
sg76
(lp1449
S'server_software'
p1450
asbag69
(g90
g71
NtRp1451
(dp1452
g74
(dp1453
g101
g102
ssg83
g1442
sg76
(lp1454
S':'
asbag69
(g90
g71
NtRp1455
(dp1456
g74
(dp1457
sg83
g1442
sg76
(lp1458
g69
(g70
g71
NtRp1459
(dp1460
g74
(dp1461
g82
I4
ssg83
g1455
sg76
(lp1462
S'Rocket 1.2.4'
p1463
asbasbasbag69
(g85
g71
NtRp1464
(dp1465
g74
(dp1466
sg83
g847
sg76
(lp1467
g69
(g90
g71
NtRp1468
(dp1469
g74
(dp1470
g94
g95
ssg83
g1464
sg76
(lp1471
S'web2py_crontype'
p1472
asbag69
(g90
g71
NtRp1473
(dp1474
g74
(dp1475
g101
g102
ssg83
g1464
sg76
(lp1476
S':'
asbag69
(g90
g71
NtRp1477
(dp1478
g74
(dp1479
sg83
g1464
sg76
(lp1480
g69
(g70
g71
NtRp1481
(dp1482
g74
(dp1483
g82
I4
ssg83
g1477
sg76
(lp1484
S'hard'
p1485
asbasbasbag69
(g85
g71
NtRp1486
(dp1487
g74
(dp1488
sg83
g847
sg76
(lp1489
g69
(g90
g71
NtRp1490
(dp1491
g74
(dp1492
g94
g95
ssg83
g1486
sg76
(lp1493
S'web2py_path'
p1494
asbag69
(g90
g71
NtRp1495
(dp1496
g74
(dp1497
g101
g102
ssg83
g1486
sg76
(lp1498
S':'
asbag69
(g90
g71
NtRp1499
(dp1500
g74
(dp1501
sg83
g1486
sg76
(lp1502
g69
(g70
g71
NtRp1503
(dp1504
g74
(dp1505
g82
I4
ssg83
g1499
sg76
(lp1506
g894
asbasbasbag69
(g85
g71
NtRp1507
(dp1508
g74
(dp1509
sg83
g847
sg76
(lp1510
g69
(g90
g71
NtRp1511
(dp1512
g74
(dp1513
g94
g95
ssg83
g1507
sg76
(lp1514
S'web2py_version'
p1515
asbag69
(g90
g71
NtRp1516
(dp1517
g74
(dp1518
g101
g102
ssg83
g1507
sg76
(lp1519
S':'
asbag69
(g90
g71
NtRp1520
(dp1521
g74
(dp1522
sg83
g1507
sg76
(lp1523
g69
(g70
g71
NtRp1524
(dp1525
g74
(dp1526
g82
I4
ssg83
g1520
sg76
(lp1527
g69
(g78
g71
NtRp1528
(dp1529
g74
(dp1530
g82
I3
ssg83
Nsg76
(lp1531
g69
(g85
g71
NtRp1532
(dp1533
g74
(dp1534
sg83
g1528
sg76
(lp1535
g69
(g90
g71
NtRp1536
(dp1537
g74
(dp1538
sg83
g1532
sg76
(lp1539
g69
(g70
g71
NtRp1540
(dp1541
g74
(dp1542
g82
I3
ssg83
g1536
sg76
(lp1543
S'1'
asbasbasbag69
(g85
g71
NtRp1544
(dp1545
g74
(dp1546
sg83
g1528
sg76
(lp1547
g69
(g90
g71
NtRp1548
(dp1549
g74
(dp1550
sg83
g1544
sg76
(lp1551
g69
(g70
g71
NtRp1552
(dp1553
g74
(dp1554
g82
I3
ssg83
g1548
sg76
(lp1555
S'99'
p1556
asbasbasbag69
(g85
g71
NtRp1557
(dp1558
g74
(dp1559
sg83
g1528
sg76
(lp1560
g69
(g90
g71
NtRp1561
(dp1562
g74
(dp1563
sg83
g1557
sg76
(lp1564
g69
(g70
g71
NtRp1565
(dp1566
g74
(dp1567
g82
I3
ssg83
g1561
sg76
(lp1568
S'4'
asbasbasbag69
(g85
g71
NtRp1569
(dp1570
g74
(dp1571
sg83
g1528
sg76
(lp1572
g69
(g90
g71
NtRp1573
(dp1574
g74
(dp1575
sg83
g1569
sg76
(lp1576
g69
(g70
g71
NtRp1577
(dp1578
g74
(dp1579
g82
I3
ssg83
g1573
sg76
(lp1580
S'datetime.datetime(2011, 12, 14, 14, 46, 14)'
p1581
asbasbasbag69
(g85
g71
NtRp1582
(dp1583
g74
(dp1584
sg83
g1528
sg76
(lp1585
g69
(g90
g71
NtRp1586
(dp1587
g74
(dp1588
sg83
g1582
sg76
(lp1589
g69
(g70
g71
NtRp1590
(dp1591
g74
(dp1592
g82
I3
ssg83
g1586
sg76
(lp1593
S'stable'
p1594
asbasbasbasbasbasbasbag69
(g85
g71
NtRp1595
(dp1596
g74
(dp1597
sg83
g847
sg76
(lp1598
g69
(g90
g71
NtRp1599
(dp1600
g74
(dp1601
g94
g95
ssg83
g1595
sg76
(lp1602
S'wsgi_errors'
p1603
asbag69
(g90
g71
NtRp1604
(dp1605
g74
(dp1606
g101
g102
ssg83
g1595
sg76
(lp1607
S':'
asbag69
(g90
g71
NtRp1608
(dp1609
g74
(dp1610
sg83
g1595
sg76
(lp1611
g69
(g70
g71
NtRp1612
(dp1613
g74
(dp1614
g82
I4
ssg83
g1608
sg76
(lp1615
S"<open file '<stderr>', mode 'w' at 0xb727d0d0>"
p1616
asbasbasbag69
(g85
g71
NtRp1617
(dp1618
g74
(dp1619
sg83
g847
sg76
(lp1620
g69
(g90
g71
NtRp1621
(dp1622
g74
(dp1623
g94
g95
ssg83
g1617
sg76
(lp1624
S'wsgi_file_wrapper'
p1625
asbag69
(g90
g71
NtRp1626
(dp1627
g74
(dp1628
g101
g102
ssg83
g1617
sg76
(lp1629
S':'
asbag69
(g90
g71
NtRp1630
(dp1631
g74
(dp1632
sg83
g1617
sg76
(lp1633
g69
(g70
g71
NtRp1634
(dp1635
g74
(dp1636
g82
I4
ssg83
g1630
sg76
(lp1637
S'<class wsgiref.util.FileWrapper at 0xa1764dc>'
p1638
asbasbasbag69
(g85
g71
NtRp1639
(dp1640
g74
(dp1641
sg83
g847
sg76
(lp1642
g69
(g90
g71
NtRp1643
(dp1644
g74
(dp1645
g94
g95
ssg83
g1639
sg76
(lp1646
S'wsgi_input'
p1647
asbag69
(g90
g71
NtRp1648
(dp1649
g74
(dp1650
g101
g102
ssg83
g1639
sg76
(lp1651
S':'
asbag69
(g90
g71
NtRp1652
(dp1653
g74
(dp1654
sg83
g1639
sg76
(lp1655
g69
(g70
g71
NtRp1656
(dp1657
g74
(dp1658
g82
I4
ssg83
g1652
sg76
(lp1659
S'<socket._fileobject object at 0xa6454ac>'
p1660
asbasbasbag69
(g85
g71
NtRp1661
(dp1662
g74
(dp1663
sg83
g847
sg76
(lp1664
g69
(g90
g71
NtRp1665
(dp1666
g74
(dp1667
g94
g95
ssg83
g1661
sg76
(lp1668
S'wsgi_multiprocess'
p1669
asbag69
(g90
g71
NtRp1670
(dp1671
g74
(dp1672
g101
g102
ssg83
g1661
sg76
(lp1673
S':'
asbag69
(g90
g71
NtRp1674
(dp1675
g74
(dp1676
sg83
g1661
sg76
(lp1677
g69
(g70
g71
NtRp1678
(dp1679
g74
(dp1680
g82
I4
ssg83
g1674
sg76
(lp1681
g112
asbasbasbag69
(g85
g71
NtRp1682
(dp1683
g74
(dp1684
sg83
g847
sg76
(lp1685
g69
(g90
g71
NtRp1686
(dp1687
g74
(dp1688
g94
g95
ssg83
g1682
sg76
(lp1689
S'wsgi_multithread'
p1690
asbag69
(g90
g71
NtRp1691
(dp1692
g74
(dp1693
g101
g102
ssg83
g1682
sg76
(lp1694
S':'
asbag69
(g90
g71
NtRp1695
(dp1696
g74
(dp1697
sg83
g1682
sg76
(lp1698
g69
(g70
g71
NtRp1699
(dp1700
g74
(dp1701
g82
I4
ssg83
g1695
sg76
(lp1702
S'True'
p1703
asbasbasbag69
(g85
g71
NtRp1704
(dp1705
g74
(dp1706
sg83
g847
sg76
(lp1707
g69
(g90
g71
NtRp1708
(dp1709
g74
(dp1710
g94
g95
ssg83
g1704
sg76
(lp1711
S'wsgi_run_once'
p1712
asbag69
(g90
g71
NtRp1713
(dp1714
g74
(dp1715
g101
g102
ssg83
g1704
sg76
(lp1716
S':'
asbag69
(g90
g71
NtRp1717
(dp1718
g74
(dp1719
sg83
g1704
sg76
(lp1720
g69
(g70
g71
NtRp1721
(dp1722
g74
(dp1723
g82
I4
ssg83
g1717
sg76
(lp1724
g112
asbasbasbag69
(g85
g71
NtRp1725
(dp1726
g74
(dp1727
sg83
g847
sg76
(lp1728
g69
(g90
g71
NtRp1729
(dp1730
g74
(dp1731
g94
g95
ssg83
g1725
sg76
(lp1732
S'wsgi_url_scheme'
p1733
asbag69
(g90
g71
NtRp1734
(dp1735
g74
(dp1736
g101
g102
ssg83
g1725
sg76
(lp1737
S':'
asbag69
(g90
g71
NtRp1738
(dp1739
g74
(dp1740
sg83
g1725
sg76
(lp1741
g69
(g70
g71
NtRp1742
(dp1743
g74
(dp1744
g82
I4
ssg83
g1738
sg76
(lp1745
S'http'
p1746
asbasbasbag69
(g85
g71
NtRp1747
(dp1748
g74
(dp1749
sg83
g847
sg76
(lp1750
g69
(g90
g71
NtRp1751
(dp1752
g74
(dp1753
g94
g95
ssg83
g1747
sg76
(lp1754
S'wsgi_version'
p1755
asbag69
(g90
g71
NtRp1756
(dp1757
g74
(dp1758
g101
g102
ssg83
g1747
sg76
(lp1759
S':'
asbag69
(g90
g71
NtRp1760
(dp1761
g74
(dp1762
sg83
g1747
sg76
(lp1763
g69
(g70
g71
NtRp1764
(dp1765
g74
(dp1766
g82
I4
ssg83
g1760
sg76
(lp1767
g69
(g78
g71
NtRp1768
(dp1769
g74
(dp1770
g82
I3
ssg83
Nsg76
(lp1771
g69
(g85
g71
NtRp1772
(dp1773
g74
(dp1774
sg83
g1768
sg76
(lp1775
g69
(g90
g71
NtRp1776
(dp1777
g74
(dp1778
sg83
g1772
sg76
(lp1779
g69
(g70
g71
NtRp1780
(dp1781
g74
(dp1782
g82
I3
ssg83
g1776
sg76
(lp1783
S'1'
asbasbasbag69
(g85
g71
NtRp1784
(dp1785
g74
(dp1786
sg83
g1768
sg76
(lp1787
g69
(g90
g71
NtRp1788
(dp1789
g74
(dp1790
sg83
g1784
sg76
(lp1791
g69
(g70
g71
NtRp1792
(dp1793
g74
(dp1794
g82
I3
ssg83
g1788
sg76
(lp1795
S'0'
asbasbasbasbasbasbasbasbasbasbasbag69
(g85
g71
NtRp1796
(dp1797
g74
(dp1798
sg83
g79
sg76
(lp1799
g69
(g90
g71
NtRp1800
(dp1801
g74
(dp1802
g94
g95
ssg83
g1796
sg76
(lp1803
S'extension'
p1804
asbag69
(g90
g71
NtRp1805
(dp1806
g74
(dp1807
g101
g102
ssg83
g1796
sg76
(lp1808
S':'
asbag69
(g90
g71
NtRp1809
(dp1810
g74
(dp1811
sg83
g1796
sg76
(lp1812
g69
(g70
g71
NtRp1813
(dp1814
g74
(dp1815
g82
I5
ssg83
g1809
sg76
(lp1816
S'html'
p1817
asbasbasbag69
(g85
g71
NtRp1818
(dp1819
g74
(dp1820
sg83
g79
sg76
(lp1821
g69
(g90
g71
NtRp1822
(dp1823
g74
(dp1824
g94
g95
ssg83
g1818
sg76
(lp1825
S'folder'
p1826
asbag69
(g90
g71
NtRp1827
(dp1828
g74
(dp1829
g101
g102
ssg83
g1818
sg76
(lp1830
S':'
asbag69
(g90
g71
NtRp1831
(dp1832
g74
(dp1833
sg83
g1818
sg76
(lp1834
g69
(g70
g71
NtRp1835
(dp1836
g74
(dp1837
g82
I5
ssg83
g1831
sg76
(lp1838
S'/home/mukul/web2py/applications/blogpost/'
p1839
asbasbasbag69
(g85
g71
NtRp1840
(dp1841
g74
(dp1842
sg83
g79
sg76
(lp1843
g69
(g90
g71
NtRp1844
(dp1845
g74
(dp1846
g94
g95
ssg83
g1840
sg76
(lp1847
S'function'
p1848
asbag69
(g90
g71
NtRp1849
(dp1850
g74
(dp1851
g101
g102
ssg83
g1840
sg76
(lp1852
S':'
asbag69
(g90
g71
NtRp1853
(dp1854
g74
(dp1855
sg83
g1840
sg76
(lp1856
g69
(g70
g71
NtRp1857
(dp1858
g74
(dp1859
g82
I5
ssg83
g1853
sg76
(lp1860
S'select'
p1861
asbasbasbag69
(g85
g71
NtRp1862
(dp1863
g74
(dp1864
sg83
g79
sg76
(lp1865
g69
(g90
g71
NtRp1866
(dp1867
g74
(dp1868
g94
g95
ssg83
g1862
sg76
(lp1869
S'get_vars'
p1870
asbag69
(g90
g71
NtRp1871
(dp1872
g74
(dp1873
g101
g102
ssg83
g1862
sg76
(lp1874
S':'
asbag69
(g90
g71
NtRp1875
(dp1876
g74
(dp1877
sg83
g1862
sg76
(lp1878
g69
(g70
g71
NtRp1879
(dp1880
g74
(dp1881
g82
I5
ssg83
g1875
sg76
(lp1882
g69
(g78
g71
NtRp1883
(dp1884
g74
(dp1885
g82
I4
ssg83
Nsg76
(lp1886
g69
(g85
g71
NtRp1887
(dp1888
g74
(dp1889
sg83
g1883
sg76
(lp1890
g69
(g90
g71
NtRp1891
(dp1892
g74
(dp1893
g94
g95
ssg83
g1887
sg76
(lp1894
S'query'
p1895
asbag69
(g90
g71
NtRp1896
(dp1897
g74
(dp1898
g101
g102
ssg83
g1887
sg76
(lp1899
S':'
asbag69
(g90
g71
NtRp1900
(dp1901
g74
(dp1902
sg83
g1887
sg76
(lp1903
g69
(g70
g71
NtRp1904
(dp1905
g74
(dp1906
g82
I4
ssg83
g1900
sg76
(lp1907
S'db.comment.id>0'
p1908
asbasbasbasbasbasbasbag69
(g85
g71
NtRp1909
(dp1910
g74
(dp1911
sg83
g79
sg76
(lp1912
g69
(g90
g71
NtRp1913
(dp1914
g74
(dp1915
g94
g95
ssg83
g1909
sg76
(lp1916
S'global_settings'
p1917
asbag69
(g90
g71
NtRp1918
(dp1919
g74
(dp1920
g101
g102
ssg83
g1909
sg76
(lp1921
S':'
asbag69
(g90
g71
NtRp1922
(dp1923
g74
(dp1924
sg83
g1909
sg76
(lp1925
g69
(g70
g71
NtRp1926
(dp1927
g74
(dp1928
g82
I5
ssg83
g1922
sg76
(lp1929
g69
(g78
g71
NtRp1930
(dp1931
g74
(dp1932
g82
I4
ssg83
Nsg76
(lp1933
g69
(g85
g71
NtRp1934
(dp1935
g74
(dp1936
sg83
g1930
sg76
(lp1937
g69
(g90
g71
NtRp1938
(dp1939
g74
(dp1940
g94
g95
ssg83
g1934
sg76
(lp1941
g859
asbag69
(g90
g71
NtRp1942
(dp1943
g74
(dp1944
g101
g102
ssg83
g1934
sg76
(lp1945
S':'
asbag69
(g90
g71
NtRp1946
(dp1947
g74
(dp1948
sg83
g1934
sg76
(lp1949
g69
(g70
g71
NtRp1950
(dp1951
g74
(dp1952
g82
I4
ssg83
g1946
sg76
(lp1953
S"set(['/home/mukul/web2py/applications/admin/', '/home/mukul/web2py/applications/blogpost/', '/home/mukul/web2py/applications/welcome/'])"
p1954
asbasbasbag69
(g85
g71
NtRp1955
(dp1956
g74
(dp1957
sg83
g1930
sg76
(lp1958
g69
(g90
g71
NtRp1959
(dp1960
g74
(dp1961
g94
g95
ssg83
g1955
sg76
(lp1962
g881
asbag69
(g90
g71
NtRp1963
(dp1964
g74
(dp1965
g101
g102
ssg83
g1955
sg76
(lp1966
S':'
asbag69
(g90
g71
NtRp1967
(dp1968
g74
(dp1969
sg83
g1955
sg76
(lp1970
g69
(g70
g71
NtRp1971
(dp1972
g74
(dp1973
g82
I4
ssg83
g1967
sg76
(lp1974
g894
asbasbasbag69
(g85
g71
NtRp1975
(dp1976
g74
(dp1977
sg83
g1930
sg76
(lp1978
g69
(g90
g71
NtRp1979
(dp1980
g74
(dp1981
g94
g95
ssg83
g1975
sg76
(lp1982
g903
asbag69
(g90
g71
NtRp1983
(dp1984
g74
(dp1985
g101
g102
ssg83
g1975
sg76
(lp1986
S':'
asbag69
(g90
g71
NtRp1987
(dp1988
g74
(dp1989
sg83
g1975
sg76
(lp1990
g69
(g70
g71
NtRp1991
(dp1992
g74
(dp1993
g82
I4
ssg83
g1987
sg76
(lp1994
g69
(g78
g71
NtRp1995
(dp1996
g74
(dp1997
g82
I3
ssg83
Nsg76
(lp1998
sbasbasbasbag69
(g85
g71
NtRp1999
(dp2000
g74
(dp2001
sg83
g1930
sg76
(lp2002
g69
(g90
g71
NtRp2003
(dp2004
g74
(dp2005
g94
g95
ssg83
g1999
sg76
(lp2006
g928
asbag69
(g90
g71
NtRp2007
(dp2008
g74
(dp2009
g101
g102
ssg83
g1999
sg76
(lp2010
S':'
asbag69
(g90
g71
NtRp2011
(dp2012
g74
(dp2013
sg83
g1999
sg76
(lp2014
g69
(g70
g71
NtRp2015
(dp2016
g74
(dp2017
g82
I4
ssg83
g2011
sg76
(lp2018
S"<Values at 0xa3b678c: {'verbose': False, 'ip': '127.0.0.1', 'shutdown_timeout': 5, 'taskbar': False, 'port': 8000, 'maxthreads': None, 'softcron': False, 'server_name': 'mukul-INVALID', 'bpython': False, 'nogui': False, 'nocron': False, 'extcron': False, 'debuglevel': 30, 'test': None, 'folder': '/home/mukul/web2py', 'config': '', 'import_models': False, 'winservice': '', 'shell': None, 'run': '', 'log_filename': 'httpserver.log', 'args': [''], 'socket_timeout': 1, 'profiler_filename': None, 'ssl_private_key': '', 'password': '<ask>', 'request_queue_size': 5, 'ssl_certificate': '', 'cronjob': False, 'plain': False, 'quiet': False, 'interfaces': None, 'minthreads': None, 'timeout': 10, 'numthreads': None, 'nobanner': False, 'pid_filename': 'httpserver.pid'}>"
p2019
asbasbasbag69
(g85
g71
NtRp2020
(dp2021
g74
(dp2022
sg83
g1930
sg76
(lp2023
g69
(g90
g71
NtRp2024
(dp2025
g74
(dp2026
g94
g95
ssg83
g2020
sg76
(lp2027
g950
asbag69
(g90
g71
NtRp2028
(dp2029
g74
(dp2030
g101
g102
ssg83
g2020
sg76
(lp2031
S':'
asbag69
(g90
g71
NtRp2032
(dp2033
g74
(dp2034
sg83
g2020
sg76
(lp2035
g69
(g70
g71
NtRp2036
(dp2037
g74
(dp2038
g82
I4
ssg83
g2032
sg76
(lp2039
S'set([])'
p2040
asbasbasbag69
(g85
g71
NtRp2041
(dp2042
g74
(dp2043
sg83
g1930
sg76
(lp2044
g69
(g90
g71
NtRp2045
(dp2046
g74
(dp2047
g94
g95
ssg83
g2041
sg76
(lp2048
g972
asbag69
(g90
g71
NtRp2049
(dp2050
g74
(dp2051
g101
g102
ssg83
g2041
sg76
(lp2052
S':'
asbag69
(g90
g71
NtRp2053
(dp2054
g74
(dp2055
sg83
g2041
sg76
(lp2056
g69
(g70
g71
NtRp2057
(dp2058
g74
(dp2059
g82
I4
ssg83
g2053
sg76
(lp2060
g112
asbasbasbag69
(g85
g71
NtRp2061
(dp2062
g74
(dp2063
sg83
g1930
sg76
(lp2064
g69
(g90
g71
NtRp2065
(dp2066
g74
(dp2067
g94
g95
ssg83
g2061
sg76
(lp2068
g993
asbag69
(g90
g71
NtRp2069
(dp2070
g74
(dp2071
g101
g102
ssg83
g2061
sg76
(lp2072
S':'
asbag69
(g90
g71
NtRp2073
(dp2074
g74
(dp2075
sg83
g2061
sg76
(lp2076
g69
(g70
g71
NtRp2077
(dp2078
g74
(dp2079
g82
I4
ssg83
g2073
sg76
(lp2080
g1006
asbasbasbag69
(g85
g71
NtRp2081
(dp2082
g74
(dp2083
sg83
g1930
sg76
(lp2084
g69
(g90
g71
NtRp2085
(dp2086
g74
(dp2087
g94
g95
ssg83
g2081
sg76
(lp2088
g1212
asbag69
(g90
g71
NtRp2089
(dp2090
g74
(dp2091
g101
g102
ssg83
g2081
sg76
(lp2092
S':'
asbag69
(g90
g71
NtRp2093
(dp2094
g74
(dp2095
sg83
g2081
sg76
(lp2096
g69
(g70
g71
NtRp2097
(dp2098
g74
(dp2099
g82
I4
ssg83
g2093
sg76
(lp2100
g112
asbasbasbag69
(g85
g71
NtRp2101
(dp2102
g74
(dp2103
sg83
g1930
sg76
(lp2104
g69
(g90
g71
NtRp2105
(dp2106
g74
(dp2107
g94
g95
ssg83
g2101
sg76
(lp2108
g1233
asbag69
(g90
g71
NtRp2109
(dp2110
g74
(dp2111
g101
g102
ssg83
g2101
sg76
(lp2112
S':'
asbag69
(g90
g71
NtRp2113
(dp2114
g74
(dp2115
sg83
g2101
sg76
(lp2116
g69
(g70
g71
NtRp2117
(dp2118
g74
(dp2119
g82
I4
ssg83
g2113
sg76
(lp2120
g112
asbasbasbag69
(g85
g71
NtRp2121
(dp2122
g74
(dp2123
sg83
g1930
sg76
(lp2124
g69
(g90
g71
NtRp2125
(dp2126
g74
(dp2127
g94
g95
ssg83
g2121
sg76
(lp2128
g1472
asbag69
(g90
g71
NtRp2129
(dp2130
g74
(dp2131
g101
g102
ssg83
g2121
sg76
(lp2132
S':'
asbag69
(g90
g71
NtRp2133
(dp2134
g74
(dp2135
sg83
g2121
sg76
(lp2136
g69
(g70
g71
NtRp2137
(dp2138
g74
(dp2139
g82
I4
ssg83
g2133
sg76
(lp2140
g1485
asbasbasbag69
(g85
g71
NtRp2141
(dp2142
g74
(dp2143
sg83
g1930
sg76
(lp2144
g69
(g90
g71
NtRp2145
(dp2146
g74
(dp2147
g94
g95
ssg83
g2141
sg76
(lp2148
g1515
asbag69
(g90
g71
NtRp2149
(dp2150
g74
(dp2151
g101
g102
ssg83
g2141
sg76
(lp2152
S':'
asbag69
(g90
g71
NtRp2153
(dp2154
g74
(dp2155
sg83
g2141
sg76
(lp2156
g69
(g70
g71
NtRp2157
(dp2158
g74
(dp2159
g82
I4
ssg83
g2153
sg76
(lp2160
g69
(g78
g71
NtRp2161
(dp2162
g74
(dp2163
g82
I3
ssg83
Nsg76
(lp2164
g69
(g85
g71
NtRp2165
(dp2166
g74
(dp2167
sg83
g2161
sg76
(lp2168
g69
(g90
g71
NtRp2169
(dp2170
g74
(dp2171
sg83
g2165
sg76
(lp2172
g69
(g70
g71
NtRp2173
(dp2174
g74
(dp2175
g82
I3
ssg83
g2169
sg76
(lp2176
S'1'
asbasbasbag69
(g85
g71
NtRp2177
(dp2178
g74
(dp2179
sg83
g2161
sg76
(lp2180
g69
(g90
g71
NtRp2181
(dp2182
g74
(dp2183
sg83
g2177
sg76
(lp2184
g69
(g70
g71
NtRp2185
(dp2186
g74
(dp2187
g82
I3
ssg83
g2181
sg76
(lp2188
S'99'
p2189
asbasbasbag69
(g85
g71
NtRp2190
(dp2191
g74
(dp2192
sg83
g2161
sg76
(lp2193
g69
(g90
g71
NtRp2194
(dp2195
g74
(dp2196
sg83
g2190
sg76
(lp2197
g69
(g70
g71
NtRp2198
(dp2199
g74
(dp2200
g82
I3
ssg83
g2194
sg76
(lp2201
S'4'
asbasbasbag69
(g85
g71
NtRp2202
(dp2203
g74
(dp2204
sg83
g2161
sg76
(lp2205
g69
(g90
g71
NtRp2206
(dp2207
g74
(dp2208
sg83
g2202
sg76
(lp2209
g69
(g70
g71
NtRp2210
(dp2211
g74
(dp2212
g82
I3
ssg83
g2206
sg76
(lp2213
S'datetime.datetime(2011, 12, 14, 14, 46, 14)'
p2214
asbasbasbag69
(g85
g71
NtRp2215
(dp2216
g74
(dp2217
sg83
g2161
sg76
(lp2218
g69
(g90
g71
NtRp2219
(dp2220
g74
(dp2221
sg83
g2215
sg76
(lp2222
g69
(g70
g71
NtRp2223
(dp2224
g74
(dp2225
g82
I3
ssg83
g2219
sg76
(lp2226
g1594
asbasbasbasbasbasbasbasbasbasbasbag69
(g85
g71
NtRp2227
(dp2228
g74
(dp2229
sg83
g79
sg76
(lp2230
g69
(g90
g71
NtRp2231
(dp2232
g74
(dp2233
g94
g95
ssg83
g2227
sg76
(lp2234
S'is_https'
p2235
asbag69
(g90
g71
NtRp2236
(dp2237
g74
(dp2238
g101
g102
ssg83
g2227
sg76
(lp2239
S':'
asbag69
(g90
g71
NtRp2240
(dp2241
g74
(dp2242
sg83
g2227
sg76
(lp2243
g69
(g70
g71
NtRp2244
(dp2245
g74
(dp2246
g82
I5
ssg83
g2240
sg76
(lp2247
g112
asbasbasbag69
(g85
g71
NtRp2248
(dp2249
g74
(dp2250
sg83
g79
sg76
(lp2251
g69
(g90
g71
NtRp2252
(dp2253
g74
(dp2254
g94
g95
ssg83
g2248
sg76
(lp2255
S'is_local'
p2256
asbag69
(g90
g71
NtRp2257
(dp2258
g74
(dp2259
g101
g102
ssg83
g2248
sg76
(lp2260
S':'
asbag69
(g90
g71
NtRp2261
(dp2262
g74
(dp2263
sg83
g2248
sg76
(lp2264
g69
(g70
g71
NtRp2265
(dp2266
g74
(dp2267
g82
I5
ssg83
g2261
sg76
(lp2268
g1703
asbasbasbag69
(g85
g71
NtRp2269
(dp2270
g74
(dp2271
sg83
g79
sg76
(lp2272
g69
(g90
g71
NtRp2273
(dp2274
g74
(dp2275
g94
g95
ssg83
g2269
sg76
(lp2276
S'is_restful'
p2277
asbag69
(g90
g71
NtRp2278
(dp2279
g74
(dp2280
g101
g102
ssg83
g2269
sg76
(lp2281
S':'
asbag69
(g90
g71
NtRp2282
(dp2283
g74
(dp2284
sg83
g2269
sg76
(lp2285
g69
(g70
g71
NtRp2286
(dp2287
g74
(dp2288
g82
I5
ssg83
g2282
sg76
(lp2289
g112
asbasbasbag69
(g85
g71
NtRp2290
(dp2291
g74
(dp2292
sg83
g79
sg76
(lp2293
g69
(g90
g71
NtRp2294
(dp2295
g74
(dp2296
g94
g95
ssg83
g2290
sg76
(lp2297
S'now'
p2298
asbag69
(g90
g71
NtRp2299
(dp2300
g74
(dp2301
g101
g102
ssg83
g2290
sg76
(lp2302
S':'
asbag69
(g90
g71
NtRp2303
(dp2304
g74
(dp2305
sg83
g2290
sg76
(lp2306
g69
(g70
g71
NtRp2307
(dp2308
g74
(dp2309
g82
I5
ssg83
g2303
sg76
(lp2310
S'datetime.datetime(2016, 5, 15, 12, 23, 55, 239893)'
p2311
asbasbasbag69
(g85
g71
NtRp2312
(dp2313
g74
(dp2314
sg83
g79
sg76
(lp2315
g69
(g90
g71
NtRp2316
(dp2317
g74
(dp2318
g94
g95
ssg83
g2312
sg76
(lp2319
S'post_vars'
p2320
asbag69
(g90
g71
NtRp2321
(dp2322
g74
(dp2323
g101
g102
ssg83
g2312
sg76
(lp2324
S':'
asbag69
(g90
g71
NtRp2325
(dp2326
g74
(dp2327
sg83
g2312
sg76
(lp2328
g69
(g70
g71
NtRp2329
(dp2330
g74
(dp2331
g82
I5
ssg83
g2325
sg76
(lp2332
g69
(g78
g71
NtRp2333
(dp2334
g74
(dp2335
g82
I4
ssg83
Nsg76
(lp2336
sbasbasbasbag69
(g85
g71
NtRp2337
(dp2338
g74
(dp2339
sg83
g79
sg76
(lp2340
g69
(g90
g71
NtRp2341
(dp2342
g74
(dp2343
g94
g95
ssg83
g2337
sg76
(lp2344
S'raw_args'
p2345
asbag69
(g90
g71
NtRp2346
(dp2347
g74
(dp2348
g101
g102
ssg83
g2337
sg76
(lp2349
S':'
asbag69
(g90
g71
NtRp2350
(dp2351
g74
(dp2352
sg83
g2337
sg76
(lp2353
g69
(g70
g71
NtRp2354
(dp2355
g74
(dp2356
g82
I5
ssg83
g2350
sg76
(lp2357
g171
asbasbasbag69
(g85
g71
NtRp2358
(dp2359
g74
(dp2360
sg83
g79
sg76
(lp2361
g69
(g90
g71
NtRp2362
(dp2363
g74
(dp2364
g94
g95
ssg83
g2358
sg76
(lp2365
S'url'
p2366
asbag69
(g90
g71
NtRp2367
(dp2368
g74
(dp2369
g101
g102
ssg83
g2358
sg76
(lp2370
S':'
asbag69
(g90
g71
NtRp2371
(dp2372
g74
(dp2373
sg83
g2358
sg76
(lp2374
g69
(g70
g71
NtRp2375
(dp2376
g74
(dp2377
g82
I5
ssg83
g2371
sg76
(lp2378
S'/blogpost/appadmin/select/db'
p2379
asbasbasbag69
(g85
g71
NtRp2380
(dp2381
g74
(dp2382
sg83
g79
sg76
(lp2383
g69
(g90
g71
NtRp2384
(dp2385
g74
(dp2386
g94
g95
ssg83
g2380
sg76
(lp2387
S'utcnow'
p2388
asbag69
(g90
g71
NtRp2389
(dp2390
g74
(dp2391
g101
g102
ssg83
g2380
sg76
(lp2392
S':'
asbag69
(g90
g71
NtRp2393
(dp2394
g74
(dp2395
sg83
g2380
sg76
(lp2396
g69
(g70
g71
NtRp2397
(dp2398
g74
(dp2399
g82
I5
ssg83
g2393
sg76
(lp2400
S'datetime.datetime(2016, 5, 15, 6, 53, 55, 239932)'
p2401
asbasbasbag69
(g85
g71
NtRp2402
(dp2403
g74
(dp2404
sg83
g79
sg76
(lp2405
g69
(g90
g71
NtRp2406
(dp2407
g74
(dp2408
g94
g95
ssg83
g2402
sg76
(lp2409
S'uuid'
p2410
asbag69
(g90
g71
NtRp2411
(dp2412
g74
(dp2413
g101
g102
ssg83
g2402
sg76
(lp2414
S':'
asbag69
(g90
g71
NtRp2415
(dp2416
g74
(dp2417
sg83
g2402
sg76
(lp2418
g69
(g70
g71
NtRp2419
(dp2420
g74
(dp2421
g82
I5
ssg83
g2415
sg76
(lp2422
S'blogpost/127.0.0.1.2016-05-15.12-23-55.e153d9ac-4aa4-4fd1-a3b5-b9a2347d5f79'
p2423
asbasbasbag69
(g85
g71
NtRp2424
(dp2425
g74
(dp2426
sg83
g79
sg76
(lp2427
g69
(g90
g71
NtRp2428
(dp2429
g74
(dp2430
g94
g95
ssg83
g2424
sg76
(lp2431
S'vars'
p2432
asbag69
(g90
g71
NtRp2433
(dp2434
g74
(dp2435
g101
g102
ssg83
g2424
sg76
(lp2436
S':'
asbag69
(g90
g71
NtRp2437
(dp2438
g74
(dp2439
sg83
g2424
sg76
(lp2440
g69
(g70
g71
NtRp2441
(dp2442
g74
(dp2443
g82
I5
ssg83
g2437
sg76
(lp2444
g69
(g78
g71
NtRp2445
(dp2446
g74
(dp2447
g82
I4
ssg83
Nsg76
(lp2448
g69
(g85
g71
NtRp2449
(dp2450
g74
(dp2451
sg83
g2445
sg76
(lp2452
g69
(g90
g71
NtRp2453
(dp2454
g74
(dp2455
g94
g95
ssg83
g2449
sg76
(lp2456
g1895
asbag69
(g90
g71
NtRp2457
(dp2458
g74
(dp2459
g101
g102
ssg83
g2449
sg76
(lp2460
S':'
asbag69
(g90
g71
NtRp2461
(dp2462
g74
(dp2463
sg83
g2449
sg76
(lp2464
g69
(g70
g71
NtRp2465
(dp2466
g74
(dp2467
g82
I4
ssg83
g2461
sg76
(lp2468
g1908
asbasbasbasbasbasbasbag69
(g85
g71
NtRp2469
(dp2470
g74
(dp2471
sg83
g79
sg76
(lp2472
g69
(g90
g71
NtRp2473
(dp2474
g74
(dp2475
g94
g95
ssg83
g2469
sg76
(lp2476
S'wsgi'
p2477
asbag69
(g90
g71
NtRp2478
(dp2479
g74
(dp2480
g101
g102
ssg83
g2469
sg76
(lp2481
S':'
asbag69
(g90
g71
NtRp2482
(dp2483
g74
(dp2484
sg83
g2469
sg76
(lp2485
g69
(g70
g71
NtRp2486
(dp2487
g74
(dp2488
g82
I5
ssg83
g2482
sg76
(lp2489
g69
(g78
g71
NtRp2490
(dp2491
g74
(dp2492
g82
I4
ssg83
Nsg76
(lp2493
g69
(g85
g71
NtRp2494
(dp2495
g74
(dp2496
sg83
g2490
sg76
(lp2497
g69
(g90
g71
NtRp2498
(dp2499
g74
(dp2500
g94
g95
ssg83
g2494
sg76
(lp2501
S'environ'
p2502
asbag69
(g90
g71
NtRp2503
(dp2504
g74
(dp2505
g101
g102
ssg83
g2494
sg76
(lp2506
S':'
asbag69
(g90
g71
NtRp2507
(dp2508
g74
(dp2509
sg83
g2494
sg76
(lp2510
g69
(g70
g71
NtRp2511
(dp2512
g74
(dp2513
g82
I4
ssg83
g2507
sg76
(lp2514
g69
(g78
g71
NtRp2515
(dp2516
g74
(dp2517
g82
I3
ssg83
Nsg76
(lp2518
g69
(g85
g71
NtRp2519
(dp2520
g74
(dp2521
sg83
g2515
sg76
(lp2522
g69
(g90
g71
NtRp2523
(dp2524
g74
(dp2525
g94
g95
ssg83
g2519
sg76
(lp2526
S'HTTP_ACCEPT'
p2527
asbag69
(g90
g71
NtRp2528
(dp2529
g74
(dp2530
g101
g102
ssg83
g2519
sg76
(lp2531
S':'
asbag69
(g90
g71
NtRp2532
(dp2533
g74
(dp2534
sg83
g2519
sg76
(lp2535
g69
(g70
g71
NtRp2536
(dp2537
g74
(dp2538
g82
I3
ssg83
g2532
sg76
(lp2539
g1028
asbasbasbag69
(g85
g71
NtRp2540
(dp2541
g74
(dp2542
sg83
g2515
sg76
(lp2543
g69
(g90
g71
NtRp2544
(dp2545
g74
(dp2546
g94
g95
ssg83
g2540
sg76
(lp2547
S'HTTP_ACCEPT_ENCODING'
p2548
asbag69
(g90
g71
NtRp2549
(dp2550
g74
(dp2551
g101
g102
ssg83
g2540
sg76
(lp2552
S':'
asbag69
(g90
g71
NtRp2553
(dp2554
g74
(dp2555
sg83
g2540
sg76
(lp2556
g69
(g70
g71
NtRp2557
(dp2558
g74
(dp2559
g82
I3
ssg83
g2553
sg76
(lp2560
g1050
asbasbasbag69
(g85
g71
NtRp2561
(dp2562
g74
(dp2563
sg83
g2515
sg76
(lp2564
g69
(g90
g71
NtRp2565
(dp2566
g74
(dp2567
g94
g95
ssg83
g2561
sg76
(lp2568
S'HTTP_ACCEPT_LANGUAGE'
p2569
asbag69
(g90
g71
NtRp2570
(dp2571
g74
(dp2572
g101
g102
ssg83
g2561
sg76
(lp2573
S':'
asbag69
(g90
g71
NtRp2574
(dp2575
g74
(dp2576
sg83
g2561
sg76
(lp2577
g69
(g70
g71
NtRp2578
(dp2579
g74
(dp2580
g82
I3
ssg83
g2574
sg76
(lp2581
g1072
asbasbasbag69
(g85
g71
NtRp2582
(dp2583
g74
(dp2584
sg83
g2515
sg76
(lp2585
g69
(g90
g71
NtRp2586
(dp2587
g74
(dp2588
g94
g95
ssg83
g2582
sg76
(lp2589
S'HTTP_CONNECTION'
p2590
asbag69
(g90
g71
NtRp2591
(dp2592
g74
(dp2593
g101
g102
ssg83
g2582
sg76
(lp2594
S':'
asbag69
(g90
g71
NtRp2595
(dp2596
g74
(dp2597
sg83
g2582
sg76
(lp2598
g69
(g70
g71
NtRp2599
(dp2600
g74
(dp2601
g82
I3
ssg83
g2595
sg76
(lp2602
g1094
asbasbasbag69
(g85
g71
NtRp2603
(dp2604
g74
(dp2605
sg83
g2515
sg76
(lp2606
g69
(g90
g71
NtRp2607
(dp2608
g74
(dp2609
g94
g95
ssg83
g2603
sg76
(lp2610
S'HTTP_COOKIE'
p2611
asbag69
(g90
g71
NtRp2612
(dp2613
g74
(dp2614
g101
g102
ssg83
g2603
sg76
(lp2615
S':'
asbag69
(g90
g71
NtRp2616
(dp2617
g74
(dp2618
sg83
g2603
sg76
(lp2619
g69
(g70
g71
NtRp2620
(dp2621
g74
(dp2622
g82
I3
ssg83
g2616
sg76
(lp2623
g1116
asbasbasbag69
(g85
g71
NtRp2624
(dp2625
g74
(dp2626
sg83
g2515
sg76
(lp2627
g69
(g90
g71
NtRp2628
(dp2629
g74
(dp2630
g94
g95
ssg83
g2624
sg76
(lp2631
S'HTTP_HOST'
p2632
asbag69
(g90
g71
NtRp2633
(dp2634
g74
(dp2635
g101
g102
ssg83
g2624
sg76
(lp2636
S':'
asbag69
(g90
g71
NtRp2637
(dp2638
g74
(dp2639
sg83
g2624
sg76
(lp2640
g69
(g70
g71
NtRp2641
(dp2642
g74
(dp2643
g82
I3
ssg83
g2637
sg76
(lp2644
g1138
asbasbasbag69
(g85
g71
NtRp2645
(dp2646
g74
(dp2647
sg83
g2515
sg76
(lp2648
g69
(g90
g71
NtRp2649
(dp2650
g74
(dp2651
g94
g95
ssg83
g2645
sg76
(lp2652
S'HTTP_REFERER'
p2653
asbag69
(g90
g71
NtRp2654
(dp2655
g74
(dp2656
g101
g102
ssg83
g2645
sg76
(lp2657
S':'
asbag69
(g90
g71
NtRp2658
(dp2659
g74
(dp2660
sg83
g2645
sg76
(lp2661
g69
(g70
g71
NtRp2662
(dp2663
g74
(dp2664
g82
I3
ssg83
g2658
sg76
(lp2665
g1160
asbasbasbag69
(g85
g71
NtRp2666
(dp2667
g74
(dp2668
sg83
g2515
sg76
(lp2669
g69
(g90
g71
NtRp2670
(dp2671
g74
(dp2672
g94
g95
ssg83
g2666
sg76
(lp2673
S'HTTP_UPGRADE_INSECURE_REQUESTS'
p2674
asbag69
(g90
g71
NtRp2675
(dp2676
g74
(dp2677
g101
g102
ssg83
g2666
sg76
(lp2678
S':'
asbag69
(g90
g71
NtRp2679
(dp2680
g74
(dp2681
sg83
g2666
sg76
(lp2682
g69
(g70
g71
NtRp2683
(dp2684
g74
(dp2685
g82
I3
ssg83
g2679
sg76
(lp2686
S'1'
asbasbasbag69
(g85
g71
NtRp2687
(dp2688
g74
(dp2689
sg83
g2515
sg76
(lp2690
g69
(g90
g71
NtRp2691
(dp2692
g74
(dp2693
g94
g95
ssg83
g2687
sg76
(lp2694
S'HTTP_USER_AGENT'
p2695
asbag69
(g90
g71
NtRp2696
(dp2697
g74
(dp2698
g101
g102
ssg83
g2687
sg76
(lp2699
S':'
asbag69
(g90
g71
NtRp2700
(dp2701
g74
(dp2702
sg83
g2687
sg76
(lp2703
g69
(g70
g71
NtRp2704
(dp2705
g74
(dp2706
g82
I3
ssg83
g2700
sg76
(lp2707
g1203
asbasbasbag69
(g85
g71
NtRp2708
(dp2709
g74
(dp2710
sg83
g2515
sg76
(lp2711
g69
(g90
g71
NtRp2712
(dp2713
g74
(dp2714
g94
g95
ssg83
g2708
sg76
(lp2715
S'PATH_INFO'
p2716
asbag69
(g90
g71
NtRp2717
(dp2718
g74
(dp2719
g101
g102
ssg83
g2708
sg76
(lp2720
S':'
asbag69
(g90
g71
NtRp2721
(dp2722
g74
(dp2723
sg83
g2708
sg76
(lp2724
g69
(g70
g71
NtRp2725
(dp2726
g74
(dp2727
g82
I3
ssg83
g2721
sg76
(lp2728
g1267
asbasbasbag69
(g85
g71
NtRp2729
(dp2730
g74
(dp2731
sg83
g2515
sg76
(lp2732
g69
(g90
g71
NtRp2733
(dp2734
g74
(dp2735
g94
g95
ssg83
g2729
sg76
(lp2736
S'QUERY_STRING'
p2737
asbag69
(g90
g71
NtRp2738
(dp2739
g74
(dp2740
g101
g102
ssg83
g2729
sg76
(lp2741
S':'
asbag69
(g90
g71
NtRp2742
(dp2743
g74
(dp2744
sg83
g2729
sg76
(lp2745
g69
(g70
g71
NtRp2746
(dp2747
g74
(dp2748
g82
I3
ssg83
g2742
sg76
(lp2749
g1289
asbasbasbag69
(g85
g71
NtRp2750
(dp2751
g74
(dp2752
sg83
g2515
sg76
(lp2753
g69
(g90
g71
NtRp2754
(dp2755
g74
(dp2756
g94
g95
ssg83
g2750
sg76
(lp2757
S'REMOTE_ADDR'
p2758
asbag69
(g90
g71
NtRp2759
(dp2760
g74
(dp2761
g101
g102
ssg83
g2750
sg76
(lp2762
S':'
asbag69
(g90
g71
NtRp2763
(dp2764
g74
(dp2765
sg83
g2750
sg76
(lp2766
g69
(g70
g71
NtRp2767
(dp2768
g74
(dp2769
g82
I3
ssg83
g2763
sg76
(lp2770
g215
asbasbasbag69
(g85
g71
NtRp2771
(dp2772
g74
(dp2773
sg83
g2515
sg76
(lp2774
g69
(g90
g71
NtRp2775
(dp2776
g74
(dp2777
g94
g95
ssg83
g2771
sg76
(lp2778
S'REMOTE_PORT'
p2779
asbag69
(g90
g71
NtRp2780
(dp2781
g74
(dp2782
g101
g102
ssg83
g2771
sg76
(lp2783
S':'
asbag69
(g90
g71
NtRp2784
(dp2785
g74
(dp2786
sg83
g2771
sg76
(lp2787
g69
(g70
g71
NtRp2788
(dp2789
g74
(dp2790
g82
I3
ssg83
g2784
sg76
(lp2791
g1332
asbasbasbag69
(g85
g71
NtRp2792
(dp2793
g74
(dp2794
sg83
g2515
sg76
(lp2795
g69
(g90
g71
NtRp2796
(dp2797
g74
(dp2798
g94
g95
ssg83
g2792
sg76
(lp2799
S'REQUEST_METHOD'
p2800
asbag69
(g90
g71
NtRp2801
(dp2802
g74
(dp2803
g101
g102
ssg83
g2792
sg76
(lp2804
S':'
asbag69
(g90
g71
NtRp2805
(dp2806
g74
(dp2807
sg83
g2792
sg76
(lp2808
g69
(g70
g71
NtRp2809
(dp2810
g74
(dp2811
g82
I3
ssg83
g2805
sg76
(lp2812
g1354
asbasbasbag69
(g85
g71
NtRp2813
(dp2814
g74
(dp2815
sg83
g2515
sg76
(lp2816
g69
(g90
g71
NtRp2817
(dp2818
g74
(dp2819
g94
g95
ssg83
g2813
sg76
(lp2820
S'SCRIPT_NAME'
p2821
asbag69
(g90
g71
NtRp2822
(dp2823
g74
(dp2824
g101
g102
ssg83
g2813
sg76
(lp2825
S':'
asbag69
(g90
g71
NtRp2826
(dp2827
g74
(dp2828
sg83
g2813
sg76
(lp2829
g69
(g70
g71
NtRp2830
(dp2831
g74
(dp2832
g82
I3
ssg83
g2826
sg76
(lp2833
S''
asbasbasbag69
(g85
g71
NtRp2834
(dp2835
g74
(dp2836
sg83
g2515
sg76
(lp2837
g69
(g90
g71
NtRp2838
(dp2839
g74
(dp2840
g94
g95
ssg83
g2834
sg76
(lp2841
S'SERVER_NAME'
p2842
asbag69
(g90
g71
NtRp2843
(dp2844
g74
(dp2845
g101
g102
ssg83
g2834
sg76
(lp2846
S':'
asbag69
(g90
g71
NtRp2847
(dp2848
g74
(dp2849
sg83
g2834
sg76
(lp2850
g69
(g70
g71
NtRp2851
(dp2852
g74
(dp2853
g82
I3
ssg83
g2847
sg76
(lp2854
g1397
asbasbasbag69
(g85
g71
NtRp2855
(dp2856
g74
(dp2857
sg83
g2515
sg76
(lp2858
g69
(g90
g71
NtRp2859
(dp2860
g74
(dp2861
g94
g95
ssg83
g2855
sg76
(lp2862
S'SERVER_PORT'
p2863
asbag69
(g90
g71
NtRp2864
(dp2865
g74
(dp2866
g101
g102
ssg83
g2855
sg76
(lp2867
S':'
asbag69
(g90
g71
NtRp2868
(dp2869
g74
(dp2870
sg83
g2855
sg76
(lp2871
g69
(g70
g71
NtRp2872
(dp2873
g74
(dp2874
g82
I3
ssg83
g2868
sg76
(lp2875
g1419
asbasbasbag69
(g85
g71
NtRp2876
(dp2877
g74
(dp2878
sg83
g2515
sg76
(lp2879
g69
(g90
g71
NtRp2880
(dp2881
g74
(dp2882
g94
g95
ssg83
g2876
sg76
(lp2883
S'SERVER_PROTOCOL'
p2884
asbag69
(g90
g71
NtRp2885
(dp2886
g74
(dp2887
g101
g102
ssg83
g2876
sg76
(lp2888
S':'
asbag69
(g90
g71
NtRp2889
(dp2890
g74
(dp2891
sg83
g2876
sg76
(lp2892
g69
(g70
g71
NtRp2893
(dp2894
g74
(dp2895
g82
I3
ssg83
g2889
sg76
(lp2896
g1441
asbasbasbag69
(g85
g71
NtRp2897
(dp2898
g74
(dp2899
sg83
g2515
sg76
(lp2900
g69
(g90
g71
NtRp2901
(dp2902
g74
(dp2903
g94
g95
ssg83
g2897
sg76
(lp2904
S'SERVER_SOFTWARE'
p2905
asbag69
(g90
g71
NtRp2906
(dp2907
g74
(dp2908
g101
g102
ssg83
g2897
sg76
(lp2909
S':'
asbag69
(g90
g71
NtRp2910
(dp2911
g74
(dp2912
sg83
g2897
sg76
(lp2913
g69
(g70
g71
NtRp2914
(dp2915
g74
(dp2916
g82
I3
ssg83
g2910
sg76
(lp2917
g1463
asbasbasbag69
(g85
g71
NtRp2918
(dp2919
g74
(dp2920
sg83
g2515
sg76
(lp2921
g69
(g90
g71
NtRp2922
(dp2923
g74
(dp2924
g94
g95
ssg83
g2918
sg76
(lp2925
S'wsgi.errors'
p2926
asbag69
(g90
g71
NtRp2927
(dp2928
g74
(dp2929
g101
g102
ssg83
g2918
sg76
(lp2930
S':'
asbag69
(g90
g71
NtRp2931
(dp2932
g74
(dp2933
sg83
g2918
sg76
(lp2934
g69
(g70
g71
NtRp2935
(dp2936
g74
(dp2937
g82
I3
ssg83
g2931
sg76
(lp2938
S"<open file '<stderr>', mode 'w' at 0xb727d0d0>"
p2939
asbasbasbag69
(g85
g71
NtRp2940
(dp2941
g74
(dp2942
sg83
g2515
sg76
(lp2943
g69
(g90
g71
NtRp2944
(dp2945
g74
(dp2946
g94
g95
ssg83
g2940
sg76
(lp2947
S'wsgi.file_wrapper'
p2948
asbag69
(g90
g71
NtRp2949
(dp2950
g74
(dp2951
g101
g102
ssg83
g2940
sg76
(lp2952
S':'
asbag69
(g90
g71
NtRp2953
(dp2954
g74
(dp2955
sg83
g2940
sg76
(lp2956
g69
(g70
g71
NtRp2957
(dp2958
g74
(dp2959
g82
I3
ssg83
g2953
sg76
(lp2960
S'<class wsgiref.util.FileWrapper at 0xa1764dc>'
p2961
asbasbasbag69
(g85
g71
NtRp2962
(dp2963
g74
(dp2964
sg83
g2515
sg76
(lp2965
g69
(g90
g71
NtRp2966
(dp2967
g74
(dp2968
g94
g95
ssg83
g2962
sg76
(lp2969
S'wsgi.input'
p2970
asbag69
(g90
g71
NtRp2971
(dp2972
g74
(dp2973
g101
g102
ssg83
g2962
sg76
(lp2974
S':'
asbag69
(g90
g71
NtRp2975
(dp2976
g74
(dp2977
sg83
g2962
sg76
(lp2978
g69
(g70
g71
NtRp2979
(dp2980
g74
(dp2981
g82
I3
ssg83
g2975
sg76
(lp2982
S'<cStringIO.StringO object at 0xa3b0ae0>'
p2983
asbasbasbag69
(g85
g71
NtRp2984
(dp2985
g74
(dp2986
sg83
g2515
sg76
(lp2987
g69
(g90
g71
NtRp2988
(dp2989
g74
(dp2990
g94
g95
ssg83
g2984
sg76
(lp2991
S'wsgi.multiprocess'
p2992
asbag69
(g90
g71
NtRp2993
(dp2994
g74
(dp2995
g101
g102
ssg83
g2984
sg76
(lp2996
S':'
asbag69
(g90
g71
NtRp2997
(dp2998
g74
(dp2999
sg83
g2984
sg76
(lp3000
g69
(g70
g71
NtRp3001
(dp3002
g74
(dp3003
g82
I3
ssg83
g2997
sg76
(lp3004
g112
asbasbasbag69
(g85
g71
NtRp3005
(dp3006
g74
(dp3007
sg83
g2515
sg76
(lp3008
g69
(g90
g71
NtRp3009
(dp3010
g74
(dp3011
g94
g95
ssg83
g3005
sg76
(lp3012
S'wsgi.multithread'
p3013
asbag69
(g90
g71
NtRp3014
(dp3015
g74
(dp3016
g101
g102
ssg83
g3005
sg76
(lp3017
S':'
asbag69
(g90
g71
NtRp3018
(dp3019
g74
(dp3020
sg83
g3005
sg76
(lp3021
g69
(g70
g71
NtRp3022
(dp3023
g74
(dp3024
g82
I3
ssg83
g3018
sg76
(lp3025
g1703
asbasbasbag69
(g85
g71
NtRp3026
(dp3027
g74
(dp3028
sg83
g2515
sg76
(lp3029
g69
(g90
g71
NtRp3030
(dp3031
g74
(dp3032
g94
g95
ssg83
g3026
sg76
(lp3033
S'wsgi.run_once'
p3034
asbag69
(g90
g71
NtRp3035
(dp3036
g74
(dp3037
g101
g102
ssg83
g3026
sg76
(lp3038
S':'
asbag69
(g90
g71
NtRp3039
(dp3040
g74
(dp3041
sg83
g3026
sg76
(lp3042
g69
(g70
g71
NtRp3043
(dp3044
g74
(dp3045
g82
I3
ssg83
g3039
sg76
(lp3046
g112
asbasbasbag69
(g85
g71
NtRp3047
(dp3048
g74
(dp3049
sg83
g2515
sg76
(lp3050
g69
(g90
g71
NtRp3051
(dp3052
g74
(dp3053
g94
g95
ssg83
g3047
sg76
(lp3054
S'wsgi.url_scheme'
p3055
asbag69
(g90
g71
NtRp3056
(dp3057
g74
(dp3058
g101
g102
ssg83
g3047
sg76
(lp3059
S':'
asbag69
(g90
g71
NtRp3060
(dp3061
g74
(dp3062
sg83
g3047
sg76
(lp3063
g69
(g70
g71
NtRp3064
(dp3065
g74
(dp3066
g82
I3
ssg83
g3060
sg76
(lp3067
g1746
asbasbasbag69
(g85
g71
NtRp3068
(dp3069
g74
(dp3070
sg83
g2515
sg76
(lp3071
g69
(g90
g71
NtRp3072
(dp3073
g74
(dp3074
g94
g95
ssg83
g3068
sg76
(lp3075
S'wsgi.version'
p3076
asbag69
(g90
g71
NtRp3077
(dp3078
g74
(dp3079
g101
g102
ssg83
g3068
sg76
(lp3080
S':'
asbag69
(g90
g71
NtRp3081
(dp3082
g74
(dp3083
sg83
g3068
sg76
(lp3084
g69
(g70
g71
NtRp3085
(dp3086
g74
(dp3087
g82
I3
ssg83
g3081
sg76
(lp3088
S'1'
asbasbasbasbasbasbasbasbasbasbasbasbasbsS'frames'
p3089
(lp3090
(dp3091
S'file'
p3092
S'/usr/lib/pymodules/python2.7/gluon/restricted.py'
p3093
sS'dump'
p3094
(dp3095
S'environment'
p3096
S"{'A': <class 'gluon.html.A'>, 'Auth': <class 'gluon.tools.Auth'>, 'B': <class 'gluon.html.B'>, 'BEAUTIFY': <class 'gluon.html.BEAUTIFY'>, 'BODY': <class 'gluon.html.BODY'>, 'BR': <class 'gluon.html.BR'>, 'BUTTON': <class 'gluon.html.BUTTON'>, 'CAT': <class 'gluon.html.CAT'>, 'CENTER': <class 'gluon.html.CENTER'>, 'CLEANUP': <class 'gluon.validators.CLEANUP'>, ...}"
p3097
sS'ccode'
p3098
S'<code object <module> at 0xaab12140, file "/home...2py/applications/blogpost/models/db.py", line 12>'
p3099
ssS'lnum'
p3100
I204
sS'lines'
p3101
(dp3102
I199
S'    try:'
p3103
sI200
S'        if type(code) == types.CodeType:'
p3104
sI201
S'            ccode = code'
p3105
sI202
S'        else:'
p3106
sI203
S'            ccode = compile2(code,layer)'
p3107
sI204
S'        exec ccode in environment'
p3108
sI205
S'    except HTTP:'
p3109
sI206
S'        raise'
p3110
sI207
S'    except RestrictedError:'
p3111
sI208
S'        # do not encapsulate (obfuscate) the original RestrictedError'
p3112
ssS'call'
p3113
S'(code="# -*- coding: utf-8 -*-\\n\\n#######################...ntent\'),\\n                  Field(\'data\',\'text\'))\\n", environment={\'A\': <class \'gluon.html.A\'>, \'Auth\': <class \'gluon.tools.Auth\'>, \'B\': <class \'gluon.html.B\'>, \'BEAUTIFY\': <class \'gluon.html.BEAUTIFY\'>, \'BODY\': <class \'gluon.html.BODY\'>, \'BR\': <class \'gluon.html.BR\'>, \'BUTTON\': <class \'gluon.html.BUTTON\'>, \'CAT\': <class \'gluon.html.CAT\'>, \'CENTER\': <class \'gluon.html.CENTER\'>, \'CLEANUP\': <class \'gluon.validators.CLEANUP\'>, ...}, layer=\'/home/mukul/web2py/applications/blogpost/models/db.py\')'
p3114
sS'func'
p3115
S'restricted'
p3116
sa(dp3117
g3092
S'/home/mukul/web2py/applications/blogpost/models/db.py'
p3118
sg3094
(dp3119
S'IS_NOT_EMPTY'
p3120
S"<class 'gluon.validators.IS_NOT_EMPTY'>"
p3121
sS'db.content'
p3122
S"<Table {'date_time': <gluon.dal.Field object at ...ld object at 0xa7b338c>, '_singular': 'Content'}>"
p3123
sS'db.content.title'
p3124
S'<gluon.dal.Field object>'
p3125
sS'db'
p3126
S"<DAL {'auth_event': <Table {'origin': <gluon.dal... '_id': <gluon.dal.Field object at 0xa8c672c>}>}>"
p3127
ssg3100
I96
sg3101
(dp3128
I96
S'db.content.title=IS_NOT_EMPTY()'
p3129
sI97
S''
sI98
S'db.content.video=IS_NOT_EMPTY()'
p3130
sI99
S''
sI100
S''
sI91
S"                         Field('video','string'),"
p3131
sI92
S"                         Field('data','text'),"
p3132
sI93
S"                         Field('date_time','datetime'),"
p3133
sI94
S'                         )'
p3134
sI95
S''
ssg3113
S'()'
p3135
sg3115
S'<module>'
p3136
sa(dp3137
g3092
S'/usr/lib/pymodules/python2.7/gluon/dal.py'
p3138
sg3094
(dp3139
S'builtinSyntaxError'
p3140
S"<type 'exceptions.SyntaxError'>"
p3141
sS'key'
p3142
S"'title'"
p3143
ssg3100
I5546
sg3101
(dp3144
I5541
S'    def __getattr__(self, key):'
p3145
sI5542
S'        return self[key]'
p3146
sI5543
S''
sI5544
S'    def __setattr__(self, key, value):'
p3147
sI5545
S"        if key[:1]!='_' and key in self:"
p3148
sI5546
S"            raise SyntaxError, 'Object exists and cannot be redefined: %s' % key"
p3149
sI5547
S'        self[key] = value'
p3150
sI5548
S''
sI5549
S'    def __iter__(self):'
p3151
sI5550
S'        for fieldname in self.fields:'
p3152
ssg3113
S"(self=<Table {'date_time': <gluon.dal.Field object at ...ld object at 0xa7b338c>, '_singular': 'Content'}>, key='title', value=<gluon.validators.IS_NOT_EMPTY object>)"
p3153
sg3115
g26
sasS'pyver'
p3154
S'Python 2.7.3: /usr/bin/python'
p3155
sS'session'
p3156
g69
(g70
g71
NtRp3157
(dp3158
g74
(dp3159
sg76
(lp3160
g69
(g78
g71
NtRp3161
(dp3162
g74
(dp3163
g82
I5
ssg83
Nsg76
(lp3164
g69
(g85
g71
NtRp3165
(dp3166
g74
(dp3167
sg83
g3161
sg76
(lp3168
g69
(g90
g71
NtRp3169
(dp3170
g74
(dp3171
g94
g95
ssg83
g3165
sg76
(lp3172
S'auth'
p3173
asbag69
(g90
g71
NtRp3174
(dp3175
g74
(dp3176
g101
g102
ssg83
g3165
sg76
(lp3177
S':'
asbag69
(g90
g71
NtRp3178
(dp3179
g74
(dp3180
sg83
g3165
sg76
(lp3181
g69
(g70
g71
NtRp3182
(dp3183
g74
(dp3184
g82
I5
ssg83
g3178
sg76
(lp3185
g69
(g78
g71
NtRp3186
(dp3187
g74
(dp3188
g82
I4
ssg83
Nsg76
(lp3189
g69
(g85
g71
NtRp3190
(dp3191
g74
(dp3192
sg83
g3186
sg76
(lp3193
g69
(g90
g71
NtRp3194
(dp3195
g74
(dp3196
g94
g95
ssg83
g3190
sg76
(lp3197
S'expiration'
p3198
asbag69
(g90
g71
NtRp3199
(dp3200
g74
(dp3201
g101
g102
ssg83
g3190
sg76
(lp3202
S':'
asbag69
(g90
g71
NtRp3203
(dp3204
g74
(dp3205
sg83
g3190
sg76
(lp3206
g69
(g70
g71
NtRp3207
(dp3208
g74
(dp3209
g82
I4
ssg83
g3203
sg76
(lp3210
S'2592000'
p3211
asbasbasbag69
(g85
g71
NtRp3212
(dp3213
g74
(dp3214
sg83
g3186
sg76
(lp3215
g69
(g90
g71
NtRp3216
(dp3217
g74
(dp3218
g94
g95
ssg83
g3212
sg76
(lp3219
S'hmac_key'
p3220
asbag69
(g90
g71
NtRp3221
(dp3222
g74
(dp3223
g101
g102
ssg83
g3212
sg76
(lp3224
S':'
asbag69
(g90
g71
NtRp3225
(dp3226
g74
(dp3227
sg83
g3212
sg76
(lp3228
g69
(g70
g71
NtRp3229
(dp3230
g74
(dp3231
g82
I4
ssg83
g3225
sg76
(lp3232
S'130c25d1-2de4-4e1f-91a4-e3f8ae2a53c6'
p3233
asbasbasbag69
(g85
g71
NtRp3234
(dp3235
g74
(dp3236
sg83
g3186
sg76
(lp3237
g69
(g90
g71
NtRp3238
(dp3239
g74
(dp3240
g94
g95
ssg83
g3234
sg76
(lp3241
S'last_visit'
p3242
asbag69
(g90
g71
NtRp3243
(dp3244
g74
(dp3245
g101
g102
ssg83
g3234
sg76
(lp3246
S':'
asbag69
(g90
g71
NtRp3247
(dp3248
g74
(dp3249
sg83
g3234
sg76
(lp3250
g69
(g70
g71
NtRp3251
(dp3252
g74
(dp3253
g82
I4
ssg83
g3247
sg76
(lp3254
S'datetime.datetime(2016, 5, 15, 1, 25, 57, 434025)'
p3255
asbasbasbag69
(g85
g71
NtRp3256
(dp3257
g74
(dp3258
sg83
g3186
sg76
(lp3259
g69
(g90
g71
NtRp3260
(dp3261
g74
(dp3262
g94
g95
ssg83
g3256
sg76
(lp3263
S'remember'
p3264
asbag69
(g90
g71
NtRp3265
(dp3266
g74
(dp3267
g101
g102
ssg83
g3256
sg76
(lp3268
S':'
asbag69
(g90
g71
NtRp3269
(dp3270
g74
(dp3271
sg83
g3256
sg76
(lp3272
g69
(g70
g71
NtRp3273
(dp3274
g74
(dp3275
g82
I4
ssg83
g3269
sg76
(lp3276
g112
asbasbasbag69
(g85
g71
NtRp3277
(dp3278
g74
(dp3279
sg83
g3186
sg76
(lp3280
g69
(g90
g71
NtRp3281
(dp3282
g74
(dp3283
g94
g95
ssg83
g3277
sg76
(lp3284
S'user'
p3285
asbag69
(g90
g71
NtRp3286
(dp3287
g74
(dp3288
g101
g102
ssg83
g3277
sg76
(lp3289
S':'
asbag69
(g90
g71
NtRp3290
(dp3291
g74
(dp3292
sg83
g3277
sg76
(lp3293
g69
(g70
g71
NtRp3294
(dp3295
g74
(dp3296
g82
I4
ssg83
g3290
sg76
(lp3297
g69
(g78
g71
NtRp3298
(dp3299
g74
(dp3300
g82
I3
ssg83
Nsg76
(lp3301
g69
(g85
g71
NtRp3302
(dp3303
g74
(dp3304
sg83
g3298
sg76
(lp3305
g69
(g90
g71
NtRp3306
(dp3307
g74
(dp3308
g94
g95
ssg83
g3302
sg76
(lp3309
S'email'
p3310
asbag69
(g90
g71
NtRp3311
(dp3312
g74
(dp3313
g101
g102
ssg83
g3302
sg76
(lp3314
S':'
asbag69
(g90
g71
NtRp3315
(dp3316
g74
(dp3317
sg83
g3302
sg76
(lp3318
g69
(g70
g71
NtRp3319
(dp3320
g74
(dp3321
g82
I3
ssg83
g3315
sg76
(lp3322
S'mukulkathpalia@gmail.com'
p3323
asbasbasbag69
(g85
g71
NtRp3324
(dp3325
g74
(dp3326
sg83
g3298
sg76
(lp3327
g69
(g90
g71
NtRp3328
(dp3329
g74
(dp3330
g94
g95
ssg83
g3324
sg76
(lp3331
S'first_name'
p3332
asbag69
(g90
g71
NtRp3333
(dp3334
g74
(dp3335
g101
g102
ssg83
g3324
sg76
(lp3336
S':'
asbag69
(g90
g71
NtRp3337
(dp3338
g74
(dp3339
sg83
g3324
sg76
(lp3340
g69
(g70
g71
NtRp3341
(dp3342
g74
(dp3343
g82
I3
ssg83
g3337
sg76
(lp3344
S'mukul'
p3345
asbasbasbag69
(g85
g71
NtRp3346
(dp3347
g74
(dp3348
sg83
g3298
sg76
(lp3349
g69
(g90
g71
NtRp3350
(dp3351
g74
(dp3352
g94
g95
ssg83
g3346
sg76
(lp3353
S'id'
p3354
asbag69
(g90
g71
NtRp3355
(dp3356
g74
(dp3357
g101
g102
ssg83
g3346
sg76
(lp3358
S':'
asbag69
(g90
g71
NtRp3359
(dp3360
g74
(dp3361
sg83
g3346
sg76
(lp3362
g69
(g70
g71
NtRp3363
(dp3364
g74
(dp3365
g82
I3
ssg83
g3359
sg76
(lp3366
S'1'
asbasbasbag69
(g85
g71
NtRp3367
(dp3368
g74
(dp3369
sg83
g3298
sg76
(lp3370
g69
(g90
g71
NtRp3371
(dp3372
g74
(dp3373
g94
g95
ssg83
g3367
sg76
(lp3374
S'last_name'
p3375
asbag69
(g90
g71
NtRp3376
(dp3377
g74
(dp3378
g101
g102
ssg83
g3367
sg76
(lp3379
S':'
asbag69
(g90
g71
NtRp3380
(dp3381
g74
(dp3382
sg83
g3367
sg76
(lp3383
g69
(g70
g71
NtRp3384
(dp3385
g74
(dp3386
g82
I3
ssg83
g3380
sg76
(lp3387
S'kathpalia'
p3388
asbasbasbag69
(g85
g71
NtRp3389
(dp3390
g74
(dp3391
sg83
g3298
sg76
(lp3392
g69
(g90
g71
NtRp3393
(dp3394
g74
(dp3395
g94
g95
ssg83
g3389
sg76
(lp3396
S'password'
p3397
asbag69
(g90
g71
NtRp3398
(dp3399
g74
(dp3400
g101
g102
ssg83
g3389
sg76
(lp3401
S':'
asbag69
(g90
g71
NtRp3402
(dp3403
g74
(dp3404
sg83
g3389
sg76
(lp3405
g69
(g70
g71
NtRp3406
(dp3407
g74
(dp3408
g82
I3
ssg83
g3402
sg76
(lp3409
S'80aeb2ab48c122c2c0b4eeef2ef83fb4'
p3410
asbasbasbag69
(g85
g71
NtRp3411
(dp3412
g74
(dp3413
sg83
g3298
sg76
(lp3414
g69
(g90
g71
NtRp3415
(dp3416
g74
(dp3417
g94
g95
ssg83
g3411
sg76
(lp3418
S'registration_id'
p3419
asbag69
(g90
g71
NtRp3420
(dp3421
g74
(dp3422
g101
g102
ssg83
g3411
sg76
(lp3423
S':'
asbag69
(g90
g71
NtRp3424
(dp3425
g74
(dp3426
sg83
g3411
sg76
(lp3427
g69
(g70
g71
NtRp3428
(dp3429
g74
(dp3430
g82
I3
ssg83
g3424
sg76
(lp3431
S''
asbasbasbag69
(g85
g71
NtRp3432
(dp3433
g74
(dp3434
sg83
g3298
sg76
(lp3435
g69
(g90
g71
NtRp3436
(dp3437
g74
(dp3438
g94
g95
ssg83
g3432
sg76
(lp3439
S'registration_key'
p3440
asbag69
(g90
g71
NtRp3441
(dp3442
g74
(dp3443
g101
g102
ssg83
g3432
sg76
(lp3444
S':'
asbag69
(g90
g71
NtRp3445
(dp3446
g74
(dp3447
sg83
g3432
sg76
(lp3448
g69
(g70
g71
NtRp3449
(dp3450
g74
(dp3451
g82
I3
ssg83
g3445
sg76
(lp3452
S''
asbasbasbag69
(g85
g71
NtRp3453
(dp3454
g74
(dp3455
sg83
g3298
sg76
(lp3456
g69
(g90
g71
NtRp3457
(dp3458
g74
(dp3459
g94
g95
ssg83
g3453
sg76
(lp3460
S'reset_password_key'
p3461
asbag69
(g90
g71
NtRp3462
(dp3463
g74
(dp3464
g101
g102
ssg83
g3453
sg76
(lp3465
S':'
asbag69
(g90
g71
NtRp3466
(dp3467
g74
(dp3468
sg83
g3453
sg76
(lp3469
g69
(g70
g71
NtRp3470
(dp3471
g74
(dp3472
g82
I3
ssg83
g3466
sg76
(lp3473
S''
asbasbasbasbasbasbasbasbasbasbasbag69
(g85
g71
NtRp3474
(dp3475
g74
(dp3476
sg83
g3161
sg76
(lp3477
g69
(g90
g71
NtRp3478
(dp3479
g74
(dp3480
g94
g95
ssg83
g3474
sg76
(lp3481
S'last_query'
p3482
asbag69
(g90
g71
NtRp3483
(dp3484
g74
(dp3485
g101
g102
ssg83
g3474
sg76
(lp3486
S':'
asbag69
(g90
g71
NtRp3487
(dp3488
g74
(dp3489
sg83
g3474
sg76
(lp3490
g69
(g70
g71
NtRp3491
(dp3492
g74
(dp3493
g82
I5
ssg83
g3487
sg76
(lp3494
S'db.comment.id>0'
p3495
asbasbasbasbasbsS'etype'
p3496
S"<type 'exceptions.SyntaxError'>"
p3497
sS'date'
p3498
S'Sun May 15 12:23:55 2016'
p3499
sS'response'
p3500
g69
(g70
g71
NtRp3501
(dp3502
g74
(dp3503
sg76
(lp3504
g69
(g78
g71
NtRp3505
(dp3506
g74
(dp3507
g82
I5
ssg83
Nsg76
(lp3508
g69
(g85
g71
NtRp3509
(dp3510
g74
(dp3511
sg83
g3505
sg76
(lp3512
g69
(g90
g71
NtRp3513
(dp3514
g74
(dp3515
g94
g95
ssg83
g3509
sg76
(lp3516
g180
asbag69
(g90
g71
NtRp3517
(dp3518
g74
(dp3519
g101
g102
ssg83
g3509
sg76
(lp3520
S':'
asbag69
(g90
g71
NtRp3521
(dp3522
g74
(dp3523
sg83
g3509
sg76
(lp3524
g69
(g70
g71
NtRp3525
(dp3526
g74
(dp3527
g82
I5
ssg83
g3521
sg76
(lp3528
S'<cStringIO.StringO object at 0xaabbca60>'
p3529
asbasbasbag69
(g85
g71
NtRp3530
(dp3531
g74
(dp3532
sg83
g3505
sg76
(lp3533
g69
(g90
g71
NtRp3534
(dp3535
g74
(dp3536
g94
g95
ssg83
g3530
sg76
(lp3537
g246
asbag69
(g90
g71
NtRp3538
(dp3539
g74
(dp3540
g101
g102
ssg83
g3530
sg76
(lp3541
S':'
asbag69
(g90
g71
NtRp3542
(dp3543
g74
(dp3544
sg83
g3530
sg76
(lp3545
g69
(g70
g71
NtRp3546
(dp3547
g74
(dp3548
g82
I5
ssg83
g3542
sg76
(lp3549
g69
(g78
g71
NtRp3550
(dp3551
g74
(dp3552
g82
I4
ssg83
Nsg76
(lp3553
g69
(g85
g71
NtRp3554
(dp3555
g74
(dp3556
sg83
g3550
sg76
(lp3557
g69
(g90
g71
NtRp3558
(dp3559
g74
(dp3560
g94
g95
ssg83
g3554
sg76
(lp3561
S'session_id_blogpost'
p3562
asbag69
(g90
g71
NtRp3563
(dp3564
g74
(dp3565
g101
g102
ssg83
g3554
sg76
(lp3566
S':'
asbag69
(g90
g71
NtRp3567
(dp3568
g74
(dp3569
sg83
g3554
sg76
(lp3570
g69
(g70
g71
NtRp3571
(dp3572
g74
(dp3573
g82
I4
ssg83
g3567
sg76
(lp3574
g69
(g78
g71
NtRp3575
(dp3576
g74
(dp3577
g82
I3
ssg83
Nsg76
(lp3578
g69
(g85
g71
NtRp3579
(dp3580
g74
(dp3581
sg83
g3575
sg76
(lp3582
g69
(g90
g71
NtRp3583
(dp3584
g74
(dp3585
g94
g95
ssg83
g3579
sg76
(lp3586
g296
asbag69
(g90
g71
NtRp3587
(dp3588
g74
(dp3589
g101
g102
ssg83
g3579
sg76
(lp3590
S':'
asbag69
(g90
g71
NtRp3591
(dp3592
g74
(dp3593
sg83
g3579
sg76
(lp3594
g69
(g70
g71
NtRp3595
(dp3596
g74
(dp3597
g82
I3
ssg83
g3591
sg76
(lp3598
S''
asbasbasbag69
(g85
g71
NtRp3599
(dp3600
g74
(dp3601
sg83
g3575
sg76
(lp3602
g69
(g90
g71
NtRp3603
(dp3604
g74
(dp3605
g94
g95
ssg83
g3599
sg76
(lp3606
g317
asbag69
(g90
g71
NtRp3607
(dp3608
g74
(dp3609
g101
g102
ssg83
g3599
sg76
(lp3610
S':'
asbag69
(g90
g71
NtRp3611
(dp3612
g74
(dp3613
sg83
g3599
sg76
(lp3614
g69
(g70
g71
NtRp3615
(dp3616
g74
(dp3617
g82
I3
ssg83
g3611
sg76
(lp3618
S''
asbasbasbag69
(g85
g71
NtRp3619
(dp3620
g74
(dp3621
sg83
g3575
sg76
(lp3622
g69
(g90
g71
NtRp3623
(dp3624
g74
(dp3625
g94
g95
ssg83
g3619
sg76
(lp3626
g338
asbag69
(g90
g71
NtRp3627
(dp3628
g74
(dp3629
g101
g102
ssg83
g3619
sg76
(lp3630
S':'
asbag69
(g90
g71
NtRp3631
(dp3632
g74
(dp3633
sg83
g3619
sg76
(lp3634
g69
(g70
g71
NtRp3635
(dp3636
g74
(dp3637
g82
I3
ssg83
g3631
sg76
(lp3638
S''
asbasbasbag69
(g85
g71
NtRp3639
(dp3640
g74
(dp3641
sg83
g3575
sg76
(lp3642
g69
(g90
g71
NtRp3643
(dp3644
g74
(dp3645
g94
g95
ssg83
g3639
sg76
(lp3646
g359
asbag69
(g90
g71
NtRp3647
(dp3648
g74
(dp3649
g101
g102
ssg83
g3639
sg76
(lp3650
S':'
asbag69
(g90
g71
NtRp3651
(dp3652
g74
(dp3653
sg83
g3639
sg76
(lp3654
g69
(g70
g71
NtRp3655
(dp3656
g74
(dp3657
g82
I3
ssg83
g3651
sg76
(lp3658
S''
asbasbasbag69
(g85
g71
NtRp3659
(dp3660
g74
(dp3661
sg83
g3575
sg76
(lp3662
g69
(g90
g71
NtRp3663
(dp3664
g74
(dp3665
g94
g95
ssg83
g3659
sg76
(lp3666
g380
asbag69
(g90
g71
NtRp3667
(dp3668
g74
(dp3669
g101
g102
ssg83
g3659
sg76
(lp3670
S':'
asbag69
(g90
g71
NtRp3671
(dp3672
g74
(dp3673
sg83
g3659
sg76
(lp3674
g69
(g70
g71
NtRp3675
(dp3676
g74
(dp3677
g82
I3
ssg83
g3671
sg76
(lp3678
S''
asbasbasbag69
(g85
g71
NtRp3679
(dp3680
g74
(dp3681
sg83
g3575
sg76
(lp3682
g69
(g90
g71
NtRp3683
(dp3684
g74
(dp3685
g94
g95
ssg83
g3679
sg76
(lp3686
g401
asbag69
(g90
g71
NtRp3687
(dp3688
g74
(dp3689
g101
g102
ssg83
g3679
sg76
(lp3690
S':'
asbag69
(g90
g71
NtRp3691
(dp3692
g74
(dp3693
sg83
g3679
sg76
(lp3694
g69
(g70
g71
NtRp3695
(dp3696
g74
(dp3697
g82
I3
ssg83
g3691
sg76
(lp3698
S'/'
asbasbasbag69
(g85
g71
NtRp3699
(dp3700
g74
(dp3701
sg83
g3575
sg76
(lp3702
g69
(g90
g71
NtRp3703
(dp3704
g74
(dp3705
g94
g95
ssg83
g3699
sg76
(lp3706
g422
asbag69
(g90
g71
NtRp3707
(dp3708
g74
(dp3709
g101
g102
ssg83
g3699
sg76
(lp3710
S':'
asbag69
(g90
g71
NtRp3711
(dp3712
g74
(dp3713
sg83
g3699
sg76
(lp3714
g69
(g70
g71
NtRp3715
(dp3716
g74
(dp3717
g82
I3
ssg83
g3711
sg76
(lp3718
S''
asbasbasbag69
(g85
g71
NtRp3719
(dp3720
g74
(dp3721
sg83
g3575
sg76
(lp3722
g69
(g90
g71
NtRp3723
(dp3724
g74
(dp3725
g94
g95
ssg83
g3719
sg76
(lp3726
g443
asbag69
(g90
g71
NtRp3727
(dp3728
g74
(dp3729
g101
g102
ssg83
g3719
sg76
(lp3730
S':'
asbag69
(g90
g71
NtRp3731
(dp3732
g74
(dp3733
sg83
g3719
sg76
(lp3734
g69
(g70
g71
NtRp3735
(dp3736
g74
(dp3737
g82
I3
ssg83
g3731
sg76
(lp3738
S''
asbasbasbasbasbasbasbasbasbasbasbag69
(g85
g71
NtRp3739
(dp3740
g74
(dp3741
sg83
g3505
sg76
(lp3742
g69
(g90
g71
NtRp3743
(dp3744
g74
(dp3745
g94
g95
ssg83
g3739
sg76
(lp3746
S'files'
p3747
asbag69
(g90
g71
NtRp3748
(dp3749
g74
(dp3750
g101
g102
ssg83
g3739
sg76
(lp3751
S':'
asbag69
(g90
g71
NtRp3752
(dp3753
g74
(dp3754
sg83
g3739
sg76
(lp3755
g69
(g70
g71
NtRp3756
(dp3757
g74
(dp3758
g82
I5
ssg83
g3752
sg76
(lp3759
g69
(g78
g71
NtRp3760
(dp3761
g74
(dp3762
g82
I4
ssg83
Nsg76
(lp3763
sbasbasbasbag69
(g85
g71
NtRp3764
(dp3765
g74
(dp3766
sg83
g3505
sg76
(lp3767
g69
(g90
g71
NtRp3768
(dp3769
g74
(dp3770
g94
g95
ssg83
g3764
sg76
(lp3771
S'flash'
p3772
asbag69
(g90
g71
NtRp3773
(dp3774
g74
(dp3775
g101
g102
ssg83
g3764
sg76
(lp3776
S':'
asbag69
(g90
g71
NtRp3777
(dp3778
g74
(dp3779
sg83
g3764
sg76
(lp3780
g69
(g70
g71
NtRp3781
(dp3782
g74
(dp3783
g82
I5
ssg83
g3777
sg76
(lp3784
S''
asbasbasbag69
(g85
g71
NtRp3785
(dp3786
g74
(dp3787
sg83
g3505
sg76
(lp3788
g69
(g90
g71
NtRp3789
(dp3790
g74
(dp3791
g94
g95
ssg83
g3785
sg76
(lp3792
S'generic_patterns'
p3793
asbag69
(g90
g71
NtRp3794
(dp3795
g74
(dp3796
g101
g102
ssg83
g3785
sg76
(lp3797
S':'
asbag69
(g90
g71
NtRp3798
(dp3799
g74
(dp3800
sg83
g3785
sg76
(lp3801
g69
(g70
g71
NtRp3802
(dp3803
g74
(dp3804
g82
I5
ssg83
g3798
sg76
(lp3805
g69
(g78
g71
NtRp3806
(dp3807
g74
(dp3808
g82
I4
ssg83
Nsg76
(lp3809
g69
(g85
g71
NtRp3810
(dp3811
g74
(dp3812
sg83
g3806
sg76
(lp3813
g69
(g90
g71
NtRp3814
(dp3815
g74
(dp3816
sg83
g3810
sg76
(lp3817
g69
(g70
g71
NtRp3818
(dp3819
g74
(dp3820
g82
I4
ssg83
g3814
sg76
(lp3821
S'*'
asbasbasbasbasbasbasbag69
(g85
g71
NtRp3822
(dp3823
g74
(dp3824
sg83
g3505
sg76
(lp3825
g69
(g90
g71
NtRp3826
(dp3827
g74
(dp3828
g94
g95
ssg83
g3822
sg76
(lp3829
S'headers'
p3830
asbag69
(g90
g71
NtRp3831
(dp3832
g74
(dp3833
g101
g102
ssg83
g3822
sg76
(lp3834
S':'
asbag69
(g90
g71
NtRp3835
(dp3836
g74
(dp3837
sg83
g3822
sg76
(lp3838
g69
(g70
g71
NtRp3839
(dp3840
g74
(dp3841
g82
I5
ssg83
g3835
sg76
(lp3842
g69
(g78
g71
NtRp3843
(dp3844
g74
(dp3845
g82
I4
ssg83
Nsg76
(lp3846
g69
(g85
g71
NtRp3847
(dp3848
g74
(dp3849
sg83
g3843
sg76
(lp3850
g69
(g90
g71
NtRp3851
(dp3852
g74
(dp3853
g94
g95
ssg83
g3847
sg76
(lp3854
S'Cache-Control'
p3855
asbag69
(g90
g71
NtRp3856
(dp3857
g74
(dp3858
g101
g102
ssg83
g3847
sg76
(lp3859
S':'
asbag69
(g90
g71
NtRp3860
(dp3861
g74
(dp3862
sg83
g3847
sg76
(lp3863
g69
(g70
g71
NtRp3864
(dp3865
g74
(dp3866
g82
I4
ssg83
g3860
sg76
(lp3867
S'no-store, no-cache, must-revalidate, post-check=0, pre-check=0'
p3868
asbasbasbag69
(g85
g71
NtRp3869
(dp3870
g74
(dp3871
sg83
g3843
sg76
(lp3872
g69
(g90
g71
NtRp3873
(dp3874
g74
(dp3875
g94
g95
ssg83
g3869
sg76
(lp3876
S'Content-Type'
p3877
asbag69
(g90
g71
NtRp3878
(dp3879
g74
(dp3880
g101
g102
ssg83
g3869
sg76
(lp3881
S':'
asbag69
(g90
g71
NtRp3882
(dp3883
g74
(dp3884
sg83
g3869
sg76
(lp3885
g69
(g70
g71
NtRp3886
(dp3887
g74
(dp3888
g82
I4
ssg83
g3882
sg76
(lp3889
S'text/html; charset=utf-8'
p3890
asbasbasbag69
(g85
g71
NtRp3891
(dp3892
g74
(dp3893
sg83
g3843
sg76
(lp3894
g69
(g90
g71
NtRp3895
(dp3896
g74
(dp3897
g94
g95
ssg83
g3891
sg76
(lp3898
S'Expires'
p3899
asbag69
(g90
g71
NtRp3900
(dp3901
g74
(dp3902
g101
g102
ssg83
g3891
sg76
(lp3903
S':'
asbag69
(g90
g71
NtRp3904
(dp3905
g74
(dp3906
sg83
g3891
sg76
(lp3907
g69
(g70
g71
NtRp3908
(dp3909
g74
(dp3910
g82
I4
ssg83
g3904
sg76
(lp3911
S'Sun, 15 May 2016 06:53:55 GMT'
p3912
asbasbasbag69
(g85
g71
NtRp3913
(dp3914
g74
(dp3915
sg83
g3843
sg76
(lp3916
g69
(g90
g71
NtRp3917
(dp3918
g74
(dp3919
g94
g95
ssg83
g3913
sg76
(lp3920
S'Pragma'
p3921
asbag69
(g90
g71
NtRp3922
(dp3923
g74
(dp3924
g101
g102
ssg83
g3913
sg76
(lp3925
S':'
asbag69
(g90
g71
NtRp3926
(dp3927
g74
(dp3928
sg83
g3913
sg76
(lp3929
g69
(g70
g71
NtRp3930
(dp3931
g74
(dp3932
g82
I4
ssg83
g3926
sg76
(lp3933
S'no-cache'
p3934
asbasbasbag69
(g85
g71
NtRp3935
(dp3936
g74
(dp3937
sg83
g3843
sg76
(lp3938
g69
(g90
g71
NtRp3939
(dp3940
g74
(dp3941
g94
g95
ssg83
g3935
sg76
(lp3942
S'X-Powered-By'
p3943
asbag69
(g90
g71
NtRp3944
(dp3945
g74
(dp3946
g101
g102
ssg83
g3935
sg76
(lp3947
S':'
asbag69
(g90
g71
NtRp3948
(dp3949
g74
(dp3950
sg83
g3935
sg76
(lp3951
g69
(g70
g71
NtRp3952
(dp3953
g74
(dp3954
g82
I4
ssg83
g3948
sg76
(lp3955
S'web2py'
p3956
asbasbasbasbasbasbasbag69
(g85
g71
NtRp3957
(dp3958
g74
(dp3959
sg83
g3505
sg76
(lp3960
g69
(g90
g71
NtRp3961
(dp3962
g74
(dp3963
g94
g95
ssg83
g3957
sg76
(lp3964
S'menu'
p3965
asbag69
(g90
g71
NtRp3966
(dp3967
g74
(dp3968
g101
g102
ssg83
g3957
sg76
(lp3969
S':'
asbag69
(g90
g71
NtRp3970
(dp3971
g74
(dp3972
sg83
g3957
sg76
(lp3973
g69
(g70
g71
NtRp3974
(dp3975
g74
(dp3976
g82
I5
ssg83
g3970
sg76
(lp3977
g69
(g78
g71
NtRp3978
(dp3979
g74
(dp3980
g82
I4
ssg83
Nsg76
(lp3981
sbasbasbasbag69
(g85
g71
NtRp3982
(dp3983
g74
(dp3984
sg83
g3505
sg76
(lp3985
g69
(g90
g71
NtRp3986
(dp3987
g74
(dp3988
g94
g95
ssg83
g3982
sg76
(lp3989
S'meta'
p3990
asbag69
(g90
g71
NtRp3991
(dp3992
g74
(dp3993
g101
g102
ssg83
g3982
sg76
(lp3994
S':'
asbag69
(g90
g71
NtRp3995
(dp3996
g74
(dp3997
sg83
g3982
sg76
(lp3998
g69
(g70
g71
NtRp3999
(dp4000
g74
(dp4001
g82
I5
ssg83
g3995
sg76
(lp4002
g69
(g78
g71
NtRp4003
(dp4004
g74
(dp4005
g82
I4
ssg83
Nsg76
(lp4006
sbasbasbasbag69
(g85
g71
NtRp4007
(dp4008
g74
(dp4009
sg83
g3505
sg76
(lp4010
g69
(g90
g71
NtRp4011
(dp4012
g74
(dp4013
g94
g95
ssg83
g4007
sg76
(lp4014
S'postprocessing'
p4015
asbag69
(g90
g71
NtRp4016
(dp4017
g74
(dp4018
g101
g102
ssg83
g4007
sg76
(lp4019
S':'
asbag69
(g90
g71
NtRp4020
(dp4021
g74
(dp4022
sg83
g4007
sg76
(lp4023
g69
(g70
g71
NtRp4024
(dp4025
g74
(dp4026
g82
I5
ssg83
g4020
sg76
(lp4027
g69
(g78
g71
NtRp4028
(dp4029
g74
(dp4030
g82
I4
ssg83
Nsg76
(lp4031
sbasbasbasbag69
(g85
g71
NtRp4032
(dp4033
g74
(dp4034
sg83
g3505
sg76
(lp4035
g69
(g90
g71
NtRp4036
(dp4037
g74
(dp4038
g94
g95
ssg83
g4032
sg76
(lp4039
S'session_file'
p4040
asbag69
(g90
g71
NtRp4041
(dp4042
g74
(dp4043
g101
g102
ssg83
g4032
sg76
(lp4044
S':'
asbag69
(g90
g71
NtRp4045
(dp4046
g74
(dp4047
sg83
g4032
sg76
(lp4048
g69
(g70
g71
NtRp4049
(dp4050
g74
(dp4051
g82
I5
ssg83
g4045
sg76
(lp4052
S"<open file '/home/mukul/web2py/applications/blogpost/sessions/127.0.0.1-bcd64a48-cdf0-42c4-b6ce-38fdcd520e45', mode 'rb+' at 0xb0be5338>"
p4053
asbasbasbag69
(g85
g71
NtRp4054
(dp4055
g74
(dp4056
sg83
g3505
sg76
(lp4057
g69
(g90
g71
NtRp4058
(dp4059
g74
(dp4060
g94
g95
ssg83
g4054
sg76
(lp4061
S'session_filename'
p4062
asbag69
(g90
g71
NtRp4063
(dp4064
g74
(dp4065
g101
g102
ssg83
g4054
sg76
(lp4066
S':'
asbag69
(g90
g71
NtRp4067
(dp4068
g74
(dp4069
sg83
g4054
sg76
(lp4070
g69
(g70
g71
NtRp4071
(dp4072
g74
(dp4073
g82
I5
ssg83
g4067
sg76
(lp4074
S'/home/mukul/web2py/applications/blogpost/sessions/127.0.0.1-bcd64a48-cdf0-42c4-b6ce-38fdcd520e45'
p4075
asbasbasbag69
(g85
g71
NtRp4076
(dp4077
g74
(dp4078
sg83
g3505
sg76
(lp4079
g69
(g90
g71
NtRp4080
(dp4081
g74
(dp4082
g94
g95
ssg83
g4076
sg76
(lp4083
S'session_id'
p4084
asbag69
(g90
g71
NtRp4085
(dp4086
g74
(dp4087
g101
g102
ssg83
g4076
sg76
(lp4088
S':'
asbag69
(g90
g71
NtRp4089
(dp4090
g74
(dp4091
sg83
g4076
sg76
(lp4092
g69
(g70
g71
NtRp4093
(dp4094
g74
(dp4095
g82
I5
ssg83
g4089
sg76
(lp4096
S'127.0.0.1-bcd64a48-cdf0-42c4-b6ce-38fdcd520e45'
p4097
asbasbasbag69
(g85
g71
NtRp4098
(dp4099
g74
(dp4100
sg83
g3505
sg76
(lp4101
g69
(g90
g71
NtRp4102
(dp4103
g74
(dp4104
g94
g95
ssg83
g4098
sg76
(lp4105
S'session_id_name'
p4106
asbag69
(g90
g71
NtRp4107
(dp4108
g74
(dp4109
g101
g102
ssg83
g4098
sg76
(lp4110
S':'
asbag69
(g90
g71
NtRp4111
(dp4112
g74
(dp4113
sg83
g4098
sg76
(lp4114
g69
(g70
g71
NtRp4115
(dp4116
g74
(dp4117
g82
I5
ssg83
g4111
sg76
(lp4118
g3562
asbasbasbag69
(g85
g71
NtRp4119
(dp4120
g74
(dp4121
sg83
g3505
sg76
(lp4122
g69
(g90
g71
NtRp4123
(dp4124
g74
(dp4125
g94
g95
ssg83
g4119
sg76
(lp4126
S'session_locked'
p4127
asbag69
(g90
g71
NtRp4128
(dp4129
g74
(dp4130
g101
g102
ssg83
g4119
sg76
(lp4131
S':'
asbag69
(g90
g71
NtRp4132
(dp4133
g74
(dp4134
sg83
g4119
sg76
(lp4135
g69
(g70
g71
NtRp4136
(dp4137
g74
(dp4138
g82
I5
ssg83
g4132
sg76
(lp4139
g1703
asbasbasbag69
(g85
g71
NtRp4140
(dp4141
g74
(dp4142
sg83
g3505
sg76
(lp4143
g69
(g90
g71
NtRp4144
(dp4145
g74
(dp4146
g94
g95
ssg83
g4140
sg76
(lp4147
S'session_new'
p4148
asbag69
(g90
g71
NtRp4149
(dp4150
g74
(dp4151
g101
g102
ssg83
g4140
sg76
(lp4152
S':'
asbag69
(g90
g71
NtRp4153
(dp4154
g74
(dp4155
sg83
g4140
sg76
(lp4156
g69
(g70
g71
NtRp4157
(dp4158
g74
(dp4159
g82
I5
ssg83
g4153
sg76
(lp4160
g112
asbasbasbag69
(g85
g71
NtRp4161
(dp4162
g74
(dp4163
sg83
g3505
sg76
(lp4164
g69
(g90
g71
NtRp4165
(dp4166
g74
(dp4167
g94
g95
ssg83
g4161
sg76
(lp4168
S'status'
p4169
asbag69
(g90
g71
NtRp4170
(dp4171
g74
(dp4172
g101
g102
ssg83
g4161
sg76
(lp4173
S':'
asbag69
(g90
g71
NtRp4174
(dp4175
g74
(dp4176
sg83
g4161
sg76
(lp4177
g69
(g70
g71
NtRp4178
(dp4179
g74
(dp4180
g82
I5
ssg83
g4174
sg76
(lp4181
S'200'
p4182
asbasbasbag69
(g85
g71
NtRp4183
(dp4184
g74
(dp4185
sg83
g3505
sg76
(lp4186
g69
(g90
g71
NtRp4187
(dp4188
g74
(dp4189
g94
g95
ssg83
g4183
sg76
(lp4190
g2410
asbag69
(g90
g71
NtRp4191
(dp4192
g74
(dp4193
g101
g102
ssg83
g4183
sg76
(lp4194
S':'
asbag69
(g90
g71
NtRp4195
(dp4196
g74
(dp4197
sg83
g4183
sg76
(lp4198
g69
(g70
g71
NtRp4199
(dp4200
g74
(dp4201
g82
I5
ssg83
g4195
sg76
(lp4202
g2423
asbasbasbag69
(g85
g71
NtRp4203
(dp4204
g74
(dp4205
sg83
g3505
sg76
(lp4206
g69
(g90
g71
NtRp4207
(dp4208
g74
(dp4209
g94
g95
ssg83
g4203
sg76
(lp4210
S'view'
p4211
asbag69
(g90
g71
NtRp4212
(dp4213
g74
(dp4214
g101
g102
ssg83
g4203
sg76
(lp4215
S':'
asbag69
(g90
g71
NtRp4216
(dp4217
g74
(dp4218
sg83
g4203
sg76
(lp4219
g69
(g70
g71
NtRp4220
(dp4221
g74
(dp4222
g82
I5
ssg83
g4216
sg76
(lp4223
S'appadmin/select.html'
p4224
asbasbasbasbasbsS'locals'
p4225
(dp4226
S'self'
p4227
S"<Table {'date_time': <gluon.dal.Field object at ...ld object at 0xa7b338c>, '_singular': 'Content'}>"
p4228
sS'value'
p4229
S'<gluon.validators.IS_NOT_EMPTY object>'
p4230
sS'key'
p4231
S"'title'"
p4232
sssS'traceback'
p4233
S'Traceback (most recent call last):\n  File "/usr/lib/pymodules/python2.7/gluon/restricted.py", line 204, in restricted\n    exec ccode in environment\n  File "/home/mukul/web2py/applications/blogpost/models/db.py", line 96, in <module>\n    db.content.title=IS_NOT_EMPTY()\n  File "/usr/lib/pymodules/python2.7/gluon/dal.py", line 5546, in __setattr__\n    raise SyntaxError, \'Object exists and cannot be redefined: %s\' % key\nSyntaxError: Object exists and cannot be redefined: title\n'
p4234
s.