(dp1
S'output'
p2
S"<type 'exceptions.IndentationError'> unexpected indent (default.py, line 27)"
p3
sS'layer'
p4
S'/home/mukul/web2py/applications/blogpost/controllers/default.py'
p5
sS'code'
p6
S"# -*- coding: utf-8 -*-\n# this file is released under public domain and you can use without limitations\n\n#########################################################################\n## This is a samples controller\n## - index is the default action of any application\n## - user is required for authentication and authorization\n## - download is for downloading files uploaded in the db (does streaming)\n## - call exposes all registered services (none by default)\n#########################################################################\nimport datetime\n\ndef user():\n    return dict(form=auth())\n    \n    \n    \ndef add_blog_post():\n    blog_title = request.post_vars['title']\n    blog_data = request.post_vars['data']\n    blog_image = request.post_vars['image']\n    blog_date = datetime.datetime.now()\n    db.content.insert(title=blog_title\n                    ,data=blog_data\n                    ,image=blog_image\n                    ,date_time=blog_date)\n     redirect{{=URL('show')}}\n    \n    \n     \n    #redirect  show all blog posts usi particular user ke   \n\n    \n     \n@auth.requires_login()\ndef show():\n       imag=db().select(db.content.ALL,orderby=db.content.id)\n       return dict(imag=imag)\n\nresponse._vars=response._caller(add_blog_post)\n"
p7
sS'snapshot'
p8
(dp9
S'exception'
p10
(dp11
S'__getslice__'
p12
S"<method-wrapper '__getslice__' of exceptions.IndentationError object>"
p13
sS'text'
p14
S'"     redirect{{=URL(\'show\')}}\\n"'
p15
sS'__str__'
p16
S"<method-wrapper '__str__' of exceptions.IndentationError object>"
p17
sS'__reduce__'
p18
S'<built-in method __reduce__ of exceptions.IndentationError object>'
p19
sS'__dict__'
p20
S'{}'
p21
sS'__sizeof__'
p22
S'<built-in method __sizeof__ of exceptions.IndentationError object>'
p23
sS'__init__'
p24
S"<method-wrapper '__init__' of exceptions.IndentationError object>"
p25
sS'__setattr__'
p26
S"<method-wrapper '__setattr__' of exceptions.IndentationError object>"
p27
sS'__reduce_ex__'
p28
S'<built-in method __reduce_ex__ of exceptions.IndentationError object>'
p29
sS'__new__'
p30
S'<built-in method __new__ of type object>'
p31
sS'__format__'
p32
S'<built-in method __format__ of exceptions.IndentationError object>'
p33
sS'__class__'
p34
S"<type 'exceptions.IndentationError'>"
p35
sS'filename'
p36
S"'/home/mukul/web2py/applications/blogpost/controllers/default.py'"
p37
sS'lineno'
p38
S'27'
p39
sS'msg'
p40
S"'unexpected indent'"
p41
sS'__doc__'
p42
S"'Improper indentation.'"
p43
sS'__getitem__'
p44
S"<method-wrapper '__getitem__' of exceptions.IndentationError object>"
p45
sS'__setstate__'
p46
S'<built-in method __setstate__ of exceptions.IndentationError object>'
p47
sS'__getattribute__'
p48
S"<method-wrapper '__getattribute__' of exceptions.IndentationError object>"
p49
sS'print_file_and_line'
p50
S'None'
p51
sS'args'
p52
S'(\'unexpected indent\', (\'/home/mukul/web2py/applications/blogpost/controllers/default.py\', 27, 5, "     redirect{{=URL(\'show\')}}\\n"))'
p53
sS'__subclasshook__'
p54
S'<built-in method __subclasshook__ of type object>'
p55
sS'offset'
p56
S'5'
sS'__unicode__'
p57
S'<built-in method __unicode__ of exceptions.IndentationError object>'
p58
sS'__delattr__'
p59
S"<method-wrapper '__delattr__' of exceptions.IndentationError object>"
p60
sS'__repr__'
p61
S"<method-wrapper '__repr__' of exceptions.IndentationError object>"
p62
sS'__hash__'
p63
S"<method-wrapper '__hash__' of exceptions.IndentationError object>"
p64
ssS'evalue'
p65
S'unexpected indent (default.py, line 27)'
p66
sS'request'
p67
ccopy_reg
_reconstructor
p68
(cgluon.html
BEAUTIFY
p69
c__builtin__
object
p70
NtRp71
(dp72
S'attributes'
p73
(dp74
sS'components'
p75
(lp76
g68
(cgluon.html
TABLE
p77
g70
NtRp78
(dp79
g73
(dp80
S'level'
p81
I5
ssS'parent'
p82
Nsg75
(lp83
g68
(cgluon.html
TR
p84
g70
NtRp85
(dp86
g73
(dp87
sg82
g78
sg75
(lp88
g68
(cgluon.html
TD
p89
g70
NtRp90
(dp91
g73
(dp92
S'_style'
p93
S'font-weight:bold;vertical-align:top'
p94
ssg82
g85
sg75
(lp95
S'ajax'
p96
asbag68
(g89
g70
NtRp97
(dp98
g73
(dp99
S'_valign'
p100
S'top'
p101
ssg82
g85
sg75
(lp102
S':'
asbag68
(g89
g70
NtRp103
(dp104
g73
(dp105
sg82
g85
sg75
(lp106
g68
(g69
g70
NtRp107
(dp108
g73
(dp109
g81
I5
ssg82
g103
sg75
(lp110
S'False'
p111
asbasbasbag68
(g84
g70
NtRp112
(dp113
g73
(dp114
sg82
g78
sg75
(lp115
g68
(g89
g70
NtRp116
(dp117
g73
(dp118
g93
g94
ssg82
g112
sg75
(lp119
S'application'
p120
asbag68
(g89
g70
NtRp121
(dp122
g73
(dp123
g100
g101
ssg82
g112
sg75
(lp124
S':'
asbag68
(g89
g70
NtRp125
(dp126
g73
(dp127
sg82
g112
sg75
(lp128
g68
(g69
g70
NtRp129
(dp130
g73
(dp131
g81
I5
ssg82
g125
sg75
(lp132
S'blogpost'
p133
asbasbasbag68
(g84
g70
NtRp134
(dp135
g73
(dp136
sg82
g78
sg75
(lp137
g68
(g89
g70
NtRp138
(dp139
g73
(dp140
g93
g94
ssg82
g134
sg75
(lp141
g52
asbag68
(g89
g70
NtRp142
(dp143
g73
(dp144
g100
g101
ssg82
g134
sg75
(lp145
S':'
asbag68
(g89
g70
NtRp146
(dp147
g73
(dp148
sg82
g134
sg75
(lp149
g68
(g69
g70
NtRp150
(dp151
g73
(dp152
g81
I5
ssg82
g146
sg75
(lp153
g68
(g77
g70
NtRp154
(dp155
g73
(dp156
g81
I4
ssg82
Nsg75
(lp157
sbasbasbasbag68
(g84
g70
NtRp158
(dp159
g73
(dp160
sg82
g78
sg75
(lp161
g68
(g89
g70
NtRp162
(dp163
g73
(dp164
g93
g94
ssg82
g158
sg75
(lp165
S'body'
p166
asbag68
(g89
g70
NtRp167
(dp168
g73
(dp169
g100
g101
ssg82
g158
sg75
(lp170
S':'
asbag68
(g89
g70
NtRp171
(dp172
g73
(dp173
sg82
g158
sg75
(lp174
g68
(g69
g70
NtRp175
(dp176
g73
(dp177
g81
I5
ssg82
g171
sg75
(lp178
S'<cStringIO.StringO object at 0x9922660>'
p179
asbasbasbag68
(g84
g70
NtRp180
(dp181
g73
(dp182
sg82
g78
sg75
(lp183
g68
(g89
g70
NtRp184
(dp185
g73
(dp186
g93
g94
ssg82
g180
sg75
(lp187
S'client'
p188
asbag68
(g89
g70
NtRp189
(dp190
g73
(dp191
g100
g101
ssg82
g180
sg75
(lp192
S':'
asbag68
(g89
g70
NtRp193
(dp194
g73
(dp195
sg82
g180
sg75
(lp196
g68
(g69
g70
NtRp197
(dp198
g73
(dp199
g81
I5
ssg82
g193
sg75
(lp200
S'127.0.0.1'
p201
asbasbasbag68
(g84
g70
NtRp202
(dp203
g73
(dp204
sg82
g78
sg75
(lp205
g68
(g89
g70
NtRp206
(dp207
g73
(dp208
g93
g94
ssg82
g202
sg75
(lp209
S'controller'
p210
asbag68
(g89
g70
NtRp211
(dp212
g73
(dp213
g100
g101
ssg82
g202
sg75
(lp214
S':'
asbag68
(g89
g70
NtRp215
(dp216
g73
(dp217
sg82
g202
sg75
(lp218
g68
(g69
g70
NtRp219
(dp220
g73
(dp221
g81
I5
ssg82
g215
sg75
(lp222
S'default'
p223
asbasbasbag68
(g84
g70
NtRp224
(dp225
g73
(dp226
sg82
g78
sg75
(lp227
g68
(g89
g70
NtRp228
(dp229
g73
(dp230
g93
g94
ssg82
g224
sg75
(lp231
S'cookies'
p232
asbag68
(g89
g70
NtRp233
(dp234
g73
(dp235
g100
g101
ssg82
g224
sg75
(lp236
S':'
asbag68
(g89
g70
NtRp237
(dp238
g73
(dp239
sg82
g224
sg75
(lp240
g68
(g69
g70
NtRp241
(dp242
g73
(dp243
g81
I5
ssg82
g237
sg75
(lp244
g68
(g77
g70
NtRp245
(dp246
g73
(dp247
g81
I4
ssg82
Nsg75
(lp248
g68
(g84
g70
NtRp249
(dp250
g73
(dp251
sg82
g245
sg75
(lp252
g68
(g89
g70
NtRp253
(dp254
g73
(dp255
g93
g94
ssg82
g249
sg75
(lp256
S'session_id_admin'
p257
asbag68
(g89
g70
NtRp258
(dp259
g73
(dp260
g100
g101
ssg82
g249
sg75
(lp261
S':'
asbag68
(g89
g70
NtRp262
(dp263
g73
(dp264
sg82
g249
sg75
(lp265
g68
(g69
g70
NtRp266
(dp267
g73
(dp268
g81
I4
ssg82
g262
sg75
(lp269
g68
(g77
g70
NtRp270
(dp271
g73
(dp272
g81
I3
ssg82
Nsg75
(lp273
g68
(g84
g70
NtRp274
(dp275
g73
(dp276
sg82
g270
sg75
(lp277
g68
(g89
g70
NtRp278
(dp279
g73
(dp280
g93
g94
ssg82
g274
sg75
(lp281
S'comment'
p282
asbag68
(g89
g70
NtRp283
(dp284
g73
(dp285
g100
g101
ssg82
g274
sg75
(lp286
S':'
asbag68
(g89
g70
NtRp287
(dp288
g73
(dp289
sg82
g274
sg75
(lp290
g68
(g69
g70
NtRp291
(dp292
g73
(dp293
g81
I3
ssg82
g287
sg75
(lp294
S''
asbasbasbag68
(g84
g70
NtRp295
(dp296
g73
(dp297
sg82
g270
sg75
(lp298
g68
(g89
g70
NtRp299
(dp300
g73
(dp301
g93
g94
ssg82
g295
sg75
(lp302
S'domain'
p303
asbag68
(g89
g70
NtRp304
(dp305
g73
(dp306
g100
g101
ssg82
g295
sg75
(lp307
S':'
asbag68
(g89
g70
NtRp308
(dp309
g73
(dp310
sg82
g295
sg75
(lp311
g68
(g69
g70
NtRp312
(dp313
g73
(dp314
g81
I3
ssg82
g308
sg75
(lp315
S''
asbasbasbag68
(g84
g70
NtRp316
(dp317
g73
(dp318
sg82
g270
sg75
(lp319
g68
(g89
g70
NtRp320
(dp321
g73
(dp322
g93
g94
ssg82
g316
sg75
(lp323
S'expires'
p324
asbag68
(g89
g70
NtRp325
(dp326
g73
(dp327
g100
g101
ssg82
g316
sg75
(lp328
S':'
asbag68
(g89
g70
NtRp329
(dp330
g73
(dp331
sg82
g316
sg75
(lp332
g68
(g69
g70
NtRp333
(dp334
g73
(dp335
g81
I3
ssg82
g329
sg75
(lp336
S''
asbasbasbag68
(g84
g70
NtRp337
(dp338
g73
(dp339
sg82
g270
sg75
(lp340
g68
(g89
g70
NtRp341
(dp342
g73
(dp343
g93
g94
ssg82
g337
sg75
(lp344
S'httponly'
p345
asbag68
(g89
g70
NtRp346
(dp347
g73
(dp348
g100
g101
ssg82
g337
sg75
(lp349
S':'
asbag68
(g89
g70
NtRp350
(dp351
g73
(dp352
sg82
g337
sg75
(lp353
g68
(g69
g70
NtRp354
(dp355
g73
(dp356
g81
I3
ssg82
g350
sg75
(lp357
S''
asbasbasbag68
(g84
g70
NtRp358
(dp359
g73
(dp360
sg82
g270
sg75
(lp361
g68
(g89
g70
NtRp362
(dp363
g73
(dp364
g93
g94
ssg82
g358
sg75
(lp365
S'max-age'
p366
asbag68
(g89
g70
NtRp367
(dp368
g73
(dp369
g100
g101
ssg82
g358
sg75
(lp370
S':'
asbag68
(g89
g70
NtRp371
(dp372
g73
(dp373
sg82
g358
sg75
(lp374
g68
(g69
g70
NtRp375
(dp376
g73
(dp377
g81
I3
ssg82
g371
sg75
(lp378
S''
asbasbasbag68
(g84
g70
NtRp379
(dp380
g73
(dp381
sg82
g270
sg75
(lp382
g68
(g89
g70
NtRp383
(dp384
g73
(dp385
g93
g94
ssg82
g379
sg75
(lp386
S'path'
p387
asbag68
(g89
g70
NtRp388
(dp389
g73
(dp390
g100
g101
ssg82
g379
sg75
(lp391
S':'
asbag68
(g89
g70
NtRp392
(dp393
g73
(dp394
sg82
g379
sg75
(lp395
g68
(g69
g70
NtRp396
(dp397
g73
(dp398
g81
I3
ssg82
g392
sg75
(lp399
S''
asbasbasbag68
(g84
g70
NtRp400
(dp401
g73
(dp402
sg82
g270
sg75
(lp403
g68
(g89
g70
NtRp404
(dp405
g73
(dp406
g93
g94
ssg82
g400
sg75
(lp407
S'secure'
p408
asbag68
(g89
g70
NtRp409
(dp410
g73
(dp411
g100
g101
ssg82
g400
sg75
(lp412
S':'
asbag68
(g89
g70
NtRp413
(dp414
g73
(dp415
sg82
g400
sg75
(lp416
g68
(g69
g70
NtRp417
(dp418
g73
(dp419
g81
I3
ssg82
g413
sg75
(lp420
S''
asbasbasbag68
(g84
g70
NtRp421
(dp422
g73
(dp423
sg82
g270
sg75
(lp424
g68
(g89
g70
NtRp425
(dp426
g73
(dp427
g93
g94
ssg82
g421
sg75
(lp428
S'version'
p429
asbag68
(g89
g70
NtRp430
(dp431
g73
(dp432
g100
g101
ssg82
g421
sg75
(lp433
S':'
asbag68
(g89
g70
NtRp434
(dp435
g73
(dp436
sg82
g421
sg75
(lp437
g68
(g69
g70
NtRp438
(dp439
g73
(dp440
g81
I3
ssg82
g434
sg75
(lp441
S''
asbasbasbasbasbasbasbag68
(g84
g70
NtRp442
(dp443
g73
(dp444
sg82
g245
sg75
(lp445
g68
(g89
g70
NtRp446
(dp447
g73
(dp448
g93
g94
ssg82
g442
sg75
(lp449
S'session_id_blogpost'
p450
asbag68
(g89
g70
NtRp451
(dp452
g73
(dp453
g100
g101
ssg82
g442
sg75
(lp454
S':'
asbag68
(g89
g70
NtRp455
(dp456
g73
(dp457
sg82
g442
sg75
(lp458
g68
(g69
g70
NtRp459
(dp460
g73
(dp461
g81
I4
ssg82
g455
sg75
(lp462
g68
(g77
g70
NtRp463
(dp464
g73
(dp465
g81
I3
ssg82
Nsg75
(lp466
g68
(g84
g70
NtRp467
(dp468
g73
(dp469
sg82
g463
sg75
(lp470
g68
(g89
g70
NtRp471
(dp472
g73
(dp473
g93
g94
ssg82
g467
sg75
(lp474
g282
asbag68
(g89
g70
NtRp475
(dp476
g73
(dp477
g100
g101
ssg82
g467
sg75
(lp478
S':'
asbag68
(g89
g70
NtRp479
(dp480
g73
(dp481
sg82
g467
sg75
(lp482
g68
(g69
g70
NtRp483
(dp484
g73
(dp485
g81
I3
ssg82
g479
sg75
(lp486
S''
asbasbasbag68
(g84
g70
NtRp487
(dp488
g73
(dp489
sg82
g463
sg75
(lp490
g68
(g89
g70
NtRp491
(dp492
g73
(dp493
g93
g94
ssg82
g487
sg75
(lp494
g303
asbag68
(g89
g70
NtRp495
(dp496
g73
(dp497
g100
g101
ssg82
g487
sg75
(lp498
S':'
asbag68
(g89
g70
NtRp499
(dp500
g73
(dp501
sg82
g487
sg75
(lp502
g68
(g69
g70
NtRp503
(dp504
g73
(dp505
g81
I3
ssg82
g499
sg75
(lp506
S''
asbasbasbag68
(g84
g70
NtRp507
(dp508
g73
(dp509
sg82
g463
sg75
(lp510
g68
(g89
g70
NtRp511
(dp512
g73
(dp513
g93
g94
ssg82
g507
sg75
(lp514
g324
asbag68
(g89
g70
NtRp515
(dp516
g73
(dp517
g100
g101
ssg82
g507
sg75
(lp518
S':'
asbag68
(g89
g70
NtRp519
(dp520
g73
(dp521
sg82
g507
sg75
(lp522
g68
(g69
g70
NtRp523
(dp524
g73
(dp525
g81
I3
ssg82
g519
sg75
(lp526
S''
asbasbasbag68
(g84
g70
NtRp527
(dp528
g73
(dp529
sg82
g463
sg75
(lp530
g68
(g89
g70
NtRp531
(dp532
g73
(dp533
g93
g94
ssg82
g527
sg75
(lp534
g345
asbag68
(g89
g70
NtRp535
(dp536
g73
(dp537
g100
g101
ssg82
g527
sg75
(lp538
S':'
asbag68
(g89
g70
NtRp539
(dp540
g73
(dp541
sg82
g527
sg75
(lp542
g68
(g69
g70
NtRp543
(dp544
g73
(dp545
g81
I3
ssg82
g539
sg75
(lp546
S''
asbasbasbag68
(g84
g70
NtRp547
(dp548
g73
(dp549
sg82
g463
sg75
(lp550
g68
(g89
g70
NtRp551
(dp552
g73
(dp553
g93
g94
ssg82
g547
sg75
(lp554
g366
asbag68
(g89
g70
NtRp555
(dp556
g73
(dp557
g100
g101
ssg82
g547
sg75
(lp558
S':'
asbag68
(g89
g70
NtRp559
(dp560
g73
(dp561
sg82
g547
sg75
(lp562
g68
(g69
g70
NtRp563
(dp564
g73
(dp565
g81
I3
ssg82
g559
sg75
(lp566
S''
asbasbasbag68
(g84
g70
NtRp567
(dp568
g73
(dp569
sg82
g463
sg75
(lp570
g68
(g89
g70
NtRp571
(dp572
g73
(dp573
g93
g94
ssg82
g567
sg75
(lp574
g387
asbag68
(g89
g70
NtRp575
(dp576
g73
(dp577
g100
g101
ssg82
g567
sg75
(lp578
S':'
asbag68
(g89
g70
NtRp579
(dp580
g73
(dp581
sg82
g567
sg75
(lp582
g68
(g69
g70
NtRp583
(dp584
g73
(dp585
g81
I3
ssg82
g579
sg75
(lp586
S''
asbasbasbag68
(g84
g70
NtRp587
(dp588
g73
(dp589
sg82
g463
sg75
(lp590
g68
(g89
g70
NtRp591
(dp592
g73
(dp593
g93
g94
ssg82
g587
sg75
(lp594
g408
asbag68
(g89
g70
NtRp595
(dp596
g73
(dp597
g100
g101
ssg82
g587
sg75
(lp598
S':'
asbag68
(g89
g70
NtRp599
(dp600
g73
(dp601
sg82
g587
sg75
(lp602
g68
(g69
g70
NtRp603
(dp604
g73
(dp605
g81
I3
ssg82
g599
sg75
(lp606
S''
asbasbasbag68
(g84
g70
NtRp607
(dp608
g73
(dp609
sg82
g463
sg75
(lp610
g68
(g89
g70
NtRp611
(dp612
g73
(dp613
g93
g94
ssg82
g607
sg75
(lp614
g429
asbag68
(g89
g70
NtRp615
(dp616
g73
(dp617
g100
g101
ssg82
g607
sg75
(lp618
S':'
asbag68
(g89
g70
NtRp619
(dp620
g73
(dp621
sg82
g607
sg75
(lp622
g68
(g69
g70
NtRp623
(dp624
g73
(dp625
g81
I3
ssg82
g619
sg75
(lp626
S''
asbasbasbasbasbasbasbag68
(g84
g70
NtRp627
(dp628
g73
(dp629
sg82
g245
sg75
(lp630
g68
(g89
g70
NtRp631
(dp632
g73
(dp633
g93
g94
ssg82
g627
sg75
(lp634
S'session_id_go_to_app'
p635
asbag68
(g89
g70
NtRp636
(dp637
g73
(dp638
g100
g101
ssg82
g627
sg75
(lp639
S':'
asbag68
(g89
g70
NtRp640
(dp641
g73
(dp642
sg82
g627
sg75
(lp643
g68
(g69
g70
NtRp644
(dp645
g73
(dp646
g81
I4
ssg82
g640
sg75
(lp647
g68
(g77
g70
NtRp648
(dp649
g73
(dp650
g81
I3
ssg82
Nsg75
(lp651
g68
(g84
g70
NtRp652
(dp653
g73
(dp654
sg82
g648
sg75
(lp655
g68
(g89
g70
NtRp656
(dp657
g73
(dp658
g93
g94
ssg82
g652
sg75
(lp659
g282
asbag68
(g89
g70
NtRp660
(dp661
g73
(dp662
g100
g101
ssg82
g652
sg75
(lp663
S':'
asbag68
(g89
g70
NtRp664
(dp665
g73
(dp666
sg82
g652
sg75
(lp667
g68
(g69
g70
NtRp668
(dp669
g73
(dp670
g81
I3
ssg82
g664
sg75
(lp671
S''
asbasbasbag68
(g84
g70
NtRp672
(dp673
g73
(dp674
sg82
g648
sg75
(lp675
g68
(g89
g70
NtRp676
(dp677
g73
(dp678
g93
g94
ssg82
g672
sg75
(lp679
g303
asbag68
(g89
g70
NtRp680
(dp681
g73
(dp682
g100
g101
ssg82
g672
sg75
(lp683
S':'
asbag68
(g89
g70
NtRp684
(dp685
g73
(dp686
sg82
g672
sg75
(lp687
g68
(g69
g70
NtRp688
(dp689
g73
(dp690
g81
I3
ssg82
g684
sg75
(lp691
S''
asbasbasbag68
(g84
g70
NtRp692
(dp693
g73
(dp694
sg82
g648
sg75
(lp695
g68
(g89
g70
NtRp696
(dp697
g73
(dp698
g93
g94
ssg82
g692
sg75
(lp699
g324
asbag68
(g89
g70
NtRp700
(dp701
g73
(dp702
g100
g101
ssg82
g692
sg75
(lp703
S':'
asbag68
(g89
g70
NtRp704
(dp705
g73
(dp706
sg82
g692
sg75
(lp707
g68
(g69
g70
NtRp708
(dp709
g73
(dp710
g81
I3
ssg82
g704
sg75
(lp711
S''
asbasbasbag68
(g84
g70
NtRp712
(dp713
g73
(dp714
sg82
g648
sg75
(lp715
g68
(g89
g70
NtRp716
(dp717
g73
(dp718
g93
g94
ssg82
g712
sg75
(lp719
g345
asbag68
(g89
g70
NtRp720
(dp721
g73
(dp722
g100
g101
ssg82
g712
sg75
(lp723
S':'
asbag68
(g89
g70
NtRp724
(dp725
g73
(dp726
sg82
g712
sg75
(lp727
g68
(g69
g70
NtRp728
(dp729
g73
(dp730
g81
I3
ssg82
g724
sg75
(lp731
S''
asbasbasbag68
(g84
g70
NtRp732
(dp733
g73
(dp734
sg82
g648
sg75
(lp735
g68
(g89
g70
NtRp736
(dp737
g73
(dp738
g93
g94
ssg82
g732
sg75
(lp739
g366
asbag68
(g89
g70
NtRp740
(dp741
g73
(dp742
g100
g101
ssg82
g732
sg75
(lp743
S':'
asbag68
(g89
g70
NtRp744
(dp745
g73
(dp746
sg82
g732
sg75
(lp747
g68
(g69
g70
NtRp748
(dp749
g73
(dp750
g81
I3
ssg82
g744
sg75
(lp751
S''
asbasbasbag68
(g84
g70
NtRp752
(dp753
g73
(dp754
sg82
g648
sg75
(lp755
g68
(g89
g70
NtRp756
(dp757
g73
(dp758
g93
g94
ssg82
g752
sg75
(lp759
g387
asbag68
(g89
g70
NtRp760
(dp761
g73
(dp762
g100
g101
ssg82
g752
sg75
(lp763
S':'
asbag68
(g89
g70
NtRp764
(dp765
g73
(dp766
sg82
g752
sg75
(lp767
g68
(g69
g70
NtRp768
(dp769
g73
(dp770
g81
I3
ssg82
g764
sg75
(lp771
S''
asbasbasbag68
(g84
g70
NtRp772
(dp773
g73
(dp774
sg82
g648
sg75
(lp775
g68
(g89
g70
NtRp776
(dp777
g73
(dp778
g93
g94
ssg82
g772
sg75
(lp779
g408
asbag68
(g89
g70
NtRp780
(dp781
g73
(dp782
g100
g101
ssg82
g772
sg75
(lp783
S':'
asbag68
(g89
g70
NtRp784
(dp785
g73
(dp786
sg82
g772
sg75
(lp787
g68
(g69
g70
NtRp788
(dp789
g73
(dp790
g81
I3
ssg82
g784
sg75
(lp791
S''
asbasbasbag68
(g84
g70
NtRp792
(dp793
g73
(dp794
sg82
g648
sg75
(lp795
g68
(g89
g70
NtRp796
(dp797
g73
(dp798
g93
g94
ssg82
g792
sg75
(lp799
g429
asbag68
(g89
g70
NtRp800
(dp801
g73
(dp802
g100
g101
ssg82
g792
sg75
(lp803
S':'
asbag68
(g89
g70
NtRp804
(dp805
g73
(dp806
sg82
g792
sg75
(lp807
g68
(g69
g70
NtRp808
(dp809
g73
(dp810
g81
I3
ssg82
g804
sg75
(lp811
S''
asbasbasbasbasbasbasbag68
(g84
g70
NtRp812
(dp813
g73
(dp814
sg82
g245
sg75
(lp815
g68
(g89
g70
NtRp816
(dp817
g73
(dp818
g93
g94
ssg82
g812
sg75
(lp819
S'session_id_mukul'
p820
asbag68
(g89
g70
NtRp821
(dp822
g73
(dp823
g100
g101
ssg82
g812
sg75
(lp824
S':'
asbag68
(g89
g70
NtRp825
(dp826
g73
(dp827
sg82
g812
sg75
(lp828
g68
(g69
g70
NtRp829
(dp830
g73
(dp831
g81
I4
ssg82
g825
sg75
(lp832
g68
(g77
g70
NtRp833
(dp834
g73
(dp835
g81
I3
ssg82
Nsg75
(lp836
g68
(g84
g70
NtRp837
(dp838
g73
(dp839
sg82
g833
sg75
(lp840
g68
(g89
g70
NtRp841
(dp842
g73
(dp843
g93
g94
ssg82
g837
sg75
(lp844
g282
asbag68
(g89
g70
NtRp845
(dp846
g73
(dp847
g100
g101
ssg82
g837
sg75
(lp848
S':'
asbag68
(g89
g70
NtRp849
(dp850
g73
(dp851
sg82
g837
sg75
(lp852
g68
(g69
g70
NtRp853
(dp854
g73
(dp855
g81
I3
ssg82
g849
sg75
(lp856
S''
asbasbasbag68
(g84
g70
NtRp857
(dp858
g73
(dp859
sg82
g833
sg75
(lp860
g68
(g89
g70
NtRp861
(dp862
g73
(dp863
g93
g94
ssg82
g857
sg75
(lp864
g303
asbag68
(g89
g70
NtRp865
(dp866
g73
(dp867
g100
g101
ssg82
g857
sg75
(lp868
S':'
asbag68
(g89
g70
NtRp869
(dp870
g73
(dp871
sg82
g857
sg75
(lp872
g68
(g69
g70
NtRp873
(dp874
g73
(dp875
g81
I3
ssg82
g869
sg75
(lp876
S''
asbasbasbag68
(g84
g70
NtRp877
(dp878
g73
(dp879
sg82
g833
sg75
(lp880
g68
(g89
g70
NtRp881
(dp882
g73
(dp883
g93
g94
ssg82
g877
sg75
(lp884
g324
asbag68
(g89
g70
NtRp885
(dp886
g73
(dp887
g100
g101
ssg82
g877
sg75
(lp888
S':'
asbag68
(g89
g70
NtRp889
(dp890
g73
(dp891
sg82
g877
sg75
(lp892
g68
(g69
g70
NtRp893
(dp894
g73
(dp895
g81
I3
ssg82
g889
sg75
(lp896
S''
asbasbasbag68
(g84
g70
NtRp897
(dp898
g73
(dp899
sg82
g833
sg75
(lp900
g68
(g89
g70
NtRp901
(dp902
g73
(dp903
g93
g94
ssg82
g897
sg75
(lp904
g345
asbag68
(g89
g70
NtRp905
(dp906
g73
(dp907
g100
g101
ssg82
g897
sg75
(lp908
S':'
asbag68
(g89
g70
NtRp909
(dp910
g73
(dp911
sg82
g897
sg75
(lp912
g68
(g69
g70
NtRp913
(dp914
g73
(dp915
g81
I3
ssg82
g909
sg75
(lp916
S''
asbasbasbag68
(g84
g70
NtRp917
(dp918
g73
(dp919
sg82
g833
sg75
(lp920
g68
(g89
g70
NtRp921
(dp922
g73
(dp923
g93
g94
ssg82
g917
sg75
(lp924
g366
asbag68
(g89
g70
NtRp925
(dp926
g73
(dp927
g100
g101
ssg82
g917
sg75
(lp928
S':'
asbag68
(g89
g70
NtRp929
(dp930
g73
(dp931
sg82
g917
sg75
(lp932
g68
(g69
g70
NtRp933
(dp934
g73
(dp935
g81
I3
ssg82
g929
sg75
(lp936
S''
asbasbasbag68
(g84
g70
NtRp937
(dp938
g73
(dp939
sg82
g833
sg75
(lp940
g68
(g89
g70
NtRp941
(dp942
g73
(dp943
g93
g94
ssg82
g937
sg75
(lp944
g387
asbag68
(g89
g70
NtRp945
(dp946
g73
(dp947
g100
g101
ssg82
g937
sg75
(lp948
S':'
asbag68
(g89
g70
NtRp949
(dp950
g73
(dp951
sg82
g937
sg75
(lp952
g68
(g69
g70
NtRp953
(dp954
g73
(dp955
g81
I3
ssg82
g949
sg75
(lp956
S''
asbasbasbag68
(g84
g70
NtRp957
(dp958
g73
(dp959
sg82
g833
sg75
(lp960
g68
(g89
g70
NtRp961
(dp962
g73
(dp963
g93
g94
ssg82
g957
sg75
(lp964
g408
asbag68
(g89
g70
NtRp965
(dp966
g73
(dp967
g100
g101
ssg82
g957
sg75
(lp968
S':'
asbag68
(g89
g70
NtRp969
(dp970
g73
(dp971
sg82
g957
sg75
(lp972
g68
(g69
g70
NtRp973
(dp974
g73
(dp975
g81
I3
ssg82
g969
sg75
(lp976
S''
asbasbasbag68
(g84
g70
NtRp977
(dp978
g73
(dp979
sg82
g833
sg75
(lp980
g68
(g89
g70
NtRp981
(dp982
g73
(dp983
g93
g94
ssg82
g977
sg75
(lp984
g429
asbag68
(g89
g70
NtRp985
(dp986
g73
(dp987
g100
g101
ssg82
g977
sg75
(lp988
S':'
asbag68
(g89
g70
NtRp989
(dp990
g73
(dp991
sg82
g977
sg75
(lp992
g68
(g69
g70
NtRp993
(dp994
g73
(dp995
g81
I3
ssg82
g989
sg75
(lp996
S''
asbasbasbasbasbasbasbag68
(g84
g70
NtRp997
(dp998
g73
(dp999
sg82
g245
sg75
(lp1000
g68
(g89
g70
NtRp1001
(dp1002
g73
(dp1003
g93
g94
ssg82
g997
sg75
(lp1004
S'session_id_welcome'
p1005
asbag68
(g89
g70
NtRp1006
(dp1007
g73
(dp1008
g100
g101
ssg82
g997
sg75
(lp1009
S':'
asbag68
(g89
g70
NtRp1010
(dp1011
g73
(dp1012
sg82
g997
sg75
(lp1013
g68
(g69
g70
NtRp1014
(dp1015
g73
(dp1016
g81
I4
ssg82
g1010
sg75
(lp1017
g68
(g77
g70
NtRp1018
(dp1019
g73
(dp1020
g81
I3
ssg82
Nsg75
(lp1021
g68
(g84
g70
NtRp1022
(dp1023
g73
(dp1024
sg82
g1018
sg75
(lp1025
g68
(g89
g70
NtRp1026
(dp1027
g73
(dp1028
g93
g94
ssg82
g1022
sg75
(lp1029
g282
asbag68
(g89
g70
NtRp1030
(dp1031
g73
(dp1032
g100
g101
ssg82
g1022
sg75
(lp1033
S':'
asbag68
(g89
g70
NtRp1034
(dp1035
g73
(dp1036
sg82
g1022
sg75
(lp1037
g68
(g69
g70
NtRp1038
(dp1039
g73
(dp1040
g81
I3
ssg82
g1034
sg75
(lp1041
S''
asbasbasbag68
(g84
g70
NtRp1042
(dp1043
g73
(dp1044
sg82
g1018
sg75
(lp1045
g68
(g89
g70
NtRp1046
(dp1047
g73
(dp1048
g93
g94
ssg82
g1042
sg75
(lp1049
g303
asbag68
(g89
g70
NtRp1050
(dp1051
g73
(dp1052
g100
g101
ssg82
g1042
sg75
(lp1053
S':'
asbag68
(g89
g70
NtRp1054
(dp1055
g73
(dp1056
sg82
g1042
sg75
(lp1057
g68
(g69
g70
NtRp1058
(dp1059
g73
(dp1060
g81
I3
ssg82
g1054
sg75
(lp1061
S''
asbasbasbag68
(g84
g70
NtRp1062
(dp1063
g73
(dp1064
sg82
g1018
sg75
(lp1065
g68
(g89
g70
NtRp1066
(dp1067
g73
(dp1068
g93
g94
ssg82
g1062
sg75
(lp1069
g324
asbag68
(g89
g70
NtRp1070
(dp1071
g73
(dp1072
g100
g101
ssg82
g1062
sg75
(lp1073
S':'
asbag68
(g89
g70
NtRp1074
(dp1075
g73
(dp1076
sg82
g1062
sg75
(lp1077
g68
(g69
g70
NtRp1078
(dp1079
g73
(dp1080
g81
I3
ssg82
g1074
sg75
(lp1081
S''
asbasbasbag68
(g84
g70
NtRp1082
(dp1083
g73
(dp1084
sg82
g1018
sg75
(lp1085
g68
(g89
g70
NtRp1086
(dp1087
g73
(dp1088
g93
g94
ssg82
g1082
sg75
(lp1089
g345
asbag68
(g89
g70
NtRp1090
(dp1091
g73
(dp1092
g100
g101
ssg82
g1082
sg75
(lp1093
S':'
asbag68
(g89
g70
NtRp1094
(dp1095
g73
(dp1096
sg82
g1082
sg75
(lp1097
g68
(g69
g70
NtRp1098
(dp1099
g73
(dp1100
g81
I3
ssg82
g1094
sg75
(lp1101
S''
asbasbasbag68
(g84
g70
NtRp1102
(dp1103
g73
(dp1104
sg82
g1018
sg75
(lp1105
g68
(g89
g70
NtRp1106
(dp1107
g73
(dp1108
g93
g94
ssg82
g1102
sg75
(lp1109
g366
asbag68
(g89
g70
NtRp1110
(dp1111
g73
(dp1112
g100
g101
ssg82
g1102
sg75
(lp1113
S':'
asbag68
(g89
g70
NtRp1114
(dp1115
g73
(dp1116
sg82
g1102
sg75
(lp1117
g68
(g69
g70
NtRp1118
(dp1119
g73
(dp1120
g81
I3
ssg82
g1114
sg75
(lp1121
S''
asbasbasbag68
(g84
g70
NtRp1122
(dp1123
g73
(dp1124
sg82
g1018
sg75
(lp1125
g68
(g89
g70
NtRp1126
(dp1127
g73
(dp1128
g93
g94
ssg82
g1122
sg75
(lp1129
g387
asbag68
(g89
g70
NtRp1130
(dp1131
g73
(dp1132
g100
g101
ssg82
g1122
sg75
(lp1133
S':'
asbag68
(g89
g70
NtRp1134
(dp1135
g73
(dp1136
sg82
g1122
sg75
(lp1137
g68
(g69
g70
NtRp1138
(dp1139
g73
(dp1140
g81
I3
ssg82
g1134
sg75
(lp1141
S''
asbasbasbag68
(g84
g70
NtRp1142
(dp1143
g73
(dp1144
sg82
g1018
sg75
(lp1145
g68
(g89
g70
NtRp1146
(dp1147
g73
(dp1148
g93
g94
ssg82
g1142
sg75
(lp1149
g408
asbag68
(g89
g70
NtRp1150
(dp1151
g73
(dp1152
g100
g101
ssg82
g1142
sg75
(lp1153
S':'
asbag68
(g89
g70
NtRp1154
(dp1155
g73
(dp1156
sg82
g1142
sg75
(lp1157
g68
(g69
g70
NtRp1158
(dp1159
g73
(dp1160
g81
I3
ssg82
g1154
sg75
(lp1161
S''
asbasbasbag68
(g84
g70
NtRp1162
(dp1163
g73
(dp1164
sg82
g1018
sg75
(lp1165
g68
(g89
g70
NtRp1166
(dp1167
g73
(dp1168
g93
g94
ssg82
g1162
sg75
(lp1169
g429
asbag68
(g89
g70
NtRp1170
(dp1171
g73
(dp1172
g100
g101
ssg82
g1162
sg75
(lp1173
S':'
asbag68
(g89
g70
NtRp1174
(dp1175
g73
(dp1176
sg82
g1162
sg75
(lp1177
g68
(g69
g70
NtRp1178
(dp1179
g73
(dp1180
g81
I3
ssg82
g1174
sg75
(lp1181
S''
asbasbasbasbasbasbasbasbasbasbasbag68
(g84
g70
NtRp1182
(dp1183
g73
(dp1184
sg82
g78
sg75
(lp1185
g68
(g89
g70
NtRp1186
(dp1187
g73
(dp1188
g93
g94
ssg82
g1182
sg75
(lp1189
S'env'
p1190
asbag68
(g89
g70
NtRp1191
(dp1192
g73
(dp1193
g100
g101
ssg82
g1182
sg75
(lp1194
S':'
asbag68
(g89
g70
NtRp1195
(dp1196
g73
(dp1197
sg82
g1182
sg75
(lp1198
g68
(g69
g70
NtRp1199
(dp1200
g73
(dp1201
g81
I5
ssg82
g1195
sg75
(lp1202
g68
(g77
g70
NtRp1203
(dp1204
g73
(dp1205
g81
I4
ssg82
Nsg75
(lp1206
g68
(g84
g70
NtRp1207
(dp1208
g73
(dp1209
sg82
g1203
sg75
(lp1210
g68
(g89
g70
NtRp1211
(dp1212
g73
(dp1213
g93
g94
ssg82
g1207
sg75
(lp1214
S'app_folders'
p1215
asbag68
(g89
g70
NtRp1216
(dp1217
g73
(dp1218
g100
g101
ssg82
g1207
sg75
(lp1219
S':'
asbag68
(g89
g70
NtRp1220
(dp1221
g73
(dp1222
sg82
g1207
sg75
(lp1223
g68
(g69
g70
NtRp1224
(dp1225
g73
(dp1226
g81
I4
ssg82
g1220
sg75
(lp1227
S"set(['/home/mukul/web2py/applications/admin/', '/home/mukul/web2py/applications/blogpost/', '/home/mukul/web2py/applications/go_to_app/', '/home/mukul/web2py/applications/welcome/', '/home/mukul/web2py/applications/mukul/', '/home/mukul/web2py/applications/examples/'])"
p1228
asbasbasbag68
(g84
g70
NtRp1229
(dp1230
g73
(dp1231
sg82
g1203
sg75
(lp1232
g68
(g89
g70
NtRp1233
(dp1234
g73
(dp1235
g93
g94
ssg82
g1229
sg75
(lp1236
S'applications_parent'
p1237
asbag68
(g89
g70
NtRp1238
(dp1239
g73
(dp1240
g100
g101
ssg82
g1229
sg75
(lp1241
S':'
asbag68
(g89
g70
NtRp1242
(dp1243
g73
(dp1244
sg82
g1229
sg75
(lp1245
g68
(g69
g70
NtRp1246
(dp1247
g73
(dp1248
g81
I4
ssg82
g1242
sg75
(lp1249
S'/home/mukul/web2py'
p1250
asbasbasbag68
(g84
g70
NtRp1251
(dp1252
g73
(dp1253
sg82
g1203
sg75
(lp1254
g68
(g89
g70
NtRp1255
(dp1256
g73
(dp1257
g93
g94
ssg82
g1251
sg75
(lp1258
S'cmd_args'
p1259
asbag68
(g89
g70
NtRp1260
(dp1261
g73
(dp1262
g100
g101
ssg82
g1251
sg75
(lp1263
S':'
asbag68
(g89
g70
NtRp1264
(dp1265
g73
(dp1266
sg82
g1251
sg75
(lp1267
g68
(g69
g70
NtRp1268
(dp1269
g73
(dp1270
g81
I4
ssg82
g1264
sg75
(lp1271
g68
(g77
g70
NtRp1272
(dp1273
g73
(dp1274
g81
I3
ssg82
Nsg75
(lp1275
sbasbasbasbag68
(g84
g70
NtRp1276
(dp1277
g73
(dp1278
sg82
g1203
sg75
(lp1279
g68
(g89
g70
NtRp1280
(dp1281
g73
(dp1282
g93
g94
ssg82
g1276
sg75
(lp1283
S'cmd_options'
p1284
asbag68
(g89
g70
NtRp1285
(dp1286
g73
(dp1287
g100
g101
ssg82
g1276
sg75
(lp1288
S':'
asbag68
(g89
g70
NtRp1289
(dp1290
g73
(dp1291
sg82
g1276
sg75
(lp1292
g68
(g69
g70
NtRp1293
(dp1294
g73
(dp1295
g81
I4
ssg82
g1289
sg75
(lp1296
S"<Values at 0x931178c: {'verbose': False, 'ip': '127.0.0.1', 'shutdown_timeout': 5, 'taskbar': False, 'port': 8000, 'maxthreads': None, 'softcron': False, 'server_name': 'mukul-INVALID', 'bpython': False, 'nogui': False, 'nocron': False, 'extcron': False, 'debuglevel': 30, 'test': None, 'folder': '/home/mukul/web2py', 'config': '', 'import_models': False, 'winservice': '', 'shell': None, 'run': '', 'log_filename': 'httpserver.log', 'args': [''], 'socket_timeout': 1, 'profiler_filename': None, 'ssl_private_key': '', 'password': '<ask>', 'request_queue_size': 5, 'ssl_certificate': '', 'cronjob': False, 'plain': False, 'quiet': False, 'interfaces': None, 'minthreads': None, 'timeout': 10, 'numthreads': None, 'nobanner': False, 'pid_filename': 'httpserver.pid'}>"
p1297
asbasbasbag68
(g84
g70
NtRp1298
(dp1299
g73
(dp1300
sg82
g1203
sg75
(lp1301
g68
(g89
g70
NtRp1302
(dp1303
g73
(dp1304
g93
g94
ssg82
g1298
sg75
(lp1305
S'db_sessions'
p1306
asbag68
(g89
g70
NtRp1307
(dp1308
g73
(dp1309
g100
g101
ssg82
g1298
sg75
(lp1310
S':'
asbag68
(g89
g70
NtRp1311
(dp1312
g73
(dp1313
sg82
g1298
sg75
(lp1314
g68
(g69
g70
NtRp1315
(dp1316
g73
(dp1317
g81
I4
ssg82
g1311
sg75
(lp1318
S'set([])'
p1319
asbasbasbag68
(g84
g70
NtRp1320
(dp1321
g73
(dp1322
sg82
g1203
sg75
(lp1323
g68
(g89
g70
NtRp1324
(dp1325
g73
(dp1326
g93
g94
ssg82
g1320
sg75
(lp1327
S'debugging'
p1328
asbag68
(g89
g70
NtRp1329
(dp1330
g73
(dp1331
g100
g101
ssg82
g1320
sg75
(lp1332
S':'
asbag68
(g89
g70
NtRp1333
(dp1334
g73
(dp1335
sg82
g1320
sg75
(lp1336
g68
(g69
g70
NtRp1337
(dp1338
g73
(dp1339
g81
I4
ssg82
g1333
sg75
(lp1340
g111
asbasbasbag68
(g84
g70
NtRp1341
(dp1342
g73
(dp1343
sg82
g1203
sg75
(lp1344
g68
(g89
g70
NtRp1345
(dp1346
g73
(dp1347
g93
g94
ssg82
g1341
sg75
(lp1348
S'gluon_parent'
p1349
asbag68
(g89
g70
NtRp1350
(dp1351
g73
(dp1352
g100
g101
ssg82
g1341
sg75
(lp1353
S':'
asbag68
(g89
g70
NtRp1354
(dp1355
g73
(dp1356
sg82
g1341
sg75
(lp1357
g68
(g69
g70
NtRp1358
(dp1359
g73
(dp1360
g81
I4
ssg82
g1354
sg75
(lp1361
S'/usr/share/web2py'
p1362
asbasbasbag68
(g84
g70
NtRp1363
(dp1364
g73
(dp1365
sg82
g1203
sg75
(lp1366
g68
(g89
g70
NtRp1367
(dp1368
g73
(dp1369
g93
g94
ssg82
g1363
sg75
(lp1370
S'http_accept'
p1371
asbag68
(g89
g70
NtRp1372
(dp1373
g73
(dp1374
g100
g101
ssg82
g1363
sg75
(lp1375
S':'
asbag68
(g89
g70
NtRp1376
(dp1377
g73
(dp1378
sg82
g1363
sg75
(lp1379
g68
(g69
g70
NtRp1380
(dp1381
g73
(dp1382
g81
I4
ssg82
g1376
sg75
(lp1383
S'text/html,application/xhtml+xml,application/xml;q=0.9,image/webp,*/*;q=0.8'
p1384
asbasbasbag68
(g84
g70
NtRp1385
(dp1386
g73
(dp1387
sg82
g1203
sg75
(lp1388
g68
(g89
g70
NtRp1389
(dp1390
g73
(dp1391
g93
g94
ssg82
g1385
sg75
(lp1392
S'http_accept_encoding'
p1393
asbag68
(g89
g70
NtRp1394
(dp1395
g73
(dp1396
g100
g101
ssg82
g1385
sg75
(lp1397
S':'
asbag68
(g89
g70
NtRp1398
(dp1399
g73
(dp1400
sg82
g1385
sg75
(lp1401
g68
(g69
g70
NtRp1402
(dp1403
g73
(dp1404
g81
I4
ssg82
g1398
sg75
(lp1405
S'gzip, deflate, sdch'
p1406
asbasbasbag68
(g84
g70
NtRp1407
(dp1408
g73
(dp1409
sg82
g1203
sg75
(lp1410
g68
(g89
g70
NtRp1411
(dp1412
g73
(dp1413
g93
g94
ssg82
g1407
sg75
(lp1414
S'http_accept_language'
p1415
asbag68
(g89
g70
NtRp1416
(dp1417
g73
(dp1418
g100
g101
ssg82
g1407
sg75
(lp1419
S':'
asbag68
(g89
g70
NtRp1420
(dp1421
g73
(dp1422
sg82
g1407
sg75
(lp1423
g68
(g69
g70
NtRp1424
(dp1425
g73
(dp1426
g81
I4
ssg82
g1420
sg75
(lp1427
S'en-US,en;q=0.8'
p1428
asbasbasbag68
(g84
g70
NtRp1429
(dp1430
g73
(dp1431
sg82
g1203
sg75
(lp1432
g68
(g89
g70
NtRp1433
(dp1434
g73
(dp1435
g93
g94
ssg82
g1429
sg75
(lp1436
S'http_connection'
p1437
asbag68
(g89
g70
NtRp1438
(dp1439
g73
(dp1440
g100
g101
ssg82
g1429
sg75
(lp1441
S':'
asbag68
(g89
g70
NtRp1442
(dp1443
g73
(dp1444
sg82
g1429
sg75
(lp1445
g68
(g69
g70
NtRp1446
(dp1447
g73
(dp1448
g81
I4
ssg82
g1442
sg75
(lp1449
S'keep-alive'
p1450
asbasbasbag68
(g84
g70
NtRp1451
(dp1452
g73
(dp1453
sg82
g1203
sg75
(lp1454
g68
(g89
g70
NtRp1455
(dp1456
g73
(dp1457
g93
g94
ssg82
g1451
sg75
(lp1458
S'http_cookie'
p1459
asbag68
(g89
g70
NtRp1460
(dp1461
g73
(dp1462
g100
g101
ssg82
g1451
sg75
(lp1463
S':'
asbag68
(g89
g70
NtRp1464
(dp1465
g73
(dp1466
sg82
g1451
sg75
(lp1467
g68
(g69
g70
NtRp1468
(dp1469
g73
(dp1470
g81
I4
ssg82
g1464
sg75
(lp1471
S'_ga=GA1.1.1697046843.1457627657; session_id_welcome=127.0.0.1-0dc82c54-7998-46df-bc7a-ae551514715c; session_id_mukul=127.0.0.1-b7b05dec-9203-49b5-9563-65a37d4a5ab0; session_id_go_to_app=127.0.0.1-6a3d5a50-4cd5-43ec-b744-e6f1eb524265; session_id_admin=127.0.0.1-1ea48cdc-d855-42f3-8aa9-45e4bcc89244; session_id_blogpost=127.0.0.1-db0d4806-b3c3-4347-967a-d3847597ee73'
p1472
asbasbasbag68
(g84
g70
NtRp1473
(dp1474
g73
(dp1475
sg82
g1203
sg75
(lp1476
g68
(g89
g70
NtRp1477
(dp1478
g73
(dp1479
g93
g94
ssg82
g1473
sg75
(lp1480
S'http_host'
p1481
asbag68
(g89
g70
NtRp1482
(dp1483
g73
(dp1484
g100
g101
ssg82
g1473
sg75
(lp1485
S':'
asbag68
(g89
g70
NtRp1486
(dp1487
g73
(dp1488
sg82
g1473
sg75
(lp1489
g68
(g69
g70
NtRp1490
(dp1491
g73
(dp1492
g81
I4
ssg82
g1486
sg75
(lp1493
S'127.0.0.1:8000'
p1494
asbasbasbag68
(g84
g70
NtRp1495
(dp1496
g73
(dp1497
sg82
g1203
sg75
(lp1498
g68
(g89
g70
NtRp1499
(dp1500
g73
(dp1501
g93
g94
ssg82
g1495
sg75
(lp1502
S'http_upgrade_insecure_requests'
p1503
asbag68
(g89
g70
NtRp1504
(dp1505
g73
(dp1506
g100
g101
ssg82
g1495
sg75
(lp1507
S':'
asbag68
(g89
g70
NtRp1508
(dp1509
g73
(dp1510
sg82
g1495
sg75
(lp1511
g68
(g69
g70
NtRp1512
(dp1513
g73
(dp1514
g81
I4
ssg82
g1508
sg75
(lp1515
S'1'
asbasbasbag68
(g84
g70
NtRp1516
(dp1517
g73
(dp1518
sg82
g1203
sg75
(lp1519
g68
(g89
g70
NtRp1520
(dp1521
g73
(dp1522
g93
g94
ssg82
g1516
sg75
(lp1523
S'http_user_agent'
p1524
asbag68
(g89
g70
NtRp1525
(dp1526
g73
(dp1527
g100
g101
ssg82
g1516
sg75
(lp1528
S':'
asbag68
(g89
g70
NtRp1529
(dp1530
g73
(dp1531
sg82
g1516
sg75
(lp1532
g68
(g69
g70
NtRp1533
(dp1534
g73
(dp1535
g81
I4
ssg82
g1529
sg75
(lp1536
S'Mozilla/5.0 (X11; Linux i686) AppleWebKit/537.36 (KHTML, like Gecko) Chrome/48.0.2564.116 Safari/537.36'
p1537
asbasbasbag68
(g84
g70
NtRp1538
(dp1539
g73
(dp1540
sg82
g1203
sg75
(lp1541
g68
(g89
g70
NtRp1542
(dp1543
g73
(dp1544
g93
g94
ssg82
g1538
sg75
(lp1545
S'is_jython'
p1546
asbag68
(g89
g70
NtRp1547
(dp1548
g73
(dp1549
g100
g101
ssg82
g1538
sg75
(lp1550
S':'
asbag68
(g89
g70
NtRp1551
(dp1552
g73
(dp1553
sg82
g1538
sg75
(lp1554
g68
(g69
g70
NtRp1555
(dp1556
g73
(dp1557
g81
I4
ssg82
g1551
sg75
(lp1558
g111
asbasbasbag68
(g84
g70
NtRp1559
(dp1560
g73
(dp1561
sg82
g1203
sg75
(lp1562
g68
(g89
g70
NtRp1563
(dp1564
g73
(dp1565
g93
g94
ssg82
g1559
sg75
(lp1566
S'is_pypy'
p1567
asbag68
(g89
g70
NtRp1568
(dp1569
g73
(dp1570
g100
g101
ssg82
g1559
sg75
(lp1571
S':'
asbag68
(g89
g70
NtRp1572
(dp1573
g73
(dp1574
sg82
g1559
sg75
(lp1575
g68
(g69
g70
NtRp1576
(dp1577
g73
(dp1578
g81
I4
ssg82
g1572
sg75
(lp1579
g111
asbasbasbag68
(g84
g70
NtRp1580
(dp1581
g73
(dp1582
sg82
g1203
sg75
(lp1583
g68
(g89
g70
NtRp1584
(dp1585
g73
(dp1586
g93
g94
ssg82
g1580
sg75
(lp1587
S'path_info'
p1588
asbag68
(g89
g70
NtRp1589
(dp1590
g73
(dp1591
g100
g101
ssg82
g1580
sg75
(lp1592
S':'
asbag68
(g89
g70
NtRp1593
(dp1594
g73
(dp1595
sg82
g1580
sg75
(lp1596
g68
(g69
g70
NtRp1597
(dp1598
g73
(dp1599
g81
I4
ssg82
g1593
sg75
(lp1600
S'/blogpost/default/add_blog_post'
p1601
asbasbasbag68
(g84
g70
NtRp1602
(dp1603
g73
(dp1604
sg82
g1203
sg75
(lp1605
g68
(g89
g70
NtRp1606
(dp1607
g73
(dp1608
g93
g94
ssg82
g1602
sg75
(lp1609
S'query_string'
p1610
asbag68
(g89
g70
NtRp1611
(dp1612
g73
(dp1613
g100
g101
ssg82
g1602
sg75
(lp1614
S':'
asbag68
(g89
g70
NtRp1615
(dp1616
g73
(dp1617
sg82
g1602
sg75
(lp1618
g68
(g69
g70
NtRp1619
(dp1620
g73
(dp1621
g81
I4
ssg82
g1615
sg75
(lp1622
S''
asbasbasbag68
(g84
g70
NtRp1623
(dp1624
g73
(dp1625
sg82
g1203
sg75
(lp1626
g68
(g89
g70
NtRp1627
(dp1628
g73
(dp1629
g93
g94
ssg82
g1623
sg75
(lp1630
S'remote_addr'
p1631
asbag68
(g89
g70
NtRp1632
(dp1633
g73
(dp1634
g100
g101
ssg82
g1623
sg75
(lp1635
S':'
asbag68
(g89
g70
NtRp1636
(dp1637
g73
(dp1638
sg82
g1623
sg75
(lp1639
g68
(g69
g70
NtRp1640
(dp1641
g73
(dp1642
g81
I4
ssg82
g1636
sg75
(lp1643
g201
asbasbasbag68
(g84
g70
NtRp1644
(dp1645
g73
(dp1646
sg82
g1203
sg75
(lp1647
g68
(g89
g70
NtRp1648
(dp1649
g73
(dp1650
g93
g94
ssg82
g1644
sg75
(lp1651
S'remote_port'
p1652
asbag68
(g89
g70
NtRp1653
(dp1654
g73
(dp1655
g100
g101
ssg82
g1644
sg75
(lp1656
S':'
asbag68
(g89
g70
NtRp1657
(dp1658
g73
(dp1659
sg82
g1644
sg75
(lp1660
g68
(g69
g70
NtRp1661
(dp1662
g73
(dp1663
g81
I4
ssg82
g1657
sg75
(lp1664
S'59302'
p1665
asbasbasbag68
(g84
g70
NtRp1666
(dp1667
g73
(dp1668
sg82
g1203
sg75
(lp1669
g68
(g89
g70
NtRp1670
(dp1671
g73
(dp1672
g93
g94
ssg82
g1666
sg75
(lp1673
S'request_method'
p1674
asbag68
(g89
g70
NtRp1675
(dp1676
g73
(dp1677
g100
g101
ssg82
g1666
sg75
(lp1678
S':'
asbag68
(g89
g70
NtRp1679
(dp1680
g73
(dp1681
sg82
g1666
sg75
(lp1682
g68
(g69
g70
NtRp1683
(dp1684
g73
(dp1685
g81
I4
ssg82
g1679
sg75
(lp1686
S'GET'
p1687
asbasbasbag68
(g84
g70
NtRp1688
(dp1689
g73
(dp1690
sg82
g1203
sg75
(lp1691
g68
(g89
g70
NtRp1692
(dp1693
g73
(dp1694
g93
g94
ssg82
g1688
sg75
(lp1695
S'script_name'
p1696
asbag68
(g89
g70
NtRp1697
(dp1698
g73
(dp1699
g100
g101
ssg82
g1688
sg75
(lp1700
S':'
asbag68
(g89
g70
NtRp1701
(dp1702
g73
(dp1703
sg82
g1688
sg75
(lp1704
g68
(g69
g70
NtRp1705
(dp1706
g73
(dp1707
g81
I4
ssg82
g1701
sg75
(lp1708
S''
asbasbasbag68
(g84
g70
NtRp1709
(dp1710
g73
(dp1711
sg82
g1203
sg75
(lp1712
g68
(g89
g70
NtRp1713
(dp1714
g73
(dp1715
g93
g94
ssg82
g1709
sg75
(lp1716
S'server_name'
p1717
asbag68
(g89
g70
NtRp1718
(dp1719
g73
(dp1720
g100
g101
ssg82
g1709
sg75
(lp1721
S':'
asbag68
(g89
g70
NtRp1722
(dp1723
g73
(dp1724
sg82
g1709
sg75
(lp1725
g68
(g69
g70
NtRp1726
(dp1727
g73
(dp1728
g81
I4
ssg82
g1722
sg75
(lp1729
S'mukul-INVALID'
p1730
asbasbasbag68
(g84
g70
NtRp1731
(dp1732
g73
(dp1733
sg82
g1203
sg75
(lp1734
g68
(g89
g70
NtRp1735
(dp1736
g73
(dp1737
g93
g94
ssg82
g1731
sg75
(lp1738
S'server_port'
p1739
asbag68
(g89
g70
NtRp1740
(dp1741
g73
(dp1742
g100
g101
ssg82
g1731
sg75
(lp1743
S':'
asbag68
(g89
g70
NtRp1744
(dp1745
g73
(dp1746
sg82
g1731
sg75
(lp1747
g68
(g69
g70
NtRp1748
(dp1749
g73
(dp1750
g81
I4
ssg82
g1744
sg75
(lp1751
S'8000'
p1752
asbasbasbag68
(g84
g70
NtRp1753
(dp1754
g73
(dp1755
sg82
g1203
sg75
(lp1756
g68
(g89
g70
NtRp1757
(dp1758
g73
(dp1759
g93
g94
ssg82
g1753
sg75
(lp1760
S'server_protocol'
p1761
asbag68
(g89
g70
NtRp1762
(dp1763
g73
(dp1764
g100
g101
ssg82
g1753
sg75
(lp1765
S':'
asbag68
(g89
g70
NtRp1766
(dp1767
g73
(dp1768
sg82
g1753
sg75
(lp1769
g68
(g69
g70
NtRp1770
(dp1771
g73
(dp1772
g81
I4
ssg82
g1766
sg75
(lp1773
S'HTTP/1.1'
p1774
asbasbasbag68
(g84
g70
NtRp1775
(dp1776
g73
(dp1777
sg82
g1203
sg75
(lp1778
g68
(g89
g70
NtRp1779
(dp1780
g73
(dp1781
g93
g94
ssg82
g1775
sg75
(lp1782
S'server_software'
p1783
asbag68
(g89
g70
NtRp1784
(dp1785
g73
(dp1786
g100
g101
ssg82
g1775
sg75
(lp1787
S':'
asbag68
(g89
g70
NtRp1788
(dp1789
g73
(dp1790
sg82
g1775
sg75
(lp1791
g68
(g69
g70
NtRp1792
(dp1793
g73
(dp1794
g81
I4
ssg82
g1788
sg75
(lp1795
S'Rocket 1.2.4'
p1796
asbasbasbag68
(g84
g70
NtRp1797
(dp1798
g73
(dp1799
sg82
g1203
sg75
(lp1800
g68
(g89
g70
NtRp1801
(dp1802
g73
(dp1803
g93
g94
ssg82
g1797
sg75
(lp1804
S'web2py_crontype'
p1805
asbag68
(g89
g70
NtRp1806
(dp1807
g73
(dp1808
g100
g101
ssg82
g1797
sg75
(lp1809
S':'
asbag68
(g89
g70
NtRp1810
(dp1811
g73
(dp1812
sg82
g1797
sg75
(lp1813
g68
(g69
g70
NtRp1814
(dp1815
g73
(dp1816
g81
I4
ssg82
g1810
sg75
(lp1817
S'hard'
p1818
asbasbasbag68
(g84
g70
NtRp1819
(dp1820
g73
(dp1821
sg82
g1203
sg75
(lp1822
g68
(g89
g70
NtRp1823
(dp1824
g73
(dp1825
g93
g94
ssg82
g1819
sg75
(lp1826
S'web2py_path'
p1827
asbag68
(g89
g70
NtRp1828
(dp1829
g73
(dp1830
g100
g101
ssg82
g1819
sg75
(lp1831
S':'
asbag68
(g89
g70
NtRp1832
(dp1833
g73
(dp1834
sg82
g1819
sg75
(lp1835
g68
(g69
g70
NtRp1836
(dp1837
g73
(dp1838
g81
I4
ssg82
g1832
sg75
(lp1839
g1250
asbasbasbag68
(g84
g70
NtRp1840
(dp1841
g73
(dp1842
sg82
g1203
sg75
(lp1843
g68
(g89
g70
NtRp1844
(dp1845
g73
(dp1846
g93
g94
ssg82
g1840
sg75
(lp1847
S'web2py_version'
p1848
asbag68
(g89
g70
NtRp1849
(dp1850
g73
(dp1851
g100
g101
ssg82
g1840
sg75
(lp1852
S':'
asbag68
(g89
g70
NtRp1853
(dp1854
g73
(dp1855
sg82
g1840
sg75
(lp1856
g68
(g69
g70
NtRp1857
(dp1858
g73
(dp1859
g81
I4
ssg82
g1853
sg75
(lp1860
g68
(g77
g70
NtRp1861
(dp1862
g73
(dp1863
g81
I3
ssg82
Nsg75
(lp1864
g68
(g84
g70
NtRp1865
(dp1866
g73
(dp1867
sg82
g1861
sg75
(lp1868
g68
(g89
g70
NtRp1869
(dp1870
g73
(dp1871
sg82
g1865
sg75
(lp1872
g68
(g69
g70
NtRp1873
(dp1874
g73
(dp1875
g81
I3
ssg82
g1869
sg75
(lp1876
S'1'
asbasbasbag68
(g84
g70
NtRp1877
(dp1878
g73
(dp1879
sg82
g1861
sg75
(lp1880
g68
(g89
g70
NtRp1881
(dp1882
g73
(dp1883
sg82
g1877
sg75
(lp1884
g68
(g69
g70
NtRp1885
(dp1886
g73
(dp1887
g81
I3
ssg82
g1881
sg75
(lp1888
S'99'
p1889
asbasbasbag68
(g84
g70
NtRp1890
(dp1891
g73
(dp1892
sg82
g1861
sg75
(lp1893
g68
(g89
g70
NtRp1894
(dp1895
g73
(dp1896
sg82
g1890
sg75
(lp1897
g68
(g69
g70
NtRp1898
(dp1899
g73
(dp1900
g81
I3
ssg82
g1894
sg75
(lp1901
S'4'
asbasbasbag68
(g84
g70
NtRp1902
(dp1903
g73
(dp1904
sg82
g1861
sg75
(lp1905
g68
(g89
g70
NtRp1906
(dp1907
g73
(dp1908
sg82
g1902
sg75
(lp1909
g68
(g69
g70
NtRp1910
(dp1911
g73
(dp1912
g81
I3
ssg82
g1906
sg75
(lp1913
S'datetime.datetime(2011, 12, 14, 14, 46, 14)'
p1914
asbasbasbag68
(g84
g70
NtRp1915
(dp1916
g73
(dp1917
sg82
g1861
sg75
(lp1918
g68
(g89
g70
NtRp1919
(dp1920
g73
(dp1921
sg82
g1915
sg75
(lp1922
g68
(g69
g70
NtRp1923
(dp1924
g73
(dp1925
g81
I3
ssg82
g1919
sg75
(lp1926
S'stable'
p1927
asbasbasbasbasbasbasbag68
(g84
g70
NtRp1928
(dp1929
g73
(dp1930
sg82
g1203
sg75
(lp1931
g68
(g89
g70
NtRp1932
(dp1933
g73
(dp1934
g93
g94
ssg82
g1928
sg75
(lp1935
S'wsgi_errors'
p1936
asbag68
(g89
g70
NtRp1937
(dp1938
g73
(dp1939
g100
g101
ssg82
g1928
sg75
(lp1940
S':'
asbag68
(g89
g70
NtRp1941
(dp1942
g73
(dp1943
sg82
g1928
sg75
(lp1944
g68
(g69
g70
NtRp1945
(dp1946
g73
(dp1947
g81
I4
ssg82
g1941
sg75
(lp1948
S"<open file '<stderr>', mode 'w' at 0xb73330d0>"
p1949
asbasbasbag68
(g84
g70
NtRp1950
(dp1951
g73
(dp1952
sg82
g1203
sg75
(lp1953
g68
(g89
g70
NtRp1954
(dp1955
g73
(dp1956
g93
g94
ssg82
g1950
sg75
(lp1957
S'wsgi_file_wrapper'
p1958
asbag68
(g89
g70
NtRp1959
(dp1960
g73
(dp1961
g100
g101
ssg82
g1950
sg75
(lp1962
S':'
asbag68
(g89
g70
NtRp1963
(dp1964
g73
(dp1965
sg82
g1950
sg75
(lp1966
g68
(g69
g70
NtRp1967
(dp1968
g73
(dp1969
g81
I4
ssg82
g1963
sg75
(lp1970
S'<class wsgiref.util.FileWrapper at 0x90d14dc>'
p1971
asbasbasbag68
(g84
g70
NtRp1972
(dp1973
g73
(dp1974
sg82
g1203
sg75
(lp1975
g68
(g89
g70
NtRp1976
(dp1977
g73
(dp1978
g93
g94
ssg82
g1972
sg75
(lp1979
S'wsgi_input'
p1980
asbag68
(g89
g70
NtRp1981
(dp1982
g73
(dp1983
g100
g101
ssg82
g1972
sg75
(lp1984
S':'
asbag68
(g89
g70
NtRp1985
(dp1986
g73
(dp1987
sg82
g1972
sg75
(lp1988
g68
(g69
g70
NtRp1989
(dp1990
g73
(dp1991
g81
I4
ssg82
g1985
sg75
(lp1992
S'<socket._fileobject object at 0x976856c>'
p1993
asbasbasbag68
(g84
g70
NtRp1994
(dp1995
g73
(dp1996
sg82
g1203
sg75
(lp1997
g68
(g89
g70
NtRp1998
(dp1999
g73
(dp2000
g93
g94
ssg82
g1994
sg75
(lp2001
S'wsgi_multiprocess'
p2002
asbag68
(g89
g70
NtRp2003
(dp2004
g73
(dp2005
g100
g101
ssg82
g1994
sg75
(lp2006
S':'
asbag68
(g89
g70
NtRp2007
(dp2008
g73
(dp2009
sg82
g1994
sg75
(lp2010
g68
(g69
g70
NtRp2011
(dp2012
g73
(dp2013
g81
I4
ssg82
g2007
sg75
(lp2014
g111
asbasbasbag68
(g84
g70
NtRp2015
(dp2016
g73
(dp2017
sg82
g1203
sg75
(lp2018
g68
(g89
g70
NtRp2019
(dp2020
g73
(dp2021
g93
g94
ssg82
g2015
sg75
(lp2022
S'wsgi_multithread'
p2023
asbag68
(g89
g70
NtRp2024
(dp2025
g73
(dp2026
g100
g101
ssg82
g2015
sg75
(lp2027
S':'
asbag68
(g89
g70
NtRp2028
(dp2029
g73
(dp2030
sg82
g2015
sg75
(lp2031
g68
(g69
g70
NtRp2032
(dp2033
g73
(dp2034
g81
I4
ssg82
g2028
sg75
(lp2035
S'True'
p2036
asbasbasbag68
(g84
g70
NtRp2037
(dp2038
g73
(dp2039
sg82
g1203
sg75
(lp2040
g68
(g89
g70
NtRp2041
(dp2042
g73
(dp2043
g93
g94
ssg82
g2037
sg75
(lp2044
S'wsgi_run_once'
p2045
asbag68
(g89
g70
NtRp2046
(dp2047
g73
(dp2048
g100
g101
ssg82
g2037
sg75
(lp2049
S':'
asbag68
(g89
g70
NtRp2050
(dp2051
g73
(dp2052
sg82
g2037
sg75
(lp2053
g68
(g69
g70
NtRp2054
(dp2055
g73
(dp2056
g81
I4
ssg82
g2050
sg75
(lp2057
g111
asbasbasbag68
(g84
g70
NtRp2058
(dp2059
g73
(dp2060
sg82
g1203
sg75
(lp2061
g68
(g89
g70
NtRp2062
(dp2063
g73
(dp2064
g93
g94
ssg82
g2058
sg75
(lp2065
S'wsgi_url_scheme'
p2066
asbag68
(g89
g70
NtRp2067
(dp2068
g73
(dp2069
g100
g101
ssg82
g2058
sg75
(lp2070
S':'
asbag68
(g89
g70
NtRp2071
(dp2072
g73
(dp2073
sg82
g2058
sg75
(lp2074
g68
(g69
g70
NtRp2075
(dp2076
g73
(dp2077
g81
I4
ssg82
g2071
sg75
(lp2078
S'http'
p2079
asbasbasbag68
(g84
g70
NtRp2080
(dp2081
g73
(dp2082
sg82
g1203
sg75
(lp2083
g68
(g89
g70
NtRp2084
(dp2085
g73
(dp2086
g93
g94
ssg82
g2080
sg75
(lp2087
S'wsgi_version'
p2088
asbag68
(g89
g70
NtRp2089
(dp2090
g73
(dp2091
g100
g101
ssg82
g2080
sg75
(lp2092
S':'
asbag68
(g89
g70
NtRp2093
(dp2094
g73
(dp2095
sg82
g2080
sg75
(lp2096
g68
(g69
g70
NtRp2097
(dp2098
g73
(dp2099
g81
I4
ssg82
g2093
sg75
(lp2100
g68
(g77
g70
NtRp2101
(dp2102
g73
(dp2103
g81
I3
ssg82
Nsg75
(lp2104
g68
(g84
g70
NtRp2105
(dp2106
g73
(dp2107
sg82
g2101
sg75
(lp2108
g68
(g89
g70
NtRp2109
(dp2110
g73
(dp2111
sg82
g2105
sg75
(lp2112
g68
(g69
g70
NtRp2113
(dp2114
g73
(dp2115
g81
I3
ssg82
g2109
sg75
(lp2116
S'1'
asbasbasbag68
(g84
g70
NtRp2117
(dp2118
g73
(dp2119
sg82
g2101
sg75
(lp2120
g68
(g89
g70
NtRp2121
(dp2122
g73
(dp2123
sg82
g2117
sg75
(lp2124
g68
(g69
g70
NtRp2125
(dp2126
g73
(dp2127
g81
I3
ssg82
g2121
sg75
(lp2128
S'0'
asbasbasbasbasbasbasbasbasbasbasbag68
(g84
g70
NtRp2129
(dp2130
g73
(dp2131
sg82
g78
sg75
(lp2132
g68
(g89
g70
NtRp2133
(dp2134
g73
(dp2135
g93
g94
ssg82
g2129
sg75
(lp2136
S'extension'
p2137
asbag68
(g89
g70
NtRp2138
(dp2139
g73
(dp2140
g100
g101
ssg82
g2129
sg75
(lp2141
S':'
asbag68
(g89
g70
NtRp2142
(dp2143
g73
(dp2144
sg82
g2129
sg75
(lp2145
g68
(g69
g70
NtRp2146
(dp2147
g73
(dp2148
g81
I5
ssg82
g2142
sg75
(lp2149
S'html'
p2150
asbasbasbag68
(g84
g70
NtRp2151
(dp2152
g73
(dp2153
sg82
g78
sg75
(lp2154
g68
(g89
g70
NtRp2155
(dp2156
g73
(dp2157
g93
g94
ssg82
g2151
sg75
(lp2158
S'folder'
p2159
asbag68
(g89
g70
NtRp2160
(dp2161
g73
(dp2162
g100
g101
ssg82
g2151
sg75
(lp2163
S':'
asbag68
(g89
g70
NtRp2164
(dp2165
g73
(dp2166
sg82
g2151
sg75
(lp2167
g68
(g69
g70
NtRp2168
(dp2169
g73
(dp2170
g81
I5
ssg82
g2164
sg75
(lp2171
S'/home/mukul/web2py/applications/blogpost/'
p2172
asbasbasbag68
(g84
g70
NtRp2173
(dp2174
g73
(dp2175
sg82
g78
sg75
(lp2176
g68
(g89
g70
NtRp2177
(dp2178
g73
(dp2179
g93
g94
ssg82
g2173
sg75
(lp2180
S'function'
p2181
asbag68
(g89
g70
NtRp2182
(dp2183
g73
(dp2184
g100
g101
ssg82
g2173
sg75
(lp2185
S':'
asbag68
(g89
g70
NtRp2186
(dp2187
g73
(dp2188
sg82
g2173
sg75
(lp2189
g68
(g69
g70
NtRp2190
(dp2191
g73
(dp2192
g81
I5
ssg82
g2186
sg75
(lp2193
S'add_blog_post'
p2194
asbasbasbag68
(g84
g70
NtRp2195
(dp2196
g73
(dp2197
sg82
g78
sg75
(lp2198
g68
(g89
g70
NtRp2199
(dp2200
g73
(dp2201
g93
g94
ssg82
g2195
sg75
(lp2202
S'get_vars'
p2203
asbag68
(g89
g70
NtRp2204
(dp2205
g73
(dp2206
g100
g101
ssg82
g2195
sg75
(lp2207
S':'
asbag68
(g89
g70
NtRp2208
(dp2209
g73
(dp2210
sg82
g2195
sg75
(lp2211
g68
(g69
g70
NtRp2212
(dp2213
g73
(dp2214
g81
I5
ssg82
g2208
sg75
(lp2215
g68
(g77
g70
NtRp2216
(dp2217
g73
(dp2218
g81
I4
ssg82
Nsg75
(lp2219
sbasbasbasbag68
(g84
g70
NtRp2220
(dp2221
g73
(dp2222
sg82
g78
sg75
(lp2223
g68
(g89
g70
NtRp2224
(dp2225
g73
(dp2226
g93
g94
ssg82
g2220
sg75
(lp2227
S'global_settings'
p2228
asbag68
(g89
g70
NtRp2229
(dp2230
g73
(dp2231
g100
g101
ssg82
g2220
sg75
(lp2232
S':'
asbag68
(g89
g70
NtRp2233
(dp2234
g73
(dp2235
sg82
g2220
sg75
(lp2236
g68
(g69
g70
NtRp2237
(dp2238
g73
(dp2239
g81
I5
ssg82
g2233
sg75
(lp2240
g68
(g77
g70
NtRp2241
(dp2242
g73
(dp2243
g81
I4
ssg82
Nsg75
(lp2244
g68
(g84
g70
NtRp2245
(dp2246
g73
(dp2247
sg82
g2241
sg75
(lp2248
g68
(g89
g70
NtRp2249
(dp2250
g73
(dp2251
g93
g94
ssg82
g2245
sg75
(lp2252
g1215
asbag68
(g89
g70
NtRp2253
(dp2254
g73
(dp2255
g100
g101
ssg82
g2245
sg75
(lp2256
S':'
asbag68
(g89
g70
NtRp2257
(dp2258
g73
(dp2259
sg82
g2245
sg75
(lp2260
g68
(g69
g70
NtRp2261
(dp2262
g73
(dp2263
g81
I4
ssg82
g2257
sg75
(lp2264
S"set(['/home/mukul/web2py/applications/admin/', '/home/mukul/web2py/applications/blogpost/', '/home/mukul/web2py/applications/go_to_app/', '/home/mukul/web2py/applications/welcome/', '/home/mukul/web2py/applications/mukul/', '/home/mukul/web2py/applications/examples/'])"
p2265
asbasbasbag68
(g84
g70
NtRp2266
(dp2267
g73
(dp2268
sg82
g2241
sg75
(lp2269
g68
(g89
g70
NtRp2270
(dp2271
g73
(dp2272
g93
g94
ssg82
g2266
sg75
(lp2273
g1237
asbag68
(g89
g70
NtRp2274
(dp2275
g73
(dp2276
g100
g101
ssg82
g2266
sg75
(lp2277
S':'
asbag68
(g89
g70
NtRp2278
(dp2279
g73
(dp2280
sg82
g2266
sg75
(lp2281
g68
(g69
g70
NtRp2282
(dp2283
g73
(dp2284
g81
I4
ssg82
g2278
sg75
(lp2285
g1250
asbasbasbag68
(g84
g70
NtRp2286
(dp2287
g73
(dp2288
sg82
g2241
sg75
(lp2289
g68
(g89
g70
NtRp2290
(dp2291
g73
(dp2292
g93
g94
ssg82
g2286
sg75
(lp2293
g1259
asbag68
(g89
g70
NtRp2294
(dp2295
g73
(dp2296
g100
g101
ssg82
g2286
sg75
(lp2297
S':'
asbag68
(g89
g70
NtRp2298
(dp2299
g73
(dp2300
sg82
g2286
sg75
(lp2301
g68
(g69
g70
NtRp2302
(dp2303
g73
(dp2304
g81
I4
ssg82
g2298
sg75
(lp2305
g68
(g77
g70
NtRp2306
(dp2307
g73
(dp2308
g81
I3
ssg82
Nsg75
(lp2309
sbasbasbasbag68
(g84
g70
NtRp2310
(dp2311
g73
(dp2312
sg82
g2241
sg75
(lp2313
g68
(g89
g70
NtRp2314
(dp2315
g73
(dp2316
g93
g94
ssg82
g2310
sg75
(lp2317
g1284
asbag68
(g89
g70
NtRp2318
(dp2319
g73
(dp2320
g100
g101
ssg82
g2310
sg75
(lp2321
S':'
asbag68
(g89
g70
NtRp2322
(dp2323
g73
(dp2324
sg82
g2310
sg75
(lp2325
g68
(g69
g70
NtRp2326
(dp2327
g73
(dp2328
g81
I4
ssg82
g2322
sg75
(lp2329
S"<Values at 0x931178c: {'verbose': False, 'ip': '127.0.0.1', 'shutdown_timeout': 5, 'taskbar': False, 'port': 8000, 'maxthreads': None, 'softcron': False, 'server_name': 'mukul-INVALID', 'bpython': False, 'nogui': False, 'nocron': False, 'extcron': False, 'debuglevel': 30, 'test': None, 'folder': '/home/mukul/web2py', 'config': '', 'import_models': False, 'winservice': '', 'shell': None, 'run': '', 'log_filename': 'httpserver.log', 'args': [''], 'socket_timeout': 1, 'profiler_filename': None, 'ssl_private_key': '', 'password': '<ask>', 'request_queue_size': 5, 'ssl_certificate': '', 'cronjob': False, 'plain': False, 'quiet': False, 'interfaces': None, 'minthreads': None, 'timeout': 10, 'numthreads': None, 'nobanner': False, 'pid_filename': 'httpserver.pid'}>"
p2330
asbasbasbag68
(g84
g70
NtRp2331
(dp2332
g73
(dp2333
sg82
g2241
sg75
(lp2334
g68
(g89
g70
NtRp2335
(dp2336
g73
(dp2337
g93
g94
ssg82
g2331
sg75
(lp2338
g1306
asbag68
(g89
g70
NtRp2339
(dp2340
g73
(dp2341
g100
g101
ssg82
g2331
sg75
(lp2342
S':'
asbag68
(g89
g70
NtRp2343
(dp2344
g73
(dp2345
sg82
g2331
sg75
(lp2346
g68
(g69
g70
NtRp2347
(dp2348
g73
(dp2349
g81
I4
ssg82
g2343
sg75
(lp2350
S'set([])'
p2351
asbasbasbag68
(g84
g70
NtRp2352
(dp2353
g73
(dp2354
sg82
g2241
sg75
(lp2355
g68
(g89
g70
NtRp2356
(dp2357
g73
(dp2358
g93
g94
ssg82
g2352
sg75
(lp2359
g1328
asbag68
(g89
g70
NtRp2360
(dp2361
g73
(dp2362
g100
g101
ssg82
g2352
sg75
(lp2363
S':'
asbag68
(g89
g70
NtRp2364
(dp2365
g73
(dp2366
sg82
g2352
sg75
(lp2367
g68
(g69
g70
NtRp2368
(dp2369
g73
(dp2370
g81
I4
ssg82
g2364
sg75
(lp2371
g111
asbasbasbag68
(g84
g70
NtRp2372
(dp2373
g73
(dp2374
sg82
g2241
sg75
(lp2375
g68
(g89
g70
NtRp2376
(dp2377
g73
(dp2378
g93
g94
ssg82
g2372
sg75
(lp2379
g1349
asbag68
(g89
g70
NtRp2380
(dp2381
g73
(dp2382
g100
g101
ssg82
g2372
sg75
(lp2383
S':'
asbag68
(g89
g70
NtRp2384
(dp2385
g73
(dp2386
sg82
g2372
sg75
(lp2387
g68
(g69
g70
NtRp2388
(dp2389
g73
(dp2390
g81
I4
ssg82
g2384
sg75
(lp2391
g1362
asbasbasbag68
(g84
g70
NtRp2392
(dp2393
g73
(dp2394
sg82
g2241
sg75
(lp2395
g68
(g89
g70
NtRp2396
(dp2397
g73
(dp2398
g93
g94
ssg82
g2392
sg75
(lp2399
g1546
asbag68
(g89
g70
NtRp2400
(dp2401
g73
(dp2402
g100
g101
ssg82
g2392
sg75
(lp2403
S':'
asbag68
(g89
g70
NtRp2404
(dp2405
g73
(dp2406
sg82
g2392
sg75
(lp2407
g68
(g69
g70
NtRp2408
(dp2409
g73
(dp2410
g81
I4
ssg82
g2404
sg75
(lp2411
g111
asbasbasbag68
(g84
g70
NtRp2412
(dp2413
g73
(dp2414
sg82
g2241
sg75
(lp2415
g68
(g89
g70
NtRp2416
(dp2417
g73
(dp2418
g93
g94
ssg82
g2412
sg75
(lp2419
g1567
asbag68
(g89
g70
NtRp2420
(dp2421
g73
(dp2422
g100
g101
ssg82
g2412
sg75
(lp2423
S':'
asbag68
(g89
g70
NtRp2424
(dp2425
g73
(dp2426
sg82
g2412
sg75
(lp2427
g68
(g69
g70
NtRp2428
(dp2429
g73
(dp2430
g81
I4
ssg82
g2424
sg75
(lp2431
g111
asbasbasbag68
(g84
g70
NtRp2432
(dp2433
g73
(dp2434
sg82
g2241
sg75
(lp2435
g68
(g89
g70
NtRp2436
(dp2437
g73
(dp2438
g93
g94
ssg82
g2432
sg75
(lp2439
g1805
asbag68
(g89
g70
NtRp2440
(dp2441
g73
(dp2442
g100
g101
ssg82
g2432
sg75
(lp2443
S':'
asbag68
(g89
g70
NtRp2444
(dp2445
g73
(dp2446
sg82
g2432
sg75
(lp2447
g68
(g69
g70
NtRp2448
(dp2449
g73
(dp2450
g81
I4
ssg82
g2444
sg75
(lp2451
g1818
asbasbasbag68
(g84
g70
NtRp2452
(dp2453
g73
(dp2454
sg82
g2241
sg75
(lp2455
g68
(g89
g70
NtRp2456
(dp2457
g73
(dp2458
g93
g94
ssg82
g2452
sg75
(lp2459
g1848
asbag68
(g89
g70
NtRp2460
(dp2461
g73
(dp2462
g100
g101
ssg82
g2452
sg75
(lp2463
S':'
asbag68
(g89
g70
NtRp2464
(dp2465
g73
(dp2466
sg82
g2452
sg75
(lp2467
g68
(g69
g70
NtRp2468
(dp2469
g73
(dp2470
g81
I4
ssg82
g2464
sg75
(lp2471
g68
(g77
g70
NtRp2472
(dp2473
g73
(dp2474
g81
I3
ssg82
Nsg75
(lp2475
g68
(g84
g70
NtRp2476
(dp2477
g73
(dp2478
sg82
g2472
sg75
(lp2479
g68
(g89
g70
NtRp2480
(dp2481
g73
(dp2482
sg82
g2476
sg75
(lp2483
g68
(g69
g70
NtRp2484
(dp2485
g73
(dp2486
g81
I3
ssg82
g2480
sg75
(lp2487
S'1'
asbasbasbag68
(g84
g70
NtRp2488
(dp2489
g73
(dp2490
sg82
g2472
sg75
(lp2491
g68
(g89
g70
NtRp2492
(dp2493
g73
(dp2494
sg82
g2488
sg75
(lp2495
g68
(g69
g70
NtRp2496
(dp2497
g73
(dp2498
g81
I3
ssg82
g2492
sg75
(lp2499
S'99'
p2500
asbasbasbag68
(g84
g70
NtRp2501
(dp2502
g73
(dp2503
sg82
g2472
sg75
(lp2504
g68
(g89
g70
NtRp2505
(dp2506
g73
(dp2507
sg82
g2501
sg75
(lp2508
g68
(g69
g70
NtRp2509
(dp2510
g73
(dp2511
g81
I3
ssg82
g2505
sg75
(lp2512
S'4'
asbasbasbag68
(g84
g70
NtRp2513
(dp2514
g73
(dp2515
sg82
g2472
sg75
(lp2516
g68
(g89
g70
NtRp2517
(dp2518
g73
(dp2519
sg82
g2513
sg75
(lp2520
g68
(g69
g70
NtRp2521
(dp2522
g73
(dp2523
g81
I3
ssg82
g2517
sg75
(lp2524
S'datetime.datetime(2011, 12, 14, 14, 46, 14)'
p2525
asbasbasbag68
(g84
g70
NtRp2526
(dp2527
g73
(dp2528
sg82
g2472
sg75
(lp2529
g68
(g89
g70
NtRp2530
(dp2531
g73
(dp2532
sg82
g2526
sg75
(lp2533
g68
(g69
g70
NtRp2534
(dp2535
g73
(dp2536
g81
I3
ssg82
g2530
sg75
(lp2537
g1927
asbasbasbasbasbasbasbasbasbasbasbag68
(g84
g70
NtRp2538
(dp2539
g73
(dp2540
sg82
g78
sg75
(lp2541
g68
(g89
g70
NtRp2542
(dp2543
g73
(dp2544
g93
g94
ssg82
g2538
sg75
(lp2545
S'is_https'
p2546
asbag68
(g89
g70
NtRp2547
(dp2548
g73
(dp2549
g100
g101
ssg82
g2538
sg75
(lp2550
S':'
asbag68
(g89
g70
NtRp2551
(dp2552
g73
(dp2553
sg82
g2538
sg75
(lp2554
g68
(g69
g70
NtRp2555
(dp2556
g73
(dp2557
g81
I5
ssg82
g2551
sg75
(lp2558
g111
asbasbasbag68
(g84
g70
NtRp2559
(dp2560
g73
(dp2561
sg82
g78
sg75
(lp2562
g68
(g89
g70
NtRp2563
(dp2564
g73
(dp2565
g93
g94
ssg82
g2559
sg75
(lp2566
S'is_local'
p2567
asbag68
(g89
g70
NtRp2568
(dp2569
g73
(dp2570
g100
g101
ssg82
g2559
sg75
(lp2571
S':'
asbag68
(g89
g70
NtRp2572
(dp2573
g73
(dp2574
sg82
g2559
sg75
(lp2575
g68
(g69
g70
NtRp2576
(dp2577
g73
(dp2578
g81
I5
ssg82
g2572
sg75
(lp2579
g2036
asbasbasbag68
(g84
g70
NtRp2580
(dp2581
g73
(dp2582
sg82
g78
sg75
(lp2583
g68
(g89
g70
NtRp2584
(dp2585
g73
(dp2586
g93
g94
ssg82
g2580
sg75
(lp2587
S'is_restful'
p2588
asbag68
(g89
g70
NtRp2589
(dp2590
g73
(dp2591
g100
g101
ssg82
g2580
sg75
(lp2592
S':'
asbag68
(g89
g70
NtRp2593
(dp2594
g73
(dp2595
sg82
g2580
sg75
(lp2596
g68
(g69
g70
NtRp2597
(dp2598
g73
(dp2599
g81
I5
ssg82
g2593
sg75
(lp2600
g111
asbasbasbag68
(g84
g70
NtRp2601
(dp2602
g73
(dp2603
sg82
g78
sg75
(lp2604
g68
(g89
g70
NtRp2605
(dp2606
g73
(dp2607
g93
g94
ssg82
g2601
sg75
(lp2608
S'now'
p2609
asbag68
(g89
g70
NtRp2610
(dp2611
g73
(dp2612
g100
g101
ssg82
g2601
sg75
(lp2613
S':'
asbag68
(g89
g70
NtRp2614
(dp2615
g73
(dp2616
sg82
g2601
sg75
(lp2617
g68
(g69
g70
NtRp2618
(dp2619
g73
(dp2620
g81
I5
ssg82
g2614
sg75
(lp2621
S'datetime.datetime(2016, 5, 14, 20, 16, 12, 223762)'
p2622
asbasbasbag68
(g84
g70
NtRp2623
(dp2624
g73
(dp2625
sg82
g78
sg75
(lp2626
g68
(g89
g70
NtRp2627
(dp2628
g73
(dp2629
g93
g94
ssg82
g2623
sg75
(lp2630
S'post_vars'
p2631
asbag68
(g89
g70
NtRp2632
(dp2633
g73
(dp2634
g100
g101
ssg82
g2623
sg75
(lp2635
S':'
asbag68
(g89
g70
NtRp2636
(dp2637
g73
(dp2638
sg82
g2623
sg75
(lp2639
g68
(g69
g70
NtRp2640
(dp2641
g73
(dp2642
g81
I5
ssg82
g2636
sg75
(lp2643
g68
(g77
g70
NtRp2644
(dp2645
g73
(dp2646
g81
I4
ssg82
Nsg75
(lp2647
sbasbasbasbag68
(g84
g70
NtRp2648
(dp2649
g73
(dp2650
sg82
g78
sg75
(lp2651
g68
(g89
g70
NtRp2652
(dp2653
g73
(dp2654
g93
g94
ssg82
g2648
sg75
(lp2655
S'url'
p2656
asbag68
(g89
g70
NtRp2657
(dp2658
g73
(dp2659
g100
g101
ssg82
g2648
sg75
(lp2660
S':'
asbag68
(g89
g70
NtRp2661
(dp2662
g73
(dp2663
sg82
g2648
sg75
(lp2664
g68
(g69
g70
NtRp2665
(dp2666
g73
(dp2667
g81
I5
ssg82
g2661
sg75
(lp2668
S'/blogpost/default/add_blog_post'
p2669
asbasbasbag68
(g84
g70
NtRp2670
(dp2671
g73
(dp2672
sg82
g78
sg75
(lp2673
g68
(g89
g70
NtRp2674
(dp2675
g73
(dp2676
g93
g94
ssg82
g2670
sg75
(lp2677
S'utcnow'
p2678
asbag68
(g89
g70
NtRp2679
(dp2680
g73
(dp2681
g100
g101
ssg82
g2670
sg75
(lp2682
S':'
asbag68
(g89
g70
NtRp2683
(dp2684
g73
(dp2685
sg82
g2670
sg75
(lp2686
g68
(g69
g70
NtRp2687
(dp2688
g73
(dp2689
g81
I5
ssg82
g2683
sg75
(lp2690
S'datetime.datetime(2016, 5, 14, 14, 46, 12, 223801)'
p2691
asbasbasbag68
(g84
g70
NtRp2692
(dp2693
g73
(dp2694
sg82
g78
sg75
(lp2695
g68
(g89
g70
NtRp2696
(dp2697
g73
(dp2698
g93
g94
ssg82
g2692
sg75
(lp2699
S'uuid'
p2700
asbag68
(g89
g70
NtRp2701
(dp2702
g73
(dp2703
g100
g101
ssg82
g2692
sg75
(lp2704
S':'
asbag68
(g89
g70
NtRp2705
(dp2706
g73
(dp2707
sg82
g2692
sg75
(lp2708
g68
(g69
g70
NtRp2709
(dp2710
g73
(dp2711
g81
I5
ssg82
g2705
sg75
(lp2712
S'blogpost/127.0.0.1.2016-05-14.20-16-12.bd040a33-768e-4998-9dec-5e61b29f8943'
p2713
asbasbasbag68
(g84
g70
NtRp2714
(dp2715
g73
(dp2716
sg82
g78
sg75
(lp2717
g68
(g89
g70
NtRp2718
(dp2719
g73
(dp2720
g93
g94
ssg82
g2714
sg75
(lp2721
S'vars'
p2722
asbag68
(g89
g70
NtRp2723
(dp2724
g73
(dp2725
g100
g101
ssg82
g2714
sg75
(lp2726
S':'
asbag68
(g89
g70
NtRp2727
(dp2728
g73
(dp2729
sg82
g2714
sg75
(lp2730
g68
(g69
g70
NtRp2731
(dp2732
g73
(dp2733
g81
I5
ssg82
g2727
sg75
(lp2734
g68
(g77
g70
NtRp2735
(dp2736
g73
(dp2737
g81
I4
ssg82
Nsg75
(lp2738
sbasbasbasbag68
(g84
g70
NtRp2739
(dp2740
g73
(dp2741
sg82
g78
sg75
(lp2742
g68
(g89
g70
NtRp2743
(dp2744
g73
(dp2745
g93
g94
ssg82
g2739
sg75
(lp2746
S'wsgi'
p2747
asbag68
(g89
g70
NtRp2748
(dp2749
g73
(dp2750
g100
g101
ssg82
g2739
sg75
(lp2751
S':'
asbag68
(g89
g70
NtRp2752
(dp2753
g73
(dp2754
sg82
g2739
sg75
(lp2755
g68
(g69
g70
NtRp2756
(dp2757
g73
(dp2758
g81
I5
ssg82
g2752
sg75
(lp2759
g68
(g77
g70
NtRp2760
(dp2761
g73
(dp2762
g81
I4
ssg82
Nsg75
(lp2763
g68
(g84
g70
NtRp2764
(dp2765
g73
(dp2766
sg82
g2760
sg75
(lp2767
g68
(g89
g70
NtRp2768
(dp2769
g73
(dp2770
g93
g94
ssg82
g2764
sg75
(lp2771
S'environ'
p2772
asbag68
(g89
g70
NtRp2773
(dp2774
g73
(dp2775
g100
g101
ssg82
g2764
sg75
(lp2776
S':'
asbag68
(g89
g70
NtRp2777
(dp2778
g73
(dp2779
sg82
g2764
sg75
(lp2780
g68
(g69
g70
NtRp2781
(dp2782
g73
(dp2783
g81
I4
ssg82
g2777
sg75
(lp2784
g68
(g77
g70
NtRp2785
(dp2786
g73
(dp2787
g81
I3
ssg82
Nsg75
(lp2788
g68
(g84
g70
NtRp2789
(dp2790
g73
(dp2791
sg82
g2785
sg75
(lp2792
g68
(g89
g70
NtRp2793
(dp2794
g73
(dp2795
g93
g94
ssg82
g2789
sg75
(lp2796
S'HTTP_ACCEPT'
p2797
asbag68
(g89
g70
NtRp2798
(dp2799
g73
(dp2800
g100
g101
ssg82
g2789
sg75
(lp2801
S':'
asbag68
(g89
g70
NtRp2802
(dp2803
g73
(dp2804
sg82
g2789
sg75
(lp2805
g68
(g69
g70
NtRp2806
(dp2807
g73
(dp2808
g81
I3
ssg82
g2802
sg75
(lp2809
g1384
asbasbasbag68
(g84
g70
NtRp2810
(dp2811
g73
(dp2812
sg82
g2785
sg75
(lp2813
g68
(g89
g70
NtRp2814
(dp2815
g73
(dp2816
g93
g94
ssg82
g2810
sg75
(lp2817
S'HTTP_ACCEPT_ENCODING'
p2818
asbag68
(g89
g70
NtRp2819
(dp2820
g73
(dp2821
g100
g101
ssg82
g2810
sg75
(lp2822
S':'
asbag68
(g89
g70
NtRp2823
(dp2824
g73
(dp2825
sg82
g2810
sg75
(lp2826
g68
(g69
g70
NtRp2827
(dp2828
g73
(dp2829
g81
I3
ssg82
g2823
sg75
(lp2830
g1406
asbasbasbag68
(g84
g70
NtRp2831
(dp2832
g73
(dp2833
sg82
g2785
sg75
(lp2834
g68
(g89
g70
NtRp2835
(dp2836
g73
(dp2837
g93
g94
ssg82
g2831
sg75
(lp2838
S'HTTP_ACCEPT_LANGUAGE'
p2839
asbag68
(g89
g70
NtRp2840
(dp2841
g73
(dp2842
g100
g101
ssg82
g2831
sg75
(lp2843
S':'
asbag68
(g89
g70
NtRp2844
(dp2845
g73
(dp2846
sg82
g2831
sg75
(lp2847
g68
(g69
g70
NtRp2848
(dp2849
g73
(dp2850
g81
I3
ssg82
g2844
sg75
(lp2851
g1428
asbasbasbag68
(g84
g70
NtRp2852
(dp2853
g73
(dp2854
sg82
g2785
sg75
(lp2855
g68
(g89
g70
NtRp2856
(dp2857
g73
(dp2858
g93
g94
ssg82
g2852
sg75
(lp2859
S'HTTP_CONNECTION'
p2860
asbag68
(g89
g70
NtRp2861
(dp2862
g73
(dp2863
g100
g101
ssg82
g2852
sg75
(lp2864
S':'
asbag68
(g89
g70
NtRp2865
(dp2866
g73
(dp2867
sg82
g2852
sg75
(lp2868
g68
(g69
g70
NtRp2869
(dp2870
g73
(dp2871
g81
I3
ssg82
g2865
sg75
(lp2872
g1450
asbasbasbag68
(g84
g70
NtRp2873
(dp2874
g73
(dp2875
sg82
g2785
sg75
(lp2876
g68
(g89
g70
NtRp2877
(dp2878
g73
(dp2879
g93
g94
ssg82
g2873
sg75
(lp2880
S'HTTP_COOKIE'
p2881
asbag68
(g89
g70
NtRp2882
(dp2883
g73
(dp2884
g100
g101
ssg82
g2873
sg75
(lp2885
S':'
asbag68
(g89
g70
NtRp2886
(dp2887
g73
(dp2888
sg82
g2873
sg75
(lp2889
g68
(g69
g70
NtRp2890
(dp2891
g73
(dp2892
g81
I3
ssg82
g2886
sg75
(lp2893
g1472
asbasbasbag68
(g84
g70
NtRp2894
(dp2895
g73
(dp2896
sg82
g2785
sg75
(lp2897
g68
(g89
g70
NtRp2898
(dp2899
g73
(dp2900
g93
g94
ssg82
g2894
sg75
(lp2901
S'HTTP_HOST'
p2902
asbag68
(g89
g70
NtRp2903
(dp2904
g73
(dp2905
g100
g101
ssg82
g2894
sg75
(lp2906
S':'
asbag68
(g89
g70
NtRp2907
(dp2908
g73
(dp2909
sg82
g2894
sg75
(lp2910
g68
(g69
g70
NtRp2911
(dp2912
g73
(dp2913
g81
I3
ssg82
g2907
sg75
(lp2914
g1494
asbasbasbag68
(g84
g70
NtRp2915
(dp2916
g73
(dp2917
sg82
g2785
sg75
(lp2918
g68
(g89
g70
NtRp2919
(dp2920
g73
(dp2921
g93
g94
ssg82
g2915
sg75
(lp2922
S'HTTP_UPGRADE_INSECURE_REQUESTS'
p2923
asbag68
(g89
g70
NtRp2924
(dp2925
g73
(dp2926
g100
g101
ssg82
g2915
sg75
(lp2927
S':'
asbag68
(g89
g70
NtRp2928
(dp2929
g73
(dp2930
sg82
g2915
sg75
(lp2931
g68
(g69
g70
NtRp2932
(dp2933
g73
(dp2934
g81
I3
ssg82
g2928
sg75
(lp2935
S'1'
asbasbasbag68
(g84
g70
NtRp2936
(dp2937
g73
(dp2938
sg82
g2785
sg75
(lp2939
g68
(g89
g70
NtRp2940
(dp2941
g73
(dp2942
g93
g94
ssg82
g2936
sg75
(lp2943
S'HTTP_USER_AGENT'
p2944
asbag68
(g89
g70
NtRp2945
(dp2946
g73
(dp2947
g100
g101
ssg82
g2936
sg75
(lp2948
S':'
asbag68
(g89
g70
NtRp2949
(dp2950
g73
(dp2951
sg82
g2936
sg75
(lp2952
g68
(g69
g70
NtRp2953
(dp2954
g73
(dp2955
g81
I3
ssg82
g2949
sg75
(lp2956
g1537
asbasbasbag68
(g84
g70
NtRp2957
(dp2958
g73
(dp2959
sg82
g2785
sg75
(lp2960
g68
(g89
g70
NtRp2961
(dp2962
g73
(dp2963
g93
g94
ssg82
g2957
sg75
(lp2964
S'PATH_INFO'
p2965
asbag68
(g89
g70
NtRp2966
(dp2967
g73
(dp2968
g100
g101
ssg82
g2957
sg75
(lp2969
S':'
asbag68
(g89
g70
NtRp2970
(dp2971
g73
(dp2972
sg82
g2957
sg75
(lp2973
g68
(g69
g70
NtRp2974
(dp2975
g73
(dp2976
g81
I3
ssg82
g2970
sg75
(lp2977
g1601
asbasbasbag68
(g84
g70
NtRp2978
(dp2979
g73
(dp2980
sg82
g2785
sg75
(lp2981
g68
(g89
g70
NtRp2982
(dp2983
g73
(dp2984
g93
g94
ssg82
g2978
sg75
(lp2985
S'QUERY_STRING'
p2986
asbag68
(g89
g70
NtRp2987
(dp2988
g73
(dp2989
g100
g101
ssg82
g2978
sg75
(lp2990
S':'
asbag68
(g89
g70
NtRp2991
(dp2992
g73
(dp2993
sg82
g2978
sg75
(lp2994
g68
(g69
g70
NtRp2995
(dp2996
g73
(dp2997
g81
I3
ssg82
g2991
sg75
(lp2998
S''
asbasbasbag68
(g84
g70
NtRp2999
(dp3000
g73
(dp3001
sg82
g2785
sg75
(lp3002
g68
(g89
g70
NtRp3003
(dp3004
g73
(dp3005
g93
g94
ssg82
g2999
sg75
(lp3006
S'REMOTE_ADDR'
p3007
asbag68
(g89
g70
NtRp3008
(dp3009
g73
(dp3010
g100
g101
ssg82
g2999
sg75
(lp3011
S':'
asbag68
(g89
g70
NtRp3012
(dp3013
g73
(dp3014
sg82
g2999
sg75
(lp3015
g68
(g69
g70
NtRp3016
(dp3017
g73
(dp3018
g81
I3
ssg82
g3012
sg75
(lp3019
g201
asbasbasbag68
(g84
g70
NtRp3020
(dp3021
g73
(dp3022
sg82
g2785
sg75
(lp3023
g68
(g89
g70
NtRp3024
(dp3025
g73
(dp3026
g93
g94
ssg82
g3020
sg75
(lp3027
S'REMOTE_PORT'
p3028
asbag68
(g89
g70
NtRp3029
(dp3030
g73
(dp3031
g100
g101
ssg82
g3020
sg75
(lp3032
S':'
asbag68
(g89
g70
NtRp3033
(dp3034
g73
(dp3035
sg82
g3020
sg75
(lp3036
g68
(g69
g70
NtRp3037
(dp3038
g73
(dp3039
g81
I3
ssg82
g3033
sg75
(lp3040
g1665
asbasbasbag68
(g84
g70
NtRp3041
(dp3042
g73
(dp3043
sg82
g2785
sg75
(lp3044
g68
(g89
g70
NtRp3045
(dp3046
g73
(dp3047
g93
g94
ssg82
g3041
sg75
(lp3048
S'REQUEST_METHOD'
p3049
asbag68
(g89
g70
NtRp3050
(dp3051
g73
(dp3052
g100
g101
ssg82
g3041
sg75
(lp3053
S':'
asbag68
(g89
g70
NtRp3054
(dp3055
g73
(dp3056
sg82
g3041
sg75
(lp3057
g68
(g69
g70
NtRp3058
(dp3059
g73
(dp3060
g81
I3
ssg82
g3054
sg75
(lp3061
g1687
asbasbasbag68
(g84
g70
NtRp3062
(dp3063
g73
(dp3064
sg82
g2785
sg75
(lp3065
g68
(g89
g70
NtRp3066
(dp3067
g73
(dp3068
g93
g94
ssg82
g3062
sg75
(lp3069
S'SCRIPT_NAME'
p3070
asbag68
(g89
g70
NtRp3071
(dp3072
g73
(dp3073
g100
g101
ssg82
g3062
sg75
(lp3074
S':'
asbag68
(g89
g70
NtRp3075
(dp3076
g73
(dp3077
sg82
g3062
sg75
(lp3078
g68
(g69
g70
NtRp3079
(dp3080
g73
(dp3081
g81
I3
ssg82
g3075
sg75
(lp3082
S''
asbasbasbag68
(g84
g70
NtRp3083
(dp3084
g73
(dp3085
sg82
g2785
sg75
(lp3086
g68
(g89
g70
NtRp3087
(dp3088
g73
(dp3089
g93
g94
ssg82
g3083
sg75
(lp3090
S'SERVER_NAME'
p3091
asbag68
(g89
g70
NtRp3092
(dp3093
g73
(dp3094
g100
g101
ssg82
g3083
sg75
(lp3095
S':'
asbag68
(g89
g70
NtRp3096
(dp3097
g73
(dp3098
sg82
g3083
sg75
(lp3099
g68
(g69
g70
NtRp3100
(dp3101
g73
(dp3102
g81
I3
ssg82
g3096
sg75
(lp3103
g1730
asbasbasbag68
(g84
g70
NtRp3104
(dp3105
g73
(dp3106
sg82
g2785
sg75
(lp3107
g68
(g89
g70
NtRp3108
(dp3109
g73
(dp3110
g93
g94
ssg82
g3104
sg75
(lp3111
S'SERVER_PORT'
p3112
asbag68
(g89
g70
NtRp3113
(dp3114
g73
(dp3115
g100
g101
ssg82
g3104
sg75
(lp3116
S':'
asbag68
(g89
g70
NtRp3117
(dp3118
g73
(dp3119
sg82
g3104
sg75
(lp3120
g68
(g69
g70
NtRp3121
(dp3122
g73
(dp3123
g81
I3
ssg82
g3117
sg75
(lp3124
g1752
asbasbasbag68
(g84
g70
NtRp3125
(dp3126
g73
(dp3127
sg82
g2785
sg75
(lp3128
g68
(g89
g70
NtRp3129
(dp3130
g73
(dp3131
g93
g94
ssg82
g3125
sg75
(lp3132
S'SERVER_PROTOCOL'
p3133
asbag68
(g89
g70
NtRp3134
(dp3135
g73
(dp3136
g100
g101
ssg82
g3125
sg75
(lp3137
S':'
asbag68
(g89
g70
NtRp3138
(dp3139
g73
(dp3140
sg82
g3125
sg75
(lp3141
g68
(g69
g70
NtRp3142
(dp3143
g73
(dp3144
g81
I3
ssg82
g3138
sg75
(lp3145
g1774
asbasbasbag68
(g84
g70
NtRp3146
(dp3147
g73
(dp3148
sg82
g2785
sg75
(lp3149
g68
(g89
g70
NtRp3150
(dp3151
g73
(dp3152
g93
g94
ssg82
g3146
sg75
(lp3153
S'SERVER_SOFTWARE'
p3154
asbag68
(g89
g70
NtRp3155
(dp3156
g73
(dp3157
g100
g101
ssg82
g3146
sg75
(lp3158
S':'
asbag68
(g89
g70
NtRp3159
(dp3160
g73
(dp3161
sg82
g3146
sg75
(lp3162
g68
(g69
g70
NtRp3163
(dp3164
g73
(dp3165
g81
I3
ssg82
g3159
sg75
(lp3166
g1796
asbasbasbag68
(g84
g70
NtRp3167
(dp3168
g73
(dp3169
sg82
g2785
sg75
(lp3170
g68
(g89
g70
NtRp3171
(dp3172
g73
(dp3173
g93
g94
ssg82
g3167
sg75
(lp3174
S'wsgi.errors'
p3175
asbag68
(g89
g70
NtRp3176
(dp3177
g73
(dp3178
g100
g101
ssg82
g3167
sg75
(lp3179
S':'
asbag68
(g89
g70
NtRp3180
(dp3181
g73
(dp3182
sg82
g3167
sg75
(lp3183
g68
(g69
g70
NtRp3184
(dp3185
g73
(dp3186
g81
I3
ssg82
g3180
sg75
(lp3187
S"<open file '<stderr>', mode 'w' at 0xb73330d0>"
p3188
asbasbasbag68
(g84
g70
NtRp3189
(dp3190
g73
(dp3191
sg82
g2785
sg75
(lp3192
g68
(g89
g70
NtRp3193
(dp3194
g73
(dp3195
g93
g94
ssg82
g3189
sg75
(lp3196
S'wsgi.file_wrapper'
p3197
asbag68
(g89
g70
NtRp3198
(dp3199
g73
(dp3200
g100
g101
ssg82
g3189
sg75
(lp3201
S':'
asbag68
(g89
g70
NtRp3202
(dp3203
g73
(dp3204
sg82
g3189
sg75
(lp3205
g68
(g69
g70
NtRp3206
(dp3207
g73
(dp3208
g81
I3
ssg82
g3202
sg75
(lp3209
S'<class wsgiref.util.FileWrapper at 0x90d14dc>'
p3210
asbasbasbag68
(g84
g70
NtRp3211
(dp3212
g73
(dp3213
sg82
g2785
sg75
(lp3214
g68
(g89
g70
NtRp3215
(dp3216
g73
(dp3217
g93
g94
ssg82
g3211
sg75
(lp3218
S'wsgi.input'
p3219
asbag68
(g89
g70
NtRp3220
(dp3221
g73
(dp3222
g100
g101
ssg82
g3211
sg75
(lp3223
S':'
asbag68
(g89
g70
NtRp3224
(dp3225
g73
(dp3226
sg82
g3211
sg75
(lp3227
g68
(g69
g70
NtRp3228
(dp3229
g73
(dp3230
g81
I3
ssg82
g3224
sg75
(lp3231
S'<cStringIO.StringO object at 0x9922660>'
p3232
asbasbasbag68
(g84
g70
NtRp3233
(dp3234
g73
(dp3235
sg82
g2785
sg75
(lp3236
g68
(g89
g70
NtRp3237
(dp3238
g73
(dp3239
g93
g94
ssg82
g3233
sg75
(lp3240
S'wsgi.multiprocess'
p3241
asbag68
(g89
g70
NtRp3242
(dp3243
g73
(dp3244
g100
g101
ssg82
g3233
sg75
(lp3245
S':'
asbag68
(g89
g70
NtRp3246
(dp3247
g73
(dp3248
sg82
g3233
sg75
(lp3249
g68
(g69
g70
NtRp3250
(dp3251
g73
(dp3252
g81
I3
ssg82
g3246
sg75
(lp3253
g111
asbasbasbag68
(g84
g70
NtRp3254
(dp3255
g73
(dp3256
sg82
g2785
sg75
(lp3257
g68
(g89
g70
NtRp3258
(dp3259
g73
(dp3260
g93
g94
ssg82
g3254
sg75
(lp3261
S'wsgi.multithread'
p3262
asbag68
(g89
g70
NtRp3263
(dp3264
g73
(dp3265
g100
g101
ssg82
g3254
sg75
(lp3266
S':'
asbag68
(g89
g70
NtRp3267
(dp3268
g73
(dp3269
sg82
g3254
sg75
(lp3270
g68
(g69
g70
NtRp3271
(dp3272
g73
(dp3273
g81
I3
ssg82
g3267
sg75
(lp3274
g2036
asbasbasbag68
(g84
g70
NtRp3275
(dp3276
g73
(dp3277
sg82
g2785
sg75
(lp3278
g68
(g89
g70
NtRp3279
(dp3280
g73
(dp3281
g93
g94
ssg82
g3275
sg75
(lp3282
S'wsgi.run_once'
p3283
asbag68
(g89
g70
NtRp3284
(dp3285
g73
(dp3286
g100
g101
ssg82
g3275
sg75
(lp3287
S':'
asbag68
(g89
g70
NtRp3288
(dp3289
g73
(dp3290
sg82
g3275
sg75
(lp3291
g68
(g69
g70
NtRp3292
(dp3293
g73
(dp3294
g81
I3
ssg82
g3288
sg75
(lp3295
g111
asbasbasbag68
(g84
g70
NtRp3296
(dp3297
g73
(dp3298
sg82
g2785
sg75
(lp3299
g68
(g89
g70
NtRp3300
(dp3301
g73
(dp3302
g93
g94
ssg82
g3296
sg75
(lp3303
S'wsgi.url_scheme'
p3304
asbag68
(g89
g70
NtRp3305
(dp3306
g73
(dp3307
g100
g101
ssg82
g3296
sg75
(lp3308
S':'
asbag68
(g89
g70
NtRp3309
(dp3310
g73
(dp3311
sg82
g3296
sg75
(lp3312
g68
(g69
g70
NtRp3313
(dp3314
g73
(dp3315
g81
I3
ssg82
g3309
sg75
(lp3316
g2079
asbasbasbag68
(g84
g70
NtRp3317
(dp3318
g73
(dp3319
sg82
g2785
sg75
(lp3320
g68
(g89
g70
NtRp3321
(dp3322
g73
(dp3323
g93
g94
ssg82
g3317
sg75
(lp3324
S'wsgi.version'
p3325
asbag68
(g89
g70
NtRp3326
(dp3327
g73
(dp3328
g100
g101
ssg82
g3317
sg75
(lp3329
S':'
asbag68
(g89
g70
NtRp3330
(dp3331
g73
(dp3332
sg82
g3317
sg75
(lp3333
g68
(g69
g70
NtRp3334
(dp3335
g73
(dp3336
g81
I3
ssg82
g3330
sg75
(lp3337
S'1'
asbasbasbasbasbasbasbasbasbasbasbasbasbsS'frames'
p3338
(lp3339
(dp3340
S'file'
p3341
S'/usr/lib/pymodules/python2.7/gluon/restricted.py'
p3342
sS'dump'
p3343
(dp3344
S'code'
p3345
S"'# -*- coding: utf-8 -*-\\n# this file is released ...\\n\\nresponse._vars=response._caller(add_blog_post)\\n'"
p3346
sS'layer'
p3347
S"'/home/mukul/web2py/applications/blogpost/controllers/default.py'"
p3348
sS'global compile2'
p3349
S'<function compile2>'
p3350
sS'ccode'
p3351
S'undefined'
p3352
ssS'lnum'
p3353
I203
sS'lines'
p3354
(dp3355
I198
S"    environment['__file__'] = layer"
p3356
sI199
S'    try:'
p3357
sI200
S'        if type(code) == types.CodeType:'
p3358
sI201
S'            ccode = code'
p3359
sI202
S'        else:'
p3360
sI203
S'            ccode = compile2(code,layer)'
p3361
sI204
S'        exec ccode in environment'
p3362
sI205
S'    except HTTP:'
p3363
sI206
S'        raise'
p3364
sI207
S'    except RestrictedError:'
p3365
ssS'call'
p3366
S"(code='# -*- coding: utf-8 -*-\\n# this file is released ...\\n\\nresponse._vars=response._caller(add_blog_post)\\n', environment={'A': <class 'gluon.html.A'>, 'Auth': <class 'gluon.tools.Auth'>, 'B': <class 'gluon.html.B'>, 'BEAUTIFY': <class 'gluon.html.BEAUTIFY'>, 'BODY': <class 'gluon.html.BODY'>, 'BR': <class 'gluon.html.BR'>, 'BUTTON': <class 'gluon.html.BUTTON'>, 'CAT': <class 'gluon.html.CAT'>, 'CENTER': <class 'gluon.html.CENTER'>, 'CLEANUP': <class 'gluon.validators.CLEANUP'>, ...}, layer='/home/mukul/web2py/applications/blogpost/controllers/default.py')"
p3367
sS'func'
p3368
S'restricted'
p3369
sa(dp3370
g3341
S'/usr/lib/pymodules/python2.7/gluon/restricted.py'
p3371
sg3343
(dp3372
S'builtincompile'
p3373
S'<built-in function compile>'
p3374
sS'code'
p3375
S"'# -*- coding: utf-8 -*-\\n# this file is released ...\\n\\nresponse._vars=response._caller(add_blog_post)\\n'"
p3376
sS'code.rstrip'
p3377
S'<built-in method rstrip of str object>'
p3378
sS').replace'
p3379
g3352
sS'layer'
p3380
S"'/home/mukul/web2py/applications/blogpost/controllers/default.py'"
p3381
ssg3353
I189
sg3354
(dp3382
I192
S'    """'
p3383
sI193
S'    runs code in environment and returns the output. if an exception occurs'
p3384
sI184
S''
sI185
S'def compile2(code,layer):'
p3385
sI186
S'    """'
p3386
sI187
S"    The +'\\n' is necessary else compile fails when code ends in a comment."
p3387
sI188
S'    """'
p3388
sI189
S"    return compile(code.rstrip().replace('\\r\\n','\\n')+'\\n', layer, 'exec')"
p3389
sI190
S''
sI191
S"def restricted(code, environment=None, layer='Unknown'):"
p3390
ssg3366
S"(code='# -*- coding: utf-8 -*-\\n# this file is released ...\\n\\nresponse._vars=response._caller(add_blog_post)\\n', layer='/home/mukul/web2py/applications/blogpost/controllers/default.py')"
p3391
sg3368
S'compile2'
p3392
sasS'pyver'
p3393
S'Python 2.7.3: /usr/bin/python'
p3394
sS'session'
p3395
g68
(g69
g70
NtRp3396
(dp3397
g73
(dp3398
sg75
(lp3399
g68
(g77
g70
NtRp3400
(dp3401
g73
(dp3402
g81
I5
ssg82
Nsg75
(lp3403
g68
(g84
g70
NtRp3404
(dp3405
g73
(dp3406
sg82
g3400
sg75
(lp3407
g68
(g89
g70
NtRp3408
(dp3409
g73
(dp3410
g93
g94
ssg82
g3404
sg75
(lp3411
S'auth'
p3412
asbag68
(g89
g70
NtRp3413
(dp3414
g73
(dp3415
g100
g101
ssg82
g3404
sg75
(lp3416
S':'
asbag68
(g89
g70
NtRp3417
(dp3418
g73
(dp3419
sg82
g3404
sg75
(lp3420
g68
(g69
g70
NtRp3421
(dp3422
g73
(dp3423
g81
I5
ssg82
g3417
sg75
(lp3424
g68
(g77
g70
NtRp3425
(dp3426
g73
(dp3427
g81
I4
ssg82
Nsg75
(lp3428
g68
(g84
g70
NtRp3429
(dp3430
g73
(dp3431
sg82
g3425
sg75
(lp3432
g68
(g89
g70
NtRp3433
(dp3434
g73
(dp3435
g93
g94
ssg82
g3429
sg75
(lp3436
S'expiration'
p3437
asbag68
(g89
g70
NtRp3438
(dp3439
g73
(dp3440
g100
g101
ssg82
g3429
sg75
(lp3441
S':'
asbag68
(g89
g70
NtRp3442
(dp3443
g73
(dp3444
sg82
g3429
sg75
(lp3445
g68
(g69
g70
NtRp3446
(dp3447
g73
(dp3448
g81
I4
ssg82
g3442
sg75
(lp3449
S'3600'
p3450
asbasbasbag68
(g84
g70
NtRp3451
(dp3452
g73
(dp3453
sg82
g3425
sg75
(lp3454
g68
(g89
g70
NtRp3455
(dp3456
g73
(dp3457
g93
g94
ssg82
g3451
sg75
(lp3458
S'hmac_key'
p3459
asbag68
(g89
g70
NtRp3460
(dp3461
g73
(dp3462
g100
g101
ssg82
g3451
sg75
(lp3463
S':'
asbag68
(g89
g70
NtRp3464
(dp3465
g73
(dp3466
sg82
g3451
sg75
(lp3467
g68
(g69
g70
NtRp3468
(dp3469
g73
(dp3470
g81
I4
ssg82
g3464
sg75
(lp3471
S'58e4f6da-e68c-4006-9681-e7cdf60f71ad'
p3472
asbasbasbag68
(g84
g70
NtRp3473
(dp3474
g73
(dp3475
sg82
g3425
sg75
(lp3476
g68
(g89
g70
NtRp3477
(dp3478
g73
(dp3479
g93
g94
ssg82
g3473
sg75
(lp3480
S'last_visit'
p3481
asbag68
(g89
g70
NtRp3482
(dp3483
g73
(dp3484
g100
g101
ssg82
g3473
sg75
(lp3485
S':'
asbag68
(g89
g70
NtRp3486
(dp3487
g73
(dp3488
sg82
g3473
sg75
(lp3489
g68
(g69
g70
NtRp3490
(dp3491
g73
(dp3492
g81
I4
ssg82
g3486
sg75
(lp3493
S'datetime.datetime(2016, 5, 14, 20, 16, 6, 547115)'
p3494
asbasbasbag68
(g84
g70
NtRp3495
(dp3496
g73
(dp3497
sg82
g3425
sg75
(lp3498
g68
(g89
g70
NtRp3499
(dp3500
g73
(dp3501
g93
g94
ssg82
g3495
sg75
(lp3502
S'user'
p3503
asbag68
(g89
g70
NtRp3504
(dp3505
g73
(dp3506
g100
g101
ssg82
g3495
sg75
(lp3507
S':'
asbag68
(g89
g70
NtRp3508
(dp3509
g73
(dp3510
sg82
g3495
sg75
(lp3511
g68
(g69
g70
NtRp3512
(dp3513
g73
(dp3514
g81
I4
ssg82
g3508
sg75
(lp3515
g68
(g77
g70
NtRp3516
(dp3517
g73
(dp3518
g81
I3
ssg82
Nsg75
(lp3519
g68
(g84
g70
NtRp3520
(dp3521
g73
(dp3522
sg82
g3516
sg75
(lp3523
g68
(g89
g70
NtRp3524
(dp3525
g73
(dp3526
g93
g94
ssg82
g3520
sg75
(lp3527
S'email'
p3528
asbag68
(g89
g70
NtRp3529
(dp3530
g73
(dp3531
g100
g101
ssg82
g3520
sg75
(lp3532
S':'
asbag68
(g89
g70
NtRp3533
(dp3534
g73
(dp3535
sg82
g3520
sg75
(lp3536
g68
(g69
g70
NtRp3537
(dp3538
g73
(dp3539
g81
I3
ssg82
g3533
sg75
(lp3540
S'mukulkathpalia@gmail.com'
p3541
asbasbasbag68
(g84
g70
NtRp3542
(dp3543
g73
(dp3544
sg82
g3516
sg75
(lp3545
g68
(g89
g70
NtRp3546
(dp3547
g73
(dp3548
g93
g94
ssg82
g3542
sg75
(lp3549
S'first_name'
p3550
asbag68
(g89
g70
NtRp3551
(dp3552
g73
(dp3553
g100
g101
ssg82
g3542
sg75
(lp3554
S':'
asbag68
(g89
g70
NtRp3555
(dp3556
g73
(dp3557
sg82
g3542
sg75
(lp3558
g68
(g69
g70
NtRp3559
(dp3560
g73
(dp3561
g81
I3
ssg82
g3555
sg75
(lp3562
S'mukul'
p3563
asbasbasbag68
(g84
g70
NtRp3564
(dp3565
g73
(dp3566
sg82
g3516
sg75
(lp3567
g68
(g89
g70
NtRp3568
(dp3569
g73
(dp3570
g93
g94
ssg82
g3564
sg75
(lp3571
S'id'
p3572
asbag68
(g89
g70
NtRp3573
(dp3574
g73
(dp3575
g100
g101
ssg82
g3564
sg75
(lp3576
S':'
asbag68
(g89
g70
NtRp3577
(dp3578
g73
(dp3579
sg82
g3564
sg75
(lp3580
g68
(g69
g70
NtRp3581
(dp3582
g73
(dp3583
g81
I3
ssg82
g3577
sg75
(lp3584
S'1'
asbasbasbag68
(g84
g70
NtRp3585
(dp3586
g73
(dp3587
sg82
g3516
sg75
(lp3588
g68
(g89
g70
NtRp3589
(dp3590
g73
(dp3591
g93
g94
ssg82
g3585
sg75
(lp3592
S'last_name'
p3593
asbag68
(g89
g70
NtRp3594
(dp3595
g73
(dp3596
g100
g101
ssg82
g3585
sg75
(lp3597
S':'
asbag68
(g89
g70
NtRp3598
(dp3599
g73
(dp3600
sg82
g3585
sg75
(lp3601
g68
(g69
g70
NtRp3602
(dp3603
g73
(dp3604
g81
I3
ssg82
g3598
sg75
(lp3605
S'kathpalia'
p3606
asbasbasbag68
(g84
g70
NtRp3607
(dp3608
g73
(dp3609
sg82
g3516
sg75
(lp3610
g68
(g89
g70
NtRp3611
(dp3612
g73
(dp3613
g93
g94
ssg82
g3607
sg75
(lp3614
S'password'
p3615
asbag68
(g89
g70
NtRp3616
(dp3617
g73
(dp3618
g100
g101
ssg82
g3607
sg75
(lp3619
S':'
asbag68
(g89
g70
NtRp3620
(dp3621
g73
(dp3622
sg82
g3607
sg75
(lp3623
g68
(g69
g70
NtRp3624
(dp3625
g73
(dp3626
g81
I3
ssg82
g3620
sg75
(lp3627
S'80aeb2ab48c122c2c0b4eeef2ef83fb4'
p3628
asbasbasbag68
(g84
g70
NtRp3629
(dp3630
g73
(dp3631
sg82
g3516
sg75
(lp3632
g68
(g89
g70
NtRp3633
(dp3634
g73
(dp3635
g93
g94
ssg82
g3629
sg75
(lp3636
S'registration_id'
p3637
asbag68
(g89
g70
NtRp3638
(dp3639
g73
(dp3640
g100
g101
ssg82
g3629
sg75
(lp3641
S':'
asbag68
(g89
g70
NtRp3642
(dp3643
g73
(dp3644
sg82
g3629
sg75
(lp3645
g68
(g69
g70
NtRp3646
(dp3647
g73
(dp3648
g81
I3
ssg82
g3642
sg75
(lp3649
S''
asbasbasbag68
(g84
g70
NtRp3650
(dp3651
g73
(dp3652
sg82
g3516
sg75
(lp3653
g68
(g89
g70
NtRp3654
(dp3655
g73
(dp3656
g93
g94
ssg82
g3650
sg75
(lp3657
S'registration_key'
p3658
asbag68
(g89
g70
NtRp3659
(dp3660
g73
(dp3661
g100
g101
ssg82
g3650
sg75
(lp3662
S':'
asbag68
(g89
g70
NtRp3663
(dp3664
g73
(dp3665
sg82
g3650
sg75
(lp3666
g68
(g69
g70
NtRp3667
(dp3668
g73
(dp3669
g81
I3
ssg82
g3663
sg75
(lp3670
S''
asbasbasbag68
(g84
g70
NtRp3671
(dp3672
g73
(dp3673
sg82
g3516
sg75
(lp3674
g68
(g89
g70
NtRp3675
(dp3676
g73
(dp3677
g93
g94
ssg82
g3671
sg75
(lp3678
S'reset_password_key'
p3679
asbag68
(g89
g70
NtRp3680
(dp3681
g73
(dp3682
g100
g101
ssg82
g3671
sg75
(lp3683
S':'
asbag68
(g89
g70
NtRp3684
(dp3685
g73
(dp3686
sg82
g3671
sg75
(lp3687
g68
(g69
g70
NtRp3688
(dp3689
g73
(dp3690
g81
I3
ssg82
g3684
sg75
(lp3691
S''
asbasbasbasbasbasbasbasbasbasbasbag68
(g84
g70
NtRp3692
(dp3693
g73
(dp3694
sg82
g3400
sg75
(lp3695
g68
(g89
g70
NtRp3696
(dp3697
g73
(dp3698
g93
g94
ssg82
g3692
sg75
(lp3699
S'last_query'
p3700
asbag68
(g89
g70
NtRp3701
(dp3702
g73
(dp3703
g100
g101
ssg82
g3692
sg75
(lp3704
S':'
asbag68
(g89
g70
NtRp3705
(dp3706
g73
(dp3707
sg82
g3692
sg75
(lp3708
g68
(g69
g70
NtRp3709
(dp3710
g73
(dp3711
g81
I5
ssg82
g3705
sg75
(lp3712
S'db.content.id>0'
p3713
asbasbasbasbasbsS'etype'
p3714
S"<type 'exceptions.IndentationError'>"
p3715
sS'date'
p3716
S'Sat May 14 20:16:12 2016'
p3717
sS'response'
p3718
g68
(g69
g70
NtRp3719
(dp3720
g73
(dp3721
sg75
(lp3722
g68
(g77
g70
NtRp3723
(dp3724
g73
(dp3725
g81
I5
ssg82
Nsg75
(lp3726
g68
(g84
g70
NtRp3727
(dp3728
g73
(dp3729
sg82
g3723
sg75
(lp3730
g68
(g89
g70
NtRp3731
(dp3732
g73
(dp3733
g93
g94
ssg82
g3727
sg75
(lp3734
g166
asbag68
(g89
g70
NtRp3735
(dp3736
g73
(dp3737
g100
g101
ssg82
g3727
sg75
(lp3738
S':'
asbag68
(g89
g70
NtRp3739
(dp3740
g73
(dp3741
sg82
g3727
sg75
(lp3742
g68
(g69
g70
NtRp3743
(dp3744
g73
(dp3745
g81
I5
ssg82
g3739
sg75
(lp3746
S'<cStringIO.StringO object at 0x9922b40>'
p3747
asbasbasbag68
(g84
g70
NtRp3748
(dp3749
g73
(dp3750
sg82
g3723
sg75
(lp3751
g68
(g89
g70
NtRp3752
(dp3753
g73
(dp3754
g93
g94
ssg82
g3748
sg75
(lp3755
g232
asbag68
(g89
g70
NtRp3756
(dp3757
g73
(dp3758
g100
g101
ssg82
g3748
sg75
(lp3759
S':'
asbag68
(g89
g70
NtRp3760
(dp3761
g73
(dp3762
sg82
g3748
sg75
(lp3763
g68
(g69
g70
NtRp3764
(dp3765
g73
(dp3766
g81
I5
ssg82
g3760
sg75
(lp3767
g68
(g77
g70
NtRp3768
(dp3769
g73
(dp3770
g81
I4
ssg82
Nsg75
(lp3771
g68
(g84
g70
NtRp3772
(dp3773
g73
(dp3774
sg82
g3768
sg75
(lp3775
g68
(g89
g70
NtRp3776
(dp3777
g73
(dp3778
g93
g94
ssg82
g3772
sg75
(lp3779
S'session_id_blogpost'
p3780
asbag68
(g89
g70
NtRp3781
(dp3782
g73
(dp3783
g100
g101
ssg82
g3772
sg75
(lp3784
S':'
asbag68
(g89
g70
NtRp3785
(dp3786
g73
(dp3787
sg82
g3772
sg75
(lp3788
g68
(g69
g70
NtRp3789
(dp3790
g73
(dp3791
g81
I4
ssg82
g3785
sg75
(lp3792
g68
(g77
g70
NtRp3793
(dp3794
g73
(dp3795
g81
I3
ssg82
Nsg75
(lp3796
g68
(g84
g70
NtRp3797
(dp3798
g73
(dp3799
sg82
g3793
sg75
(lp3800
g68
(g89
g70
NtRp3801
(dp3802
g73
(dp3803
g93
g94
ssg82
g3797
sg75
(lp3804
g282
asbag68
(g89
g70
NtRp3805
(dp3806
g73
(dp3807
g100
g101
ssg82
g3797
sg75
(lp3808
S':'
asbag68
(g89
g70
NtRp3809
(dp3810
g73
(dp3811
sg82
g3797
sg75
(lp3812
g68
(g69
g70
NtRp3813
(dp3814
g73
(dp3815
g81
I3
ssg82
g3809
sg75
(lp3816
S''
asbasbasbag68
(g84
g70
NtRp3817
(dp3818
g73
(dp3819
sg82
g3793
sg75
(lp3820
g68
(g89
g70
NtRp3821
(dp3822
g73
(dp3823
g93
g94
ssg82
g3817
sg75
(lp3824
g303
asbag68
(g89
g70
NtRp3825
(dp3826
g73
(dp3827
g100
g101
ssg82
g3817
sg75
(lp3828
S':'
asbag68
(g89
g70
NtRp3829
(dp3830
g73
(dp3831
sg82
g3817
sg75
(lp3832
g68
(g69
g70
NtRp3833
(dp3834
g73
(dp3835
g81
I3
ssg82
g3829
sg75
(lp3836
S''
asbasbasbag68
(g84
g70
NtRp3837
(dp3838
g73
(dp3839
sg82
g3793
sg75
(lp3840
g68
(g89
g70
NtRp3841
(dp3842
g73
(dp3843
g93
g94
ssg82
g3837
sg75
(lp3844
g324
asbag68
(g89
g70
NtRp3845
(dp3846
g73
(dp3847
g100
g101
ssg82
g3837
sg75
(lp3848
S':'
asbag68
(g89
g70
NtRp3849
(dp3850
g73
(dp3851
sg82
g3837
sg75
(lp3852
g68
(g69
g70
NtRp3853
(dp3854
g73
(dp3855
g81
I3
ssg82
g3849
sg75
(lp3856
S''
asbasbasbag68
(g84
g70
NtRp3857
(dp3858
g73
(dp3859
sg82
g3793
sg75
(lp3860
g68
(g89
g70
NtRp3861
(dp3862
g73
(dp3863
g93
g94
ssg82
g3857
sg75
(lp3864
g345
asbag68
(g89
g70
NtRp3865
(dp3866
g73
(dp3867
g100
g101
ssg82
g3857
sg75
(lp3868
S':'
asbag68
(g89
g70
NtRp3869
(dp3870
g73
(dp3871
sg82
g3857
sg75
(lp3872
g68
(g69
g70
NtRp3873
(dp3874
g73
(dp3875
g81
I3
ssg82
g3869
sg75
(lp3876
S''
asbasbasbag68
(g84
g70
NtRp3877
(dp3878
g73
(dp3879
sg82
g3793
sg75
(lp3880
g68
(g89
g70
NtRp3881
(dp3882
g73
(dp3883
g93
g94
ssg82
g3877
sg75
(lp3884
g366
asbag68
(g89
g70
NtRp3885
(dp3886
g73
(dp3887
g100
g101
ssg82
g3877
sg75
(lp3888
S':'
asbag68
(g89
g70
NtRp3889
(dp3890
g73
(dp3891
sg82
g3877
sg75
(lp3892
g68
(g69
g70
NtRp3893
(dp3894
g73
(dp3895
g81
I3
ssg82
g3889
sg75
(lp3896
S''
asbasbasbag68
(g84
g70
NtRp3897
(dp3898
g73
(dp3899
sg82
g3793
sg75
(lp3900
g68
(g89
g70
NtRp3901
(dp3902
g73
(dp3903
g93
g94
ssg82
g3897
sg75
(lp3904
g387
asbag68
(g89
g70
NtRp3905
(dp3906
g73
(dp3907
g100
g101
ssg82
g3897
sg75
(lp3908
S':'
asbag68
(g89
g70
NtRp3909
(dp3910
g73
(dp3911
sg82
g3897
sg75
(lp3912
g68
(g69
g70
NtRp3913
(dp3914
g73
(dp3915
g81
I3
ssg82
g3909
sg75
(lp3916
S'/'
asbasbasbag68
(g84
g70
NtRp3917
(dp3918
g73
(dp3919
sg82
g3793
sg75
(lp3920
g68
(g89
g70
NtRp3921
(dp3922
g73
(dp3923
g93
g94
ssg82
g3917
sg75
(lp3924
g408
asbag68
(g89
g70
NtRp3925
(dp3926
g73
(dp3927
g100
g101
ssg82
g3917
sg75
(lp3928
S':'
asbag68
(g89
g70
NtRp3929
(dp3930
g73
(dp3931
sg82
g3917
sg75
(lp3932
g68
(g69
g70
NtRp3933
(dp3934
g73
(dp3935
g81
I3
ssg82
g3929
sg75
(lp3936
S''
asbasbasbag68
(g84
g70
NtRp3937
(dp3938
g73
(dp3939
sg82
g3793
sg75
(lp3940
g68
(g89
g70
NtRp3941
(dp3942
g73
(dp3943
g93
g94
ssg82
g3937
sg75
(lp3944
g429
asbag68
(g89
g70
NtRp3945
(dp3946
g73
(dp3947
g100
g101
ssg82
g3937
sg75
(lp3948
S':'
asbag68
(g89
g70
NtRp3949
(dp3950
g73
(dp3951
sg82
g3937
sg75
(lp3952
g68
(g69
g70
NtRp3953
(dp3954
g73
(dp3955
g81
I3
ssg82
g3949
sg75
(lp3956
S''
asbasbasbasbasbasbasbasbasbasbasbag68
(g84
g70
NtRp3957
(dp3958
g73
(dp3959
sg82
g3723
sg75
(lp3960
g68
(g89
g70
NtRp3961
(dp3962
g73
(dp3963
g93
g94
ssg82
g3957
sg75
(lp3964
S'files'
p3965
asbag68
(g89
g70
NtRp3966
(dp3967
g73
(dp3968
g100
g101
ssg82
g3957
sg75
(lp3969
S':'
asbag68
(g89
g70
NtRp3970
(dp3971
g73
(dp3972
sg82
g3957
sg75
(lp3973
g68
(g69
g70
NtRp3974
(dp3975
g73
(dp3976
g81
I5
ssg82
g3970
sg75
(lp3977
g68
(g77
g70
NtRp3978
(dp3979
g73
(dp3980
g81
I4
ssg82
Nsg75
(lp3981
sbasbasbasbag68
(g84
g70
NtRp3982
(dp3983
g73
(dp3984
sg82
g3723
sg75
(lp3985
g68
(g89
g70
NtRp3986
(dp3987
g73
(dp3988
g93
g94
ssg82
g3982
sg75
(lp3989
S'flash'
p3990
asbag68
(g89
g70
NtRp3991
(dp3992
g73
(dp3993
g100
g101
ssg82
g3982
sg75
(lp3994
S':'
asbag68
(g89
g70
NtRp3995
(dp3996
g73
(dp3997
sg82
g3982
sg75
(lp3998
g68
(g69
g70
NtRp3999
(dp4000
g73
(dp4001
g81
I5
ssg82
g3995
sg75
(lp4002
S''
asbasbasbag68
(g84
g70
NtRp4003
(dp4004
g73
(dp4005
sg82
g3723
sg75
(lp4006
g68
(g89
g70
NtRp4007
(dp4008
g73
(dp4009
g93
g94
ssg82
g4003
sg75
(lp4010
S'generic_patterns'
p4011
asbag68
(g89
g70
NtRp4012
(dp4013
g73
(dp4014
g100
g101
ssg82
g4003
sg75
(lp4015
S':'
asbag68
(g89
g70
NtRp4016
(dp4017
g73
(dp4018
sg82
g4003
sg75
(lp4019
g68
(g69
g70
NtRp4020
(dp4021
g73
(dp4022
g81
I5
ssg82
g4016
sg75
(lp4023
g68
(g77
g70
NtRp4024
(dp4025
g73
(dp4026
g81
I4
ssg82
Nsg75
(lp4027
g68
(g84
g70
NtRp4028
(dp4029
g73
(dp4030
sg82
g4024
sg75
(lp4031
g68
(g89
g70
NtRp4032
(dp4033
g73
(dp4034
sg82
g4028
sg75
(lp4035
g68
(g69
g70
NtRp4036
(dp4037
g73
(dp4038
g81
I4
ssg82
g4032
sg75
(lp4039
S'*'
asbasbasbasbasbasbasbag68
(g84
g70
NtRp4040
(dp4041
g73
(dp4042
sg82
g3723
sg75
(lp4043
g68
(g89
g70
NtRp4044
(dp4045
g73
(dp4046
g93
g94
ssg82
g4040
sg75
(lp4047
S'headers'
p4048
asbag68
(g89
g70
NtRp4049
(dp4050
g73
(dp4051
g100
g101
ssg82
g4040
sg75
(lp4052
S':'
asbag68
(g89
g70
NtRp4053
(dp4054
g73
(dp4055
sg82
g4040
sg75
(lp4056
g68
(g69
g70
NtRp4057
(dp4058
g73
(dp4059
g81
I5
ssg82
g4053
sg75
(lp4060
g68
(g77
g70
NtRp4061
(dp4062
g73
(dp4063
g81
I4
ssg82
Nsg75
(lp4064
g68
(g84
g70
NtRp4065
(dp4066
g73
(dp4067
sg82
g4061
sg75
(lp4068
g68
(g89
g70
NtRp4069
(dp4070
g73
(dp4071
g93
g94
ssg82
g4065
sg75
(lp4072
S'Cache-Control'
p4073
asbag68
(g89
g70
NtRp4074
(dp4075
g73
(dp4076
g100
g101
ssg82
g4065
sg75
(lp4077
S':'
asbag68
(g89
g70
NtRp4078
(dp4079
g73
(dp4080
sg82
g4065
sg75
(lp4081
g68
(g69
g70
NtRp4082
(dp4083
g73
(dp4084
g81
I4
ssg82
g4078
sg75
(lp4085
S'no-store, no-cache, must-revalidate, post-check=0, pre-check=0'
p4086
asbasbasbag68
(g84
g70
NtRp4087
(dp4088
g73
(dp4089
sg82
g4061
sg75
(lp4090
g68
(g89
g70
NtRp4091
(dp4092
g73
(dp4093
g93
g94
ssg82
g4087
sg75
(lp4094
S'Content-Type'
p4095
asbag68
(g89
g70
NtRp4096
(dp4097
g73
(dp4098
g100
g101
ssg82
g4087
sg75
(lp4099
S':'
asbag68
(g89
g70
NtRp4100
(dp4101
g73
(dp4102
sg82
g4087
sg75
(lp4103
g68
(g69
g70
NtRp4104
(dp4105
g73
(dp4106
g81
I4
ssg82
g4100
sg75
(lp4107
S'text/html; charset=utf-8'
p4108
asbasbasbag68
(g84
g70
NtRp4109
(dp4110
g73
(dp4111
sg82
g4061
sg75
(lp4112
g68
(g89
g70
NtRp4113
(dp4114
g73
(dp4115
g93
g94
ssg82
g4109
sg75
(lp4116
S'Expires'
p4117
asbag68
(g89
g70
NtRp4118
(dp4119
g73
(dp4120
g100
g101
ssg82
g4109
sg75
(lp4121
S':'
asbag68
(g89
g70
NtRp4122
(dp4123
g73
(dp4124
sg82
g4109
sg75
(lp4125
g68
(g69
g70
NtRp4126
(dp4127
g73
(dp4128
g81
I4
ssg82
g4122
sg75
(lp4129
S'Sat, 14 May 2016 14:46:12 GMT'
p4130
asbasbasbag68
(g84
g70
NtRp4131
(dp4132
g73
(dp4133
sg82
g4061
sg75
(lp4134
g68
(g89
g70
NtRp4135
(dp4136
g73
(dp4137
g93
g94
ssg82
g4131
sg75
(lp4138
S'Pragma'
p4139
asbag68
(g89
g70
NtRp4140
(dp4141
g73
(dp4142
g100
g101
ssg82
g4131
sg75
(lp4143
S':'
asbag68
(g89
g70
NtRp4144
(dp4145
g73
(dp4146
sg82
g4131
sg75
(lp4147
g68
(g69
g70
NtRp4148
(dp4149
g73
(dp4150
g81
I4
ssg82
g4144
sg75
(lp4151
S'no-cache'
p4152
asbasbasbag68
(g84
g70
NtRp4153
(dp4154
g73
(dp4155
sg82
g4061
sg75
(lp4156
g68
(g89
g70
NtRp4157
(dp4158
g73
(dp4159
g93
g94
ssg82
g4153
sg75
(lp4160
S'X-Powered-By'
p4161
asbag68
(g89
g70
NtRp4162
(dp4163
g73
(dp4164
g100
g101
ssg82
g4153
sg75
(lp4165
S':'
asbag68
(g89
g70
NtRp4166
(dp4167
g73
(dp4168
sg82
g4153
sg75
(lp4169
g68
(g69
g70
NtRp4170
(dp4171
g73
(dp4172
g81
I4
ssg82
g4166
sg75
(lp4173
S'web2py'
p4174
asbasbasbasbasbasbasbag68
(g84
g70
NtRp4175
(dp4176
g73
(dp4177
sg82
g3723
sg75
(lp4178
g68
(g89
g70
NtRp4179
(dp4180
g73
(dp4181
g93
g94
ssg82
g4175
sg75
(lp4182
S'menu'
p4183
asbag68
(g89
g70
NtRp4184
(dp4185
g73
(dp4186
g100
g101
ssg82
g4175
sg75
(lp4187
S':'
asbag68
(g89
g70
NtRp4188
(dp4189
g73
(dp4190
sg82
g4175
sg75
(lp4191
g68
(g69
g70
NtRp4192
(dp4193
g73
(dp4194
g81
I5
ssg82
g4188
sg75
(lp4195
g68
(g77
g70
NtRp4196
(dp4197
g73
(dp4198
g81
I4
ssg82
Nsg75
(lp4199
g68
(g84
g70
NtRp4200
(dp4201
g73
(dp4202
sg82
g4196
sg75
(lp4203
g68
(g89
g70
NtRp4204
(dp4205
g73
(dp4206
sg82
g4200
sg75
(lp4207
g68
(g69
g70
NtRp4208
(dp4209
g73
(dp4210
g81
I4
ssg82
g4204
sg75
(lp4211
g68
(g77
g70
NtRp4212
(dp4213
g73
(dp4214
g81
I3
ssg82
Nsg75
(lp4215
g68
(g84
g70
NtRp4216
(dp4217
g73
(dp4218
sg82
g4212
sg75
(lp4219
g68
(g89
g70
NtRp4220
(dp4221
g73
(dp4222
sg82
g4216
sg75
(lp4223
g68
(g69
g70
NtRp4224
(dp4225
g73
(dp4226
g81
I3
ssg82
g4220
sg75
(lp4227
cgluon.languages
lazyT_unpickle
p4228
(S't\x04\x00\x00\x00Home'
tRp4229
asbasbasbag68
(g84
g70
NtRp4230
(dp4231
g73
(dp4232
sg82
g4212
sg75
(lp4233
g68
(g89
g70
NtRp4234
(dp4235
g73
(dp4236
sg82
g4230
sg75
(lp4237
g68
(g69
g70
NtRp4238
(dp4239
g73
(dp4240
g81
I3
ssg82
g4234
sg75
(lp4241
g111
asbasbasbag68
(g84
g70
NtRp4242
(dp4243
g73
(dp4244
sg82
g4212
sg75
(lp4245
g68
(g89
g70
NtRp4246
(dp4247
g73
(dp4248
sg82
g4242
sg75
(lp4249
g68
(g69
g70
NtRp4250
(dp4251
g73
(dp4252
g81
I3
ssg82
g4246
sg75
(lp4253
S'/blogpost/default/index'
p4254
asbasbasbag68
(g84
g70
NtRp4255
(dp4256
g73
(dp4257
sg82
g4212
sg75
(lp4258
g68
(g89
g70
NtRp4259
(dp4260
g73
(dp4261
sg82
g4255
sg75
(lp4262
g68
(g69
g70
NtRp4263
(dp4264
g73
(dp4265
g81
I3
ssg82
g4259
sg75
(lp4266
g68
(g77
g70
NtRp4267
(dp4268
g73
(dp4269
g81
I2
ssg82
Nsg75
(lp4270
sbasbasbasbasbasbasbasbag68
(g84
g70
NtRp4271
(dp4272
g73
(dp4273
sg82
g4196
sg75
(lp4274
g68
(g89
g70
NtRp4275
(dp4276
g73
(dp4277
sg82
g4271
sg75
(lp4278
g68
(g69
g70
NtRp4279
(dp4280
g73
(dp4281
g81
I4
ssg82
g4275
sg75
(lp4282
g68
(g77
g70
NtRp4283
(dp4284
g73
(dp4285
g81
I3
ssg82
Nsg75
(lp4286
g68
(g84
g70
NtRp4287
(dp4288
g73
(dp4289
sg82
g4283
sg75
(lp4290
g68
(g89
g70
NtRp4291
(dp4292
g73
(dp4293
sg82
g4287
sg75
(lp4294
g68
(g69
g70
NtRp4295
(dp4296
g73
(dp4297
g81
I3
ssg82
g4291
sg75
(lp4298
g68
(cgluon.html
SPAN
p4299
g70
NtRp4300
(dp4301
g73
(dp4302
g93
S'color:yellow'
p4303
ssg82
Nsg75
(lp4304
g4174
asbasbasbasbag68
(g84
g70
NtRp4305
(dp4306
g73
(dp4307
sg82
g4283
sg75
(lp4308
g68
(g89
g70
NtRp4309
(dp4310
g73
(dp4311
sg82
g4305
sg75
(lp4312
g68
(g69
g70
NtRp4313
(dp4314
g73
(dp4315
g81
I3
ssg82
g4309
sg75
(lp4316
g111
asbasbasbag68
(g84
g70
NtRp4317
(dp4318
g73
(dp4319
sg82
g4283
sg75
(lp4320
g68
(g89
g70
NtRp4321
(dp4322
g73
(dp4323
sg82
g4317
sg75
(lp4324
g68
(g69
g70
NtRp4325
(dp4326
g73
(dp4327
g81
I3
ssg82
g4321
sg75
(lp4328
S'None'
p4329
asbasbasbag68
(g84
g70
NtRp4330
(dp4331
g73
(dp4332
sg82
g4283
sg75
(lp4333
g68
(g89
g70
NtRp4334
(dp4335
g73
(dp4336
sg82
g4330
sg75
(lp4337
g68
(g69
g70
NtRp4338
(dp4339
g73
(dp4340
g81
I3
ssg82
g4334
sg75
(lp4341
g68
(g77
g70
NtRp4342
(dp4343
g73
(dp4344
g81
I2
ssg82
Nsg75
(lp4345
g68
(g84
g70
NtRp4346
(dp4347
g73
(dp4348
sg82
g4342
sg75
(lp4349
g68
(g89
g70
NtRp4350
(dp4351
g73
(dp4352
sg82
g4346
sg75
(lp4353
g68
(g69
g70
NtRp4354
(dp4355
g73
(dp4356
g81
I2
ssg82
g4350
sg75
(lp4357
g68
(g77
g70
NtRp4358
(dp4359
g73
(dp4360
g81
I1
ssg82
Nsg75
(lp4361
g68
(g84
g70
NtRp4362
(dp4363
g73
(dp4364
sg82
g4358
sg75
(lp4365
g68
(g89
g70
NtRp4366
(dp4367
g73
(dp4368
sg82
g4362
sg75
(lp4369
g68
(g69
g70
NtRp4370
(dp4371
g73
(dp4372
g81
I1
ssg82
g4366
sg75
(lp4373
g4228
(S's\x08\x00\x00\x00My Sites'
tRp4374
asbasbasbag68
(g84
g70
NtRp4375
(dp4376
g73
(dp4377
sg82
g4358
sg75
(lp4378
g68
(g89
g70
NtRp4379
(dp4380
g73
(dp4381
sg82
g4375
sg75
(lp4382
g68
(g69
g70
NtRp4383
(dp4384
g73
(dp4385
g81
I1
ssg82
g4379
sg75
(lp4386
I00
asbasbasbag68
(g84
g70
NtRp4387
(dp4388
g73
(dp4389
sg82
g4358
sg75
(lp4390
g68
(g89
g70
NtRp4391
(dp4392
g73
(dp4393
sg82
g4387
sg75
(lp4394
g68
(g69
g70
NtRp4395
(dp4396
g73
(dp4397
g81
I1
ssg82
g4391
sg75
(lp4398
S'/admin/default/site'
p4399
asbasbasbasbasbasbasbag68
(g84
g70
NtRp4400
(dp4401
g73
(dp4402
sg82
g4342
sg75
(lp4403
g68
(g89
g70
NtRp4404
(dp4405
g73
(dp4406
sg82
g4400
sg75
(lp4407
g68
(g69
g70
NtRp4408
(dp4409
g73
(dp4410
g81
I2
ssg82
g4404
sg75
(lp4411
g68
(g77
g70
NtRp4412
(dp4413
g73
(dp4414
g81
I1
ssg82
Nsg75
(lp4415
g68
(g84
g70
NtRp4416
(dp4417
g73
(dp4418
sg82
g4412
sg75
(lp4419
g68
(g89
g70
NtRp4420
(dp4421
g73
(dp4422
sg82
g4416
sg75
(lp4423
g68
(g69
g70
NtRp4424
(dp4425
g73
(dp4426
g81
I1
ssg82
g4420
sg75
(lp4427
g4228
(S's\x08\x00\x00\x00This App'
tRp4428
asbasbasbag68
(g84
g70
NtRp4429
(dp4430
g73
(dp4431
sg82
g4412
sg75
(lp4432
g68
(g89
g70
NtRp4433
(dp4434
g73
(dp4435
sg82
g4429
sg75
(lp4436
g68
(g69
g70
NtRp4437
(dp4438
g73
(dp4439
g81
I1
ssg82
g4433
sg75
(lp4440
I00
asbasbasbag68
(g84
g70
NtRp4441
(dp4442
g73
(dp4443
sg82
g4412
sg75
(lp4444
g68
(g89
g70
NtRp4445
(dp4446
g73
(dp4447
sg82
g4441
sg75
(lp4448
g68
(g69
g70
NtRp4449
(dp4450
g73
(dp4451
g81
I1
ssg82
g4445
sg75
(lp4452
S'/admin/default/design/blogpost'
p4453
asbasbasbag68
(g84
g70
NtRp4454
(dp4455
g73
(dp4456
sg82
g4412
sg75
(lp4457
g68
(g89
g70
NtRp4458
(dp4459
g73
(dp4460
sg82
g4454
sg75
(lp4461
g68
(g69
g70
NtRp4462
(dp4463
g73
(dp4464
g81
I1
ssg82
g4458
sg75
(lp4465
(lp4466
(g4228
(S't\n\x00\x00\x00Controller'
tRp4467
I00
S'/admin/default/edit/blogpost/controllers/default.py'
tp4468
a(g4228
(S't\x04\x00\x00\x00View'
tRp4469
I00
S'/admin/default/edit/blogpost/views/default/add_blog_post.html'
tp4470
a(g4228
(S't\x06\x00\x00\x00Layout'
tRp4471
I00
S'/admin/default/edit/blogpost/views/layout.html'
tp4472
a(g4228
(S't\n\x00\x00\x00Stylesheet'
tRp4473
I00
S'/admin/default/edit/blogpost/static/css/web2py.css'
tp4474
a(g4228
(S's\x08\x00\x00\x00DB Model'
tRp4475
I00
S'/admin/default/edit/blogpost/models/db.py'
tp4476
a(g4228
(S's\n\x00\x00\x00Menu Model'
tRp4477
I00
S'/admin/default/edit/blogpost/models/menu.py'
tp4478
a(g4228
(S't\x08\x00\x00\x00Database'
tRp4479
I00
S'/blogpost/appadmin/index'
tp4480
a(g4228
(S't\x06\x00\x00\x00Errors'
tRp4481
I00
S'/admin/default/errors/blogpost'
tp4482
a(g4228
(S't\x05\x00\x00\x00About'
tRp4483
I00
S'/admin/default/about/blogpost'
tp4484
aasbasbasbasbasbasbasbag68
(g84
g70
NtRp4485
(dp4486
g73
(dp4487
sg82
g4342
sg75
(lp4488
g68
(g89
g70
NtRp4489
(dp4490
g73
(dp4491
sg82
g4485
sg75
(lp4492
g68
(g69
g70
NtRp4493
(dp4494
g73
(dp4495
g81
I2
ssg82
g4489
sg75
(lp4496
g68
(g77
g70
NtRp4497
(dp4498
g73
(dp4499
g81
I1
ssg82
Nsg75
(lp4500
g68
(g84
g70
NtRp4501
(dp4502
g73
(dp4503
sg82
g4497
sg75
(lp4504
g68
(g89
g70
NtRp4505
(dp4506
g73
(dp4507
sg82
g4501
sg75
(lp4508
g68
(g69
g70
NtRp4509
(dp4510
g73
(dp4511
g81
I1
ssg82
g4505
sg75
(lp4512
S'web2py.com'
p4513
asbasbasbag68
(g84
g70
NtRp4514
(dp4515
g73
(dp4516
sg82
g4497
sg75
(lp4517
g68
(g89
g70
NtRp4518
(dp4519
g73
(dp4520
sg82
g4514
sg75
(lp4521
g68
(g69
g70
NtRp4522
(dp4523
g73
(dp4524
g81
I1
ssg82
g4518
sg75
(lp4525
I00
asbasbasbag68
(g84
g70
NtRp4526
(dp4527
g73
(dp4528
sg82
g4497
sg75
(lp4529
g68
(g89
g70
NtRp4530
(dp4531
g73
(dp4532
sg82
g4526
sg75
(lp4533
g68
(g69
g70
NtRp4534
(dp4535
g73
(dp4536
g81
I1
ssg82
g4530
sg75
(lp4537
S'http://www.web2py.com'
p4538
asbasbasbag68
(g84
g70
NtRp4539
(dp4540
g73
(dp4541
sg82
g4497
sg75
(lp4542
g68
(g89
g70
NtRp4543
(dp4544
g73
(dp4545
sg82
g4539
sg75
(lp4546
g68
(g69
g70
NtRp4547
(dp4548
g73
(dp4549
g81
I1
ssg82
g4543
sg75
(lp4550
(lp4551
(g4228
(S't\x08\x00\x00\x00Download'
tRp4552
I00
S'http://www.web2py.com/examples/default/download'
p4553
tp4554
a(g4228
(S't\x07\x00\x00\x00Support'
tRp4555
I00
S'http://www.web2py.com/examples/default/support'
p4556
tp4557
a(g4228
(S't\x04\x00\x00\x00Demo'
tRp4558
I00
S'http://web2py.com/demo_admin'
p4559
tp4560
a(g4228
(S's\x0e\x00\x00\x00Quick Examples'
tRp4561
I00
S'http://web2py.com/examples/default/examples'
p4562
tp4563
a(g4228
(S't\x03\x00\x00\x00FAQ'
tRp4564
I00
S'http://web2py.com/AlterEgo'
p4565
tp4566
a(g4228
(S't\x06\x00\x00\x00Videos'
tRp4567
I00
S'http://www.web2py.com/examples/default/videos/'
p4568
tp4569
a(g4228
(S's\x11\x00\x00\x00Free Applications'
tRp4570
I00
S'http://web2py.com/appliances'
p4571
tp4572
a(g4228
(S't\x07\x00\x00\x00Plugins'
tRp4573
I00
S'http://web2py.com/plugins'
p4574
tp4575
a(g4228
(S't\x07\x00\x00\x00Layouts'
tRp4576
I00
S'http://web2py.com/layouts'
p4577
tp4578
a(g4228
(S't\x07\x00\x00\x00Recipes'
tRp4579
I00
S'http://web2pyslices.com/'
p4580
tp4581
a(g4228
(S't\x08\x00\x00\x00Semantic'
tRp4582
I00
S'http://web2py.com/semantic'
p4583
tp4584
aasbasbasbasbasbasbasbag68
(g84
g70
NtRp4585
(dp4586
g73
(dp4587
sg82
g4342
sg75
(lp4588
g68
(g89
g70
NtRp4589
(dp4590
g73
(dp4591
sg82
g4585
sg75
(lp4592
g68
(g69
g70
NtRp4593
(dp4594
g73
(dp4595
g81
I2
ssg82
g4589
sg75
(lp4596
g68
(g77
g70
NtRp4597
(dp4598
g73
(dp4599
g81
I1
ssg82
Nsg75
(lp4600
g68
(g84
g70
NtRp4601
(dp4602
g73
(dp4603
sg82
g4597
sg75
(lp4604
g68
(g89
g70
NtRp4605
(dp4606
g73
(dp4607
sg82
g4601
sg75
(lp4608
g68
(g69
g70
NtRp4609
(dp4610
g73
(dp4611
g81
I1
ssg82
g4605
sg75
(lp4612
g4228
(S't\r\x00\x00\x00Documentation'
tRp4613
asbasbasbag68
(g84
g70
NtRp4614
(dp4615
g73
(dp4616
sg82
g4597
sg75
(lp4617
g68
(g89
g70
NtRp4618
(dp4619
g73
(dp4620
sg82
g4614
sg75
(lp4621
g68
(g69
g70
NtRp4622
(dp4623
g73
(dp4624
g81
I1
ssg82
g4618
sg75
(lp4625
I00
asbasbasbag68
(g84
g70
NtRp4626
(dp4627
g73
(dp4628
sg82
g4597
sg75
(lp4629
g68
(g89
g70
NtRp4630
(dp4631
g73
(dp4632
sg82
g4626
sg75
(lp4633
g68
(g69
g70
NtRp4634
(dp4635
g73
(dp4636
g81
I1
ssg82
g4630
sg75
(lp4637
S'http://www.web2py.com/book'
p4638
asbasbasbag68
(g84
g70
NtRp4639
(dp4640
g73
(dp4641
sg82
g4597
sg75
(lp4642
g68
(g89
g70
NtRp4643
(dp4644
g73
(dp4645
sg82
g4639
sg75
(lp4646
g68
(g69
g70
NtRp4647
(dp4648
g73
(dp4649
g81
I1
ssg82
g4643
sg75
(lp4650
(lp4651
(g4228
(S't\x07\x00\x00\x00Preface'
tRp4652
I00
S'http://www.web2py.com/book/default/chapter/00'
p4653
tp4654
a(g4228
(S't\x0c\x00\x00\x00Introduction'
tRp4655
I00
S'http://www.web2py.com/book/default/chapter/01'
p4656
tp4657
a(g4228
(S't\x06\x00\x00\x00Python'
tRp4658
I00
S'http://www.web2py.com/book/default/chapter/02'
p4659
tp4660
a(g4228
(S't\x08\x00\x00\x00Overview'
tRp4661
I00
S'http://www.web2py.com/book/default/chapter/03'
p4662
tp4663
a(g4228
(S's\x08\x00\x00\x00The Core'
tRp4664
I00
S'http://www.web2py.com/book/default/chapter/04'
p4665
tp4666
a(g4228
(S's\t\x00\x00\x00The Views'
tRp4667
I00
S'http://www.web2py.com/book/default/chapter/05'
p4668
tp4669
a(g4228
(S't\x08\x00\x00\x00Database'
tRp4670
I00
S'http://www.web2py.com/book/default/chapter/06'
p4671
tp4672
a(g4228
(S's\x14\x00\x00\x00Forms and Validators'
tRp4673
I00
S'http://www.web2py.com/book/default/chapter/07'
p4674
tp4675
a(g4228
(S's\r\x00\x00\x00Email and SMS'
tRp4676
I00
S'http://www.web2py.com/book/default/chapter/08'
p4677
tp4678
a(g4228
(S's\x0e\x00\x00\x00Access Control'
tRp4679
I00
S'http://www.web2py.com/book/default/chapter/09'
p4680
tp4681
a(g4228
(S't\x08\x00\x00\x00Services'
tRp4682
I00
S'http://www.web2py.com/book/default/chapter/10'
p4683
tp4684
a(g4228
(S's\x0c\x00\x00\x00Ajax Recipes'
tRp4685
I00
S'http://www.web2py.com/book/default/chapter/11'
p4686
tp4687
a(g4228
(S's\x16\x00\x00\x00Components and Plugins'
tRp4688
I00
S'http://www.web2py.com/book/default/chapter/12'
p4689
tp4690
a(g4228
(S's\x12\x00\x00\x00Deployment Recipes'
tRp4691
I00
S'http://www.web2py.com/book/default/chapter/13'
p4692
tp4693
a(g4228
(S's\r\x00\x00\x00Other Recipes'
tRp4694
I00
S'http://www.web2py.com/book/default/chapter/14'
p4695
tp4696
a(g4228
(S's\r\x00\x00\x00Buy this book'
tRp4697
I00
S'http://stores.lulu.com/web2py'
p4698
tp4699
aasbasbasbasbasbasbasbag68
(g84
g70
NtRp4700
(dp4701
g73
(dp4702
sg82
g4342
sg75
(lp4703
g68
(g89
g70
NtRp4704
(dp4705
g73
(dp4706
sg82
g4700
sg75
(lp4707
g68
(g69
g70
NtRp4708
(dp4709
g73
(dp4710
g81
I2
ssg82
g4704
sg75
(lp4711
g68
(g77
g70
NtRp4712
(dp4713
g73
(dp4714
g81
I1
ssg82
Nsg75
(lp4715
g68
(g84
g70
NtRp4716
(dp4717
g73
(dp4718
sg82
g4712
sg75
(lp4719
g68
(g89
g70
NtRp4720
(dp4721
g73
(dp4722
sg82
g4716
sg75
(lp4723
g68
(g69
g70
NtRp4724
(dp4725
g73
(dp4726
g81
I1
ssg82
g4720
sg75
(lp4727
g4228
(S't\t\x00\x00\x00Community'
tRp4728
asbasbasbag68
(g84
g70
NtRp4729
(dp4730
g73
(dp4731
sg82
g4712
sg75
(lp4732
g68
(g89
g70
NtRp4733
(dp4734
g73
(dp4735
sg82
g4729
sg75
(lp4736
g68
(g69
g70
NtRp4737
(dp4738
g73
(dp4739
g81
I1
ssg82
g4733
sg75
(lp4740
I00
asbasbasbag68
(g84
g70
NtRp4741
(dp4742
g73
(dp4743
sg82
g4712
sg75
(lp4744
g68
(g89
g70
NtRp4745
(dp4746
g73
(dp4747
sg82
g4741
sg75
(lp4748
g68
(g69
g70
NtRp4749
(dp4750
g73
(dp4751
g81
I1
ssg82
g4745
sg75
(lp4752
Nasbasbasbag68
(g84
g70
NtRp4753
(dp4754
g73
(dp4755
sg82
g4712
sg75
(lp4756
g68
(g89
g70
NtRp4757
(dp4758
g73
(dp4759
sg82
g4753
sg75
(lp4760
g68
(g69
g70
NtRp4761
(dp4762
g73
(dp4763
g81
I1
ssg82
g4757
sg75
(lp4764
(lp4765
(g4228
(S't\x06\x00\x00\x00Groups'
tRp4766
I00
S'http://www.web2py.com/examples/default/usergroups'
p4767
tp4768
a(g4228
(S't\x07\x00\x00\x00Twitter'
tRp4769
I00
S'http://twitter.com/web2py'
p4770
tp4771
a(g4228
(S's\t\x00\x00\x00Live Chat'
tRp4772
I00
S'http://webchat.freenode.net/?channels=web2py'
p4773
tp4774
aasbasbasbasbasbasbasbag68
(g84
g70
NtRp4775
(dp4776
g73
(dp4777
sg82
g4342
sg75
(lp4778
g68
(g89
g70
NtRp4779
(dp4780
g73
(dp4781
sg82
g4775
sg75
(lp4782
g68
(g69
g70
NtRp4783
(dp4784
g73
(dp4785
g81
I2
ssg82
g4779
sg75
(lp4786
g68
(g77
g70
NtRp4787
(dp4788
g73
(dp4789
g81
I1
ssg82
Nsg75
(lp4790
g68
(g84
g70
NtRp4791
(dp4792
g73
(dp4793
sg82
g4787
sg75
(lp4794
g68
(g89
g70
NtRp4795
(dp4796
g73
(dp4797
sg82
g4791
sg75
(lp4798
g68
(g69
g70
NtRp4799
(dp4800
g73
(dp4801
g81
I1
ssg82
g4795
sg75
(lp4802
g4228
(S't\x07\x00\x00\x00Plugins'
tRp4803
asbasbasbag68
(g84
g70
NtRp4804
(dp4805
g73
(dp4806
sg82
g4787
sg75
(lp4807
g68
(g89
g70
NtRp4808
(dp4809
g73
(dp4810
sg82
g4804
sg75
(lp4811
g68
(g69
g70
NtRp4812
(dp4813
g73
(dp4814
g81
I1
ssg82
g4808
sg75
(lp4815
I00
asbasbasbag68
(g84
g70
NtRp4816
(dp4817
g73
(dp4818
sg82
g4787
sg75
(lp4819
g68
(g89
g70
NtRp4820
(dp4821
g73
(dp4822
sg82
g4816
sg75
(lp4823
g68
(g69
g70
NtRp4824
(dp4825
g73
(dp4826
g81
I1
ssg82
g4820
sg75
(lp4827
Nasbasbasbag68
(g84
g70
NtRp4828
(dp4829
g73
(dp4830
sg82
g4787
sg75
(lp4831
g68
(g89
g70
NtRp4832
(dp4833
g73
(dp4834
sg82
g4828
sg75
(lp4835
g68
(g69
g70
NtRp4836
(dp4837
g73
(dp4838
g81
I1
ssg82
g4832
sg75
(lp4839
(lp4840
(S'plugin_wiki'
p4841
I00
S'http://web2py.com/examples/default/download'
p4842
tp4843
a(g4228
(S's\r\x00\x00\x00Other Plugins'
tRp4844
I00
g4574
tp4845
a(g4228
(S's\x0e\x00\x00\x00Layout Plugins'
tRp4846
I00
g4577
tp4847
aasbasbasbasbasbasbasbasbasbasbasbasbasbasbasbasbasbasbasbag68
(g84
g70
NtRp4848
(dp4849
g73
(dp4850
sg82
g3723
sg75
(lp4851
g68
(g89
g70
NtRp4852
(dp4853
g73
(dp4854
g93
g94
ssg82
g4848
sg75
(lp4855
S'meta'
p4856
asbag68
(g89
g70
NtRp4857
(dp4858
g73
(dp4859
g100
g101
ssg82
g4848
sg75
(lp4860
S':'
asbag68
(g89
g70
NtRp4861
(dp4862
g73
(dp4863
sg82
g4848
sg75
(lp4864
g68
(g69
g70
NtRp4865
(dp4866
g73
(dp4867
g81
I5
ssg82
g4861
sg75
(lp4868
g68
(g77
g70
NtRp4869
(dp4870
g73
(dp4871
g81
I4
ssg82
Nsg75
(lp4872
g68
(g84
g70
NtRp4873
(dp4874
g73
(dp4875
sg82
g4869
sg75
(lp4876
g68
(g89
g70
NtRp4877
(dp4878
g73
(dp4879
g93
g94
ssg82
g4873
sg75
(lp4880
S'author'
p4881
asbag68
(g89
g70
NtRp4882
(dp4883
g73
(dp4884
g100
g101
ssg82
g4873
sg75
(lp4885
S':'
asbag68
(g89
g70
NtRp4886
(dp4887
g73
(dp4888
sg82
g4873
sg75
(lp4889
g68
(g69
g70
NtRp4890
(dp4891
g73
(dp4892
g81
I4
ssg82
g4886
sg75
(lp4893
S'Your Name <you@example.com>'
p4894
asbasbasbag68
(g84
g70
NtRp4895
(dp4896
g73
(dp4897
sg82
g4869
sg75
(lp4898
g68
(g89
g70
NtRp4899
(dp4900
g73
(dp4901
g93
g94
ssg82
g4895
sg75
(lp4902
S'copyright'
p4903
asbag68
(g89
g70
NtRp4904
(dp4905
g73
(dp4906
g100
g101
ssg82
g4895
sg75
(lp4907
S':'
asbag68
(g89
g70
NtRp4908
(dp4909
g73
(dp4910
sg82
g4895
sg75
(lp4911
g68
(g69
g70
NtRp4912
(dp4913
g73
(dp4914
g81
I4
ssg82
g4908
sg75
(lp4915
S'Copyright 2011'
p4916
asbasbasbag68
(g84
g70
NtRp4917
(dp4918
g73
(dp4919
sg82
g4869
sg75
(lp4920
g68
(g89
g70
NtRp4921
(dp4922
g73
(dp4923
g93
g94
ssg82
g4917
sg75
(lp4924
S'description'
p4925
asbag68
(g89
g70
NtRp4926
(dp4927
g73
(dp4928
g100
g101
ssg82
g4917
sg75
(lp4929
S':'
asbag68
(g89
g70
NtRp4930
(dp4931
g73
(dp4932
sg82
g4917
sg75
(lp4933
g68
(g69
g70
NtRp4934
(dp4935
g73
(dp4936
g81
I4
ssg82
g4930
sg75
(lp4937
S'a cool new app'
p4938
asbasbasbag68
(g84
g70
NtRp4939
(dp4940
g73
(dp4941
sg82
g4869
sg75
(lp4942
g68
(g89
g70
NtRp4943
(dp4944
g73
(dp4945
g93
g94
ssg82
g4939
sg75
(lp4946
S'generator'
p4947
asbag68
(g89
g70
NtRp4948
(dp4949
g73
(dp4950
g100
g101
ssg82
g4939
sg75
(lp4951
S':'
asbag68
(g89
g70
NtRp4952
(dp4953
g73
(dp4954
sg82
g4939
sg75
(lp4955
g68
(g69
g70
NtRp4956
(dp4957
g73
(dp4958
g81
I4
ssg82
g4952
sg75
(lp4959
S'Web2py Web Framework'
p4960
asbasbasbag68
(g84
g70
NtRp4961
(dp4962
g73
(dp4963
sg82
g4869
sg75
(lp4964
g68
(g89
g70
NtRp4965
(dp4966
g73
(dp4967
g93
g94
ssg82
g4961
sg75
(lp4968
S'keywords'
p4969
asbag68
(g89
g70
NtRp4970
(dp4971
g73
(dp4972
g100
g101
ssg82
g4961
sg75
(lp4973
S':'
asbag68
(g89
g70
NtRp4974
(dp4975
g73
(dp4976
sg82
g4961
sg75
(lp4977
g68
(g69
g70
NtRp4978
(dp4979
g73
(dp4980
g81
I4
ssg82
g4974
sg75
(lp4981
S'web2py, python, framework'
p4982
asbasbasbasbasbasbasbag68
(g84
g70
NtRp4983
(dp4984
g73
(dp4985
sg82
g3723
sg75
(lp4986
g68
(g89
g70
NtRp4987
(dp4988
g73
(dp4989
g93
g94
ssg82
g4983
sg75
(lp4990
S'postprocessing'
p4991
asbag68
(g89
g70
NtRp4992
(dp4993
g73
(dp4994
g100
g101
ssg82
g4983
sg75
(lp4995
S':'
asbag68
(g89
g70
NtRp4996
(dp4997
g73
(dp4998
sg82
g4983
sg75
(lp4999
g68
(g69
g70
NtRp5000
(dp5001
g73
(dp5002
g81
I5
ssg82
g4996
sg75
(lp5003
g68
(g77
g70
NtRp5004
(dp5005
g73
(dp5006
g81
I4
ssg82
Nsg75
(lp5007
sbasbasbasbag68
(g84
g70
NtRp5008
(dp5009
g73
(dp5010
sg82
g3723
sg75
(lp5011
g68
(g89
g70
NtRp5012
(dp5013
g73
(dp5014
g93
g94
ssg82
g5008
sg75
(lp5015
S'session_file'
p5016
asbag68
(g89
g70
NtRp5017
(dp5018
g73
(dp5019
g100
g101
ssg82
g5008
sg75
(lp5020
S':'
asbag68
(g89
g70
NtRp5021
(dp5022
g73
(dp5023
sg82
g5008
sg75
(lp5024
g68
(g69
g70
NtRp5025
(dp5026
g73
(dp5027
g81
I5
ssg82
g5021
sg75
(lp5028
S"<open file '/home/mukul/web2py/applications/blogpost/sessions/127.0.0.1-db0d4806-b3c3-4347-967a-d3847597ee73', mode 'rb+' at 0xaac5a0d0>"
p5029
asbasbasbag68
(g84
g70
NtRp5030
(dp5031
g73
(dp5032
sg82
g3723
sg75
(lp5033
g68
(g89
g70
NtRp5034
(dp5035
g73
(dp5036
g93
g94
ssg82
g5030
sg75
(lp5037
S'session_filename'
p5038
asbag68
(g89
g70
NtRp5039
(dp5040
g73
(dp5041
g100
g101
ssg82
g5030
sg75
(lp5042
S':'
asbag68
(g89
g70
NtRp5043
(dp5044
g73
(dp5045
sg82
g5030
sg75
(lp5046
g68
(g69
g70
NtRp5047
(dp5048
g73
(dp5049
g81
I5
ssg82
g5043
sg75
(lp5050
S'/home/mukul/web2py/applications/blogpost/sessions/127.0.0.1-db0d4806-b3c3-4347-967a-d3847597ee73'
p5051
asbasbasbag68
(g84
g70
NtRp5052
(dp5053
g73
(dp5054
sg82
g3723
sg75
(lp5055
g68
(g89
g70
NtRp5056
(dp5057
g73
(dp5058
g93
g94
ssg82
g5052
sg75
(lp5059
S'session_id'
p5060
asbag68
(g89
g70
NtRp5061
(dp5062
g73
(dp5063
g100
g101
ssg82
g5052
sg75
(lp5064
S':'
asbag68
(g89
g70
NtRp5065
(dp5066
g73
(dp5067
sg82
g5052
sg75
(lp5068
g68
(g69
g70
NtRp5069
(dp5070
g73
(dp5071
g81
I5
ssg82
g5065
sg75
(lp5072
S'127.0.0.1-db0d4806-b3c3-4347-967a-d3847597ee73'
p5073
asbasbasbag68
(g84
g70
NtRp5074
(dp5075
g73
(dp5076
sg82
g3723
sg75
(lp5077
g68
(g89
g70
NtRp5078
(dp5079
g73
(dp5080
g93
g94
ssg82
g5074
sg75
(lp5081
S'session_id_name'
p5082
asbag68
(g89
g70
NtRp5083
(dp5084
g73
(dp5085
g100
g101
ssg82
g5074
sg75
(lp5086
S':'
asbag68
(g89
g70
NtRp5087
(dp5088
g73
(dp5089
sg82
g5074
sg75
(lp5090
g68
(g69
g70
NtRp5091
(dp5092
g73
(dp5093
g81
I5
ssg82
g5087
sg75
(lp5094
g3780
asbasbasbag68
(g84
g70
NtRp5095
(dp5096
g73
(dp5097
sg82
g3723
sg75
(lp5098
g68
(g89
g70
NtRp5099
(dp5100
g73
(dp5101
g93
g94
ssg82
g5095
sg75
(lp5102
S'session_locked'
p5103
asbag68
(g89
g70
NtRp5104
(dp5105
g73
(dp5106
g100
g101
ssg82
g5095
sg75
(lp5107
S':'
asbag68
(g89
g70
NtRp5108
(dp5109
g73
(dp5110
sg82
g5095
sg75
(lp5111
g68
(g69
g70
NtRp5112
(dp5113
g73
(dp5114
g81
I5
ssg82
g5108
sg75
(lp5115
g2036
asbasbasbag68
(g84
g70
NtRp5116
(dp5117
g73
(dp5118
sg82
g3723
sg75
(lp5119
g68
(g89
g70
NtRp5120
(dp5121
g73
(dp5122
g93
g94
ssg82
g5116
sg75
(lp5123
S'session_new'
p5124
asbag68
(g89
g70
NtRp5125
(dp5126
g73
(dp5127
g100
g101
ssg82
g5116
sg75
(lp5128
S':'
asbag68
(g89
g70
NtRp5129
(dp5130
g73
(dp5131
sg82
g5116
sg75
(lp5132
g68
(g69
g70
NtRp5133
(dp5134
g73
(dp5135
g81
I5
ssg82
g5129
sg75
(lp5136
g111
asbasbasbag68
(g84
g70
NtRp5137
(dp5138
g73
(dp5139
sg82
g3723
sg75
(lp5140
g68
(g89
g70
NtRp5141
(dp5142
g73
(dp5143
g93
g94
ssg82
g5137
sg75
(lp5144
S'status'
p5145
asbag68
(g89
g70
NtRp5146
(dp5147
g73
(dp5148
g100
g101
ssg82
g5137
sg75
(lp5149
S':'
asbag68
(g89
g70
NtRp5150
(dp5151
g73
(dp5152
sg82
g5137
sg75
(lp5153
g68
(g69
g70
NtRp5154
(dp5155
g73
(dp5156
g81
I5
ssg82
g5150
sg75
(lp5157
S'200'
p5158
asbasbasbag68
(g84
g70
NtRp5159
(dp5160
g73
(dp5161
sg82
g3723
sg75
(lp5162
g68
(g89
g70
NtRp5163
(dp5164
g73
(dp5165
g93
g94
ssg82
g5159
sg75
(lp5166
S'subtitle'
p5167
asbag68
(g89
g70
NtRp5168
(dp5169
g73
(dp5170
g100
g101
ssg82
g5159
sg75
(lp5171
S':'
asbag68
(g89
g70
NtRp5172
(dp5173
g73
(dp5174
sg82
g5159
sg75
(lp5175
g68
(g69
g70
NtRp5176
(dp5177
g73
(dp5178
g81
I5
ssg82
g5172
sg75
(lp5179
g4228
(S's\r\x00\x00\x00customize me!'
tRp5180
asbasbasbag68
(g84
g70
NtRp5181
(dp5182
g73
(dp5183
sg82
g3723
sg75
(lp5184
g68
(g89
g70
NtRp5185
(dp5186
g73
(dp5187
g93
g94
ssg82
g5181
sg75
(lp5188
S'title'
p5189
asbag68
(g89
g70
NtRp5190
(dp5191
g73
(dp5192
g100
g101
ssg82
g5181
sg75
(lp5193
S':'
asbag68
(g89
g70
NtRp5194
(dp5195
g73
(dp5196
sg82
g5181
sg75
(lp5197
g68
(g69
g70
NtRp5198
(dp5199
g73
(dp5200
g81
I5
ssg82
g5194
sg75
(lp5201
S'Blogpost'
p5202
asbasbasbag68
(g84
g70
NtRp5203
(dp5204
g73
(dp5205
sg82
g3723
sg75
(lp5206
g68
(g89
g70
NtRp5207
(dp5208
g73
(dp5209
g93
g94
ssg82
g5203
sg75
(lp5210
g2700
asbag68
(g89
g70
NtRp5211
(dp5212
g73
(dp5213
g100
g101
ssg82
g5203
sg75
(lp5214
S':'
asbag68
(g89
g70
NtRp5215
(dp5216
g73
(dp5217
sg82
g5203
sg75
(lp5218
g68
(g69
g70
NtRp5219
(dp5220
g73
(dp5221
g81
I5
ssg82
g5215
sg75
(lp5222
g2713
asbasbasbag68
(g84
g70
NtRp5223
(dp5224
g73
(dp5225
sg82
g3723
sg75
(lp5226
g68
(g89
g70
NtRp5227
(dp5228
g73
(dp5229
g93
g94
ssg82
g5223
sg75
(lp5230
S'view'
p5231
asbag68
(g89
g70
NtRp5232
(dp5233
g73
(dp5234
g100
g101
ssg82
g5223
sg75
(lp5235
S':'
asbag68
(g89
g70
NtRp5236
(dp5237
g73
(dp5238
sg82
g5223
sg75
(lp5239
g68
(g69
g70
NtRp5240
(dp5241
g73
(dp5242
g81
I5
ssg82
g5236
sg75
(lp5243
S'default/add_blog_post.html'
p5244
asbasbasbasbasbsS'locals'
p5245
(dp5246
g4
S"'/home/mukul/web2py/applications/blogpost/controllers/default.py'"
p5247
sg6
S"'# -*- coding: utf-8 -*-\\n# this file is released ...\\n\\nresponse._vars=response._caller(add_blog_post)\\n'"
p5248
sssS'traceback'
p5249
S'Traceback (most recent call last):\n  File "/usr/lib/pymodules/python2.7/gluon/restricted.py", line 203, in restricted\n    ccode = compile2(code,layer)\n  File "/usr/lib/pymodules/python2.7/gluon/restricted.py", line 189, in compile2\n    return compile(code.rstrip().replace(\'\\r\\n\',\'\\n\')+\'\\n\', layer, \'exec\')\n  File "/home/mukul/web2py/applications/blogpost/controllers/default.py", line 27\n    redirect{{=URL(\'show\')}}\n   ^\nIndentationError: unexpected indent\n'
p5250
s.